vc:_glClearStencil
OGd:__ZN5physx2Gu19gjkLocalPenetrationINS0_8CapsuleVENS0_17ShrunkConvexHullVEEEjRKT_RKT0_RKNS_6shdfnd3aos6FloatVERNSB_5Vec3VESG_SG_RSC_PhSI_Rhb
OSh:_mbrlen
Ztg:_m_409121123_0
$Ra:__ZN17PersistentManager13GetAllFileIDsERKNSt3__112basic_stringIcNS0_11char_traitsIcEENS0_9allocatorIcEEEER13dynamic_arrayIxLj8EE
GQ:__ZN6il2cpp2vm5Array13GetByteLengthEP11Il2CppArray
Ur:__ZN18AnimatorController16StaticInitializeEPv
bkf:_m705559900_0
qCa:__Z21SourceMipLevelForBlitiiii
w2d:__ZN5physx18RepXPropertyFilterINS_2Sn17RepXVisitorReaderINS_16PxVehicleDriveNWEEEEclILj632ENS_15PxVehicleWheelsENS_22PxVehicleWheelsSimDataES8_EEvRKNS_14PxPropertyInfoIXT_ET0_T1_T2_EEj
bgf:_m2022291967_0
hCg:_m_881720499_0
nNg:_m_926292485_0
EHg:_m1253401141_0
Dz:__ZN4FMOD4DSPI9getBypassEPb
JVh:__ZNSt3__111__stdoutbufIwE5imbueERKNS_6localeE
$Gc:__ZNK5physx2Sc5Scene24getContactModifyCallbackEv
y2g:_m_1738562872_0_gshared
yA:__ZN4FMOD7SystemI17setSoftwareFormatEi17FMOD_SOUND_FORMATii18FMOD_DSP_RESAMPLER
Hr:__ZN11UnityEngine9Animation28GenericAnimationBindingCacheD2Ev
r3c:__ZN5physx2Sq10AABBPruner10addObjectsEPjPKNS_9PxBounds3EPKNS0_13PrunerPayloadEj
K2h:__ZNSt3__16vectorIPNS_6locale5facetENS_15__sso_allocatorIS3_Lj28EEEEC2Ej
cbh:__Z44t_182497747_0_CustomAttributesCacheGeneratorP21CustomAttributesCache
n0a:__Z13IsFileCreatedRKNSt3__112basic_stringIcNS_11char_traitsIcEENS_9allocatorIcEEEE
dsf:_m1405458718_0
A6g:__Z44t1734632168_0_CustomAttributesCacheGeneratorP21CustomAttributesCache
Eb:invoke_viiiifiiiiif
A3:__Z18RestoreRenderStateR20CameraRenderOldStateR17ShaderPassContext
GSd:__ZL32GeomOverlapCallback_ConvexConvexRKN5physx10PxGeometryERKNS_11PxTransformES2_S5_PNS_2Gu12TriggerCacheE
Jpf:_m1413818526_0
spf:_m373019507_0
T2f:_m_592883046_0
m_c:__ZNK5physx20PxsParticleSystemSim24getExternalAccelerationVEv
PQh:__ZL14CastclassClassP13t_887538054_0P8TypeInfo861
nai:_emscripten_glDeleteBuffers__wrapper
yqh:__Z59t_1280656144_0_CustomAttributesCacheGenerator_m1851666322_0P21CustomAttributesCache
lEc:__ZN5physx2Sc14ConstraintCore10breakApartEv
bPh:__ZN23InterfaceActionInvoker2IP13t_756155572_0S1_E6InvokeEjP8TypeInfoPvS1_S1_
dad:__ZN5physx7Cooking20loadTriangleMeshDescERKNS_18PxTriangleMeshDescERNS_19TriangleMeshBuilderE
csh:__Z85RuntimeInvoker_t_224166001_0_t_1047982445_0_t_887538054_0_t_887538054_0_t_604974727_0PK10MethodInfoPvPS2_
bng:_m1535695330_0
o9g:__Z58t593719024_0_CustomAttributesCacheGenerator_m_1133437792_0P21CustomAttributesCache
NMe:_m1550167496_0
Eqc:__ZN5physx9NpFactory21releaseConnectorArrayEPNS_16NpConnectorArrayE
ZTf:_m_689205603_0
Lxe:_m1647067583_0_gshared
aXd:__ZNK5physx2Gu29EPASupportMapPairRelativeImplINS0_9TriangleVENS0_4BoxVEE6getDirEv
yic:__ZN13RuntimeStaticI18BackgroundJobQueueE13StaticDestroyEPv
vSa:__ZN17PersistentManager22CheckInstanceIDsLoadedEPii
yab:__ZN7ApiGLES17CopyBufferSubDataEjjlll
Q1c:__ZN5physx21PxcArticulationHelper22getImpulseSelfResponseERKNS_9PxcFsDataEjRKNS_14PxcSIMDSpatialERS4_jS6_S7_
iTh:_wmemmove
dNd:__ZNK5physx15NpActorTemplateINS_15PxParticleFluidEE22getClientBehaviorFlagsEv
Tca:__ZN17PrePassRenderLoop14RenderBasePassEP13RenderTextureRK14LightingLayersR13dynamic_arrayI16RenderObjectDataLj4EERbR10MinMaxAABB
DJh:__Z41RuntimeInvoker_t_19515315_0_t_427311721_0PK10MethodInfoPvPS2_
inf:_m1046676807_0
w$:__ZN17GlobalGameManager23VirtualRedirectTransferER17RemapPPtrTransfer
cBf:_m_933291964_0
nuf:_m_914720663_0
UBa:__ZN7Texture13SetFilterModeEi
qjb:__ZNSt3__16vectorIN6il2cpp2vm17TypeNameParseInfoENS_9allocatorIS3_EEE21__push_back_slow_pathIKS3_EEvRT_
Kre:_m1655469326_0_gshared
gBh:__Z42RuntimeInvoker_t_224738991_0_t_766435453_0PK10MethodInfoPvPS2_
yN:__ZN6il2cpp8metadata13GenericMethod9GetMethodEPK19Il2CppGenericMethod
Jxf:_m_1267937019_0
k0f:_m_1996909692_0
Edb:__ZN13GfxDeviceGLES11SetViewportERK5RectTIiE
j0d:__ZN5physx3Pvd17PvdPropertyFilterINS_2Sn17RepXVisitorReaderINS_16PxVehicleNoDriveEEEE27handleExtendedIndexPropertyILj687ES4_fKjNS_18PxUnknownClassInfoEEEvjRKNS_29PxExtendedIndexedPropertyInfoIXT_ET0_T2_T1_EERKT3_
vb:invoke_vifiiii
SVh:__ZNSt3__110__stdinbufIwE9__getcharEb
nMf:_m110682032_0
Wd:_emscripten_glDepthRange
Zfd:__ZN5physx2Gu24contactConvexHeightfieldERKNS0_13GeometryUnionES3_RKNS_11PxTransformES6_RKfRNS0_5CacheERNS0_13ContactBufferE
Oee:__ZN5physx6shdfnd5ArrayIPvNS0_19ReflectionAllocatorINS_2Cm5BlockIS2_Lj8EEEEEE15growAndPushBackERKS2_
SPh:__ZN16VirtFuncInvoker1IP12t215784633_0bE6InvokeEjPvb
dy:__ZNK11SoundHandle8IsStreamEv
CQe:_m1274339950_0
etb:__ZN4crndL20crnd_default_reallocEPvjPjbS0_
gUc:__ZN5physx24PxsComputeAABBLocalSpaceERKNS_18PxcAABBDataDynamicERNS_9PxBounds3E
zIa:__ZN13BuildSettings16StaticInitializeEPv
aIg:_m_374913689_0
D2g:__Z44t_887538054_0_CustomAttributesCacheGeneratorP21CustomAttributesCache
bXb:__Z16Transfer_BuiltinIs13ProxyTransferLb0EEvRK29SerializationCommandArgumentsR31RuntimeSerializationCommandInfo
ahc:__ZN13RuntimeStaticINSt3__13mapIy8TFShaderNS0_4lessIyEENS0_9allocatorINS0_4pairIKyS2_EEEEEEE13StaticDestroyEPv
m1f:_m_1411681074_0
Hqf:_m_951524869_0
jec:__ZN4PPtrI13RenderTextureE8TransferI18StreamedBinaryReadILb0EEEEvRT_
fgc:__ZNSt3__112__hash_tableINS_17__hash_value_typeINS_4pairIPK14Il2CppAssemblyP8TypeInfoEEP24Il2CppReflectionAssemblyEENS_22__unordered_map_hasherIS8_SB_17ReflectionMapHashIS8_ELb1EEENS_21__unordered_map_equalIS8_SB_19ReflectionMapEqualsIS8_ELb1EEEN6il2cpp2gc9AllocatorISB_EEE8__rehashEj
aAg:_m619558519_0
xsh:__Z112RuntimeInvoker_t_19515315_0_t_887538054_0_t1628762099_0_t_887538054_0_t1636693376_0_t_1425457070_0_t2034024306_0PK10MethodInfoPvPS2_
YOg:_m_1254831560_0
mDe:_m_1763598964_0_gshared
WQ:__ZN6il2cpp2vm5Class15GetElementClassEP8TypeInfo
pCd:__ZN5physx6shdfnd8internal8HashBaseINS0_4PairIKNS_2Sq13PrunerPayloadEjEES5_NS0_4HashIS5_EENS1_11HashMapBaseIS5_jS9_NS0_9AllocatorEE6GetKeyESB_Lb1EE5eraseERS6_
f9f:_m_484420926_0
Y2e:_m2091040175_0
hH:_il2cpp_class_get_name
TYd:__ZN5physx6shdfnd8internal8HashBaseINS0_4PairIKPKcjEES5_NS0_4HashIS5_EENS1_11HashMapBaseIS5_jS9_NS_7profile26WrapperReflectionAllocatorIjEEE6GetKeyESD_Lb1EE6createERS6_Rb
GDh:__Z84RuntimeInvoker_t1628762099_0_t1628762099_0_t1628762099_0_t1628762099_0_t1628762099_0PK10MethodInfoPvPS2_
grh:__Z59t_1821340891_0_CustomAttributesCacheGenerator_m_327639157_0P21CustomAttributesCache
eJg:_m1291328720_0
CAh:__Z155RuntimeInvoker_t1628762099_0_t_887538054_0_t1628762099_0_t1628762099_0_t_887538054_0_t1628762099_0_t1636693376_0_t_1047982445_0_t_604974727_0_t1636693376_0PK10MethodInfoPvPS2_
yWa:__ZN10FileSystem12MountHandlerEP17FileSystemHandler
H4e:_m1248230585_0
_7a:__Z9InitInputv
acb:__ZN4gles10SetTextureER15DeviceStateGLESj16TextureDimensionj19BuiltinSamplerState
jed:__ZNK5physx13GuMeshFactory15getConvexMeshesEPPNS_12PxConvexMeshEjj
__a:__ZN16MemoryFileSystem6DeleteER13FileEntryDatab
dsh:__Z99RuntimeInvoker_t_19515315_0_t_1047982445_0_t_887538054_0_t_1047982445_0_t1636693376_0_t2034024306_0PK10MethodInfoPvPS2_
jub:__ZL21BlitScaleStbImageImplRK14ImageReferenceRS_NS_10ColorSpaceE
Xqc:__ZN5physx10NpMaterial17setStaticFrictionEf
ych:__Z44t1340341771_0_CustomAttributesCacheGeneratorP21CustomAttributesCache
BHh:__Z43RuntimeInvoker_t_1204723828_0_t1628762099_0PK10MethodInfoPvPS2_
vs:__ZN18StreamedBinaryReadILb0EE21TransferSTLStyleArrayI13dynamic_arrayIjLj4EEEEvRT_17TransferMetaFlags
Cuc:__ZNK5physx7NpScene19getFilterShaderDataEv
Bci:_emscripten_glUniform2iv__wrapper
r3g:__Z59t_756155572_0_CustomAttributesCacheGenerator_m_1676730065_0P21CustomAttributesCache
GJc:__ZN5physx2Sc19ShapeInstancePairLL26onPoseChangedWhileSleepingEv
ceh:__Z44t_851705551_0_CustomAttributesCacheGeneratorP21CustomAttributesCache
A1c:__ZN5physx22PxcSweepCapsuleCapsuleERKNS_11PxsCCDShapeES2_PKNS_12PxsRigidBodyES5_RKNS_11PxTransformES8_S8_S8_fRNS_6PxVec3ESA_RNS_10PxcNpCacheERNS_18PxcNpThreadContextEf
bS:__ZN6il2cpp2vm9Exception27RaiseNullReferenceExceptionEv
B0d:__ZN5physx3Pvd17PvdPropertyFilterINS_2Sn17RepXVisitorReaderINS_22PxVehicleWheelsSimDataEEEE27handleExtendedIndexPropertyILj614ES4_NS_6PxVec3EKjNS_18PxUnknownClassInfoEEEvjRKNS_29PxExtendedIndexedPropertyInfoIXT_ET0_T2_T1_EERKT3_
bKd:__ZNK5physx3Cct17CapsuleController21getHalfHeightInternalEv
jrh:__Z90t1337460038_0_CustomAttributesCacheGenerator_t1337460038_0_m_71834160_0_Arg3_ParameterInfoP21CustomAttributesCache
tah:__Z44t_897536960_0_CustomAttributesCacheGeneratorP21CustomAttributesCache
lrh:__Z76t1085125273_0_CustomAttributesCacheGenerator_U3ClogEnabledU3Ek__BackingFieldP21CustomAttributesCache
rG:_GC_add_ext_descriptor
GHg:_m2082043967_0
dUd:__ZN5physx21PxQueryFilterCallbackD2Ev
f$:__ZN17GlobalGameManager13RegisterClassEv
q2d:__ZN5physx3Pvd17PvdPropertyFilterINS_2Sn17RepXVisitorWriterINS_21PxVehicleDriveDynDataEEEE14handleAccessorILj649ENS_22PxRepXPropertyAccessorILj649ES4_jjEEEEvjRKT0_
Hja:__Z10SetupLexerPKcj
A$d:__ZNK5physx30PxVehicleTireDataGeneratedInfo23visitInstancePropertiesINS_18RepXPropertyFilterINS_2Sn17RepXVisitorWriterINS_17PxVehicleTireDataEEEEEEEjT_j
A3e:_m936939552_0
SYa:__ZN17ArchiveFileSystem11CreateAsDirER13FileEntryData
CSd:__ZL30GeomOverlapCallback_CapsuleBoxRKN5physx10PxGeometryERKNS_11PxTransformES2_S5_PNS_2Gu12TriggerCacheE
I4h:dynCall_iiiiiiiiiiii
Kkh:__Z44t_393251692_0_CustomAttributesCacheGeneratorP21CustomAttributesCache
sJb:__ZN22VertexDeclarationCacheD0Ev
K8b:__ZN6prcoreL17RemapGenericFloatI16TexFormatRGFloat17TexFormatRGBAHalfEEvPKNS_9InnerInfoE
eMb:__ZNK21AssetBundleFileSystem8PositionERK13FileEntryData
tv:__ZN12AudioManager22CreateFMODSoundFromWWWEP10IWWWStream15FMOD_SOUND_TYPE17FMOD_SOUND_FORMATjjbbP10SampleClip
Cch:__Z43t_63125576_0_CustomAttributesCacheGeneratorP21CustomAttributesCache
Z6f:_m1880433924_0
rgf:_m1762309278_0
If:_uselocale
OLb:__ZN17FileSystemHandler10AtomicMoveER13FileEntryDataS1_
kzb:__ZNSt3__16vectorIP14ScriptingClassNS_9allocatorIS2_EEE8__appendEjRKS2_
MLe:_m_1810940196_0
qia:__ZN9ShaderLab4PassD2Ev
Yoc:__Z31NpGetPxActorForArticulationLinkRN5physx2Sc8BodyCoreE
D_e:_m_1346995020_0
pfh:__Z43t867555337_0_CustomAttributesCacheGeneratorP21CustomAttributesCache
Svg:_m101650019_0
FEf:_m_1565847478_0
LRb:__ZN12NativeBufferI27Converter_SimpleNativeClassI10RectOffsetEE19ProcessAfterReadingER9ArrayInfoP14ScriptingClass
Gjc:__ZN24PhysicsUpdateBehaviour2D16StaticInitializeEPv
Hlc:__ZN5physx3Cct10Controller6setPosERKNS_14PxExtendedVec3E
LBa:__ZN7Texture15InitializeClassEv
RHd:__ZN5physx2GuL14testFaceNormalERKNS0_13PolygonalDataES3_PNS0_12SupportLocalES5_RKNS_6shdfnd3aos15PsMatTransformVESA_RKNS7_6FloatVERSB_RjRNS7_5Vec3VENS0_13FeatureStatusERSI_
QXg:_m_883069122_0_gshared
nVe:_m1327105940_0
fg:_poll
Jch:__Z43t_21882926_0_CustomAttributesCacheGeneratorP21CustomAttributesCache
V2g:__Z57t_738719148_0_CustomAttributesCacheGenerator_m537116052_0P21CustomAttributesCache
WZg:_m975555216_0_gshared
Bkg:_m1810159973_0
ZMg:_m854833447_0
KIe:_m_419160947_0
prh:__Z58t1085125273_0_CustomAttributesCacheGenerator_m_491619341_0P21CustomAttributesCache
UGh:__Z42RuntimeInvoker_t1628762099_0_t1942381821_0PK10MethodInfoPvPS2_
FIe:_m1663059922_0
uac:__ZN14qsort_internal8_QSortMTIP15RODataDepthPassi17ROSorterDepthPassE12ThreadedSortEPNS4_9JobHeaderE
e3e:_m_2077424526_0
tN:__ZN6il2cpp8metadata15GenericMetadata15GetGenericClassEiPK17Il2CppGenericInst
W_g:_m_319881427_0_gshared
RWg:_m_1486073886_0_gshared
Yda:__Z24GetFixedBehaviourManagerv
hW:__ZN6il2cpp2vm10ThreadPool4WaitEP17Il2CppAsyncResultPPv
Dxc:__Z21NpGetNxParticleSystemRN5physx2Sc18ParticleSystemCoreE
zg:_vfprintf
e4d:__ZN5physx2Sn21RepXVisitorReaderBaseINS_21PxVehicleDriveSimDataEE15complexPropertyINS_22PxRepXPropertyAccessorILj658ES2_RKNS_19PxVehicleClutchDataES6_EEKNS_32PxVehicleClutchDataGeneratedInfoEEEvPjRKT_RT0_
IJe:_m_134349785_0
NE:__ZNSt3__119basic_ostringstreamIcNS_11char_traitsIcEENS_9allocatorIcEEED0Ev
oxb:__ZL14OnWorldStartedv
_Qa:__ZN14SafeBinaryRead17RegisterConverterEPKcS1_PFbPvRS_E
U2a:__ZN35RegisterRuntimeInitializeAndCleanup8RegisterEPFvPvES2_iS0_
eMd:__ZNK5physx19NpRigidBodyTemplateINS_14PxRigidDynamicEE17getRigidBodyFlagsEv
lUf:_m_1855063582_0
y3h:__ZNSt3__16vectorIPNS_6locale5facetENS_15__sso_allocatorIS3_Lj28EEEE26__swap_out_circular_bufferERNS_14__split_bufferIS3_RS5_EE
HLe:_m1906128776_0
FWg:_m_1273247661_0_gshared
H1c:__ZN5physx25PxcSweepConvexHeightfieldERKNS_11PxsCCDShapeES2_PKNS_12PxsRigidBodyES5_RKNS_11PxTransformES8_S8_S8_fRNS_6PxVec3ESA_RNS_10PxcNpCacheERNS_18PxcNpThreadContextEf
jQc:__ZN5physx5cloth7SwCloth4pushERNS0_13SwConstraintsE
Inh:__Z44t1910164791_0_CustomAttributesCacheGeneratorP21CustomAttributesCache
vmf:_m945950930_0
JCf:_m66421301_0
gYf:_m_917462124_0
ia:invoke_diddi
TZe:_m_1434520828_0
Och:__Z67t866571625_0_CustomAttributesCacheGenerator_U3CU3Ef__switchU24map24P21CustomAttributesCache
gU:__ZN6il2cpp2vm13MetadataCache30GetPropertyDefinitionFromIndexEi
nsc:__ZN5physx14NpRigidDynamic7releaseEv
ICh:__Z98RuntimeInvoker_t_887538054_0_t1628762041_0_t_887538054_0_t_604974727_0_t_604974727_0_t1636693376_0PK10MethodInfoPvPS2_
K4g:__Z58t_224673028_0_CustomAttributesCacheGenerator_m1091702854_0P21CustomAttributesCache
zzd:__ZN5physx6shdfnd8PoolBaseINS_21PxsBodyTransformVault13PxsBody2WorldENS0_19ReflectionAllocatorIS3_EEE15disposeElementsEv
VZ:__ZN6Object13RegisterClassEv
NUe:_m_259722808_0
ySf:_m_846001410_0
Bjc:__ZN13SliderJoint2D13StaticCleanupEPv
hza:__ZN2UI13RectTransform16UpdateCachedRectEv
vTb:__ZNSt3__16vectorIj13stl_allocatorIjL18MemLabelIdentifier1ELi16EEE6assignINS_11__wrap_iterIPjEEEENS_9enable_ifIXaasr21__is_forward_iteratorIT_EE5valuesr16is_constructibleIjNS_15iterator_traitsISA_E9referenceEEE5valueEvE4typeESA_SA_
Zth:__Z42RuntimeInvoker_t_224166001_0_t_766435453_0PK10MethodInfoPvPS2_
oh:_catgets
q0b:__Z16Transfer_BuiltinIf19StreamedBinaryWriteILb0EELb1EEvRK29SerializationCommandArgumentsR31RuntimeSerializationCommandInfo
Gxb:__ZN30RuntimeInitializeOnLoadManager8TransferI18StreamedBinaryReadILb0EEEEvRT_
lIh:__Z56RuntimeInvoker_t_224166001_0_t1628762099_0_t_818288618_0PK10MethodInfoPvPS2_
EZa:__ZN21ArchiveStorageCreator14StoreDirectoryEv
bzb:__ZL34GetComponentsImplementationRecurseILb1ELi0ELi2EEbR10GameObjectbRK17CompareParametersRK39GetComponentsImplementation_ReturnValue
w1b:__ZN12NativeBufferI19Converter_PrimitiveItEE15SetupForWritingER9ArrayInfo
K9g:__Z59t_1794569106_0_CustomAttributesCacheGenerator_m_635818270_0P21CustomAttributesCache
lhb:__GLOBAL__sub_I_MeshVertexFormat_cpp
Gpf:_m_450791304_0
P3:__ZNK6Camera18WorldToScreenPointERK8Vector3fPb
ojc:__ZN15RelativeJoint2D16StaticInitializeEPv
B9d:__ZN5physx2Cm12DelegateTaskINS_10PxsContextEXadL_ZNS2_28mergeCMDiscreteUpdateResultsEPNS_10PxBaseTaskEEEE11runInternalEv
VJg:_m_1688642762_0
Had:__ZN5physx19TriangleMeshBuilder10importMeshERKNS_18PxTriangleMeshDescERKNS_15PxCookingParamsEb
aRf:_m_1102013658_0
eTh:_strrchr
ohe:__ZN5physx6shdfnd5ArrayINS_18PxClothFabricPhaseENS0_19ReflectionAllocatorIS2_EEE8recreateEj
M4b:__ZN26EnlightenSystemInformation8TransferI14SafeBinaryReadEEvRT_
k5b:__ZN15dense_hashtableINSt3__14pairIK9TextureIDiEES2_N12TextureIdMap20TextureIDHashFunctorEN14dense_hash_mapIS2_iS6_NS0_8equal_toIS2_EE13stl_allocatorIS4_L18MemLabelIdentifier64ELi16EEE9SelectKeyES9_SC_E12expand_arrayEjN21dense_hash_map_traits17integral_constantIbLb0EEE
Xgb:__GLOBAL__sub_I_RenderSettings_cpp
I4c:__ZN5physx2Sq17SceneQueryManager11shiftOriginERKNS_6PxVec3E
KHb:__ZN12MeshRendererD0Ev
lsf:_m1256468773_0
Ted:__ZN5physx10writeChunkEaaaaRNS_14PxOutputStreamE
qEf:_m100616957_0
WIf:_m1366434854_0
Kzf:_m1477510398_0
qo:FUNCTION_TABLE_viiiiii
V5e:_m_879437092_0
hGc:__ZN5physx2Sc9RigidCore13onShapeChangeERNS0_9ShapeCoreENS_7PxFlagsINS0_21ShapeChangeNotifyFlag4EnumEjEENS4_INS_11PxShapeFlag4EnumEhEE
Wee:__ZN5physx6shdfnd5ArrayIPvNS0_15InlineAllocatorILj256ENS0_19ReflectionAllocatorINS_2Sc19ParticlePacketShapeEEEEEE15growAndPushBackERKS2_
XQb:__ZN27Converter_SimpleNativeClassI17AnimationCurveTplIfEE17NativeToScriptingERKS1_RP15ScriptingObject
p$c:__ZN5physx17solveContactBlockEPKNS_23PxcSolverConstraintDescEjRNS_16PxcSolverContextE
ecd:__ZN5physx6shdfnd10FoundationD2Ev
Ica:__ZN15LightmapSTCacheC2ER13BatchRendererR15RenderLoopStats
$Af:_m992199183_0
mja:__ZN9ShaderLab11shaderprops9GetVectorEPK19ShaderPropertySheetS3_NS_16FastPropertyNameERNS0_16PropertyLocationE
efh:__Z44t_876828323_0_CustomAttributesCacheGeneratorP21CustomAttributesCache
v$:__ZN17GlobalGameManager23VirtualRedirectTransferER19StreamedBinaryWriteILb0EE
vof:_m961894880_0
pFc:__ZN5physx2Sc10NPhaseCoreD2Ev
$Dc:__ZN5physx2Sc7BodySim18onConstraintDetachEv
Tpe:_m_1711728259_0_gshared
aRh:__ZN16VirtFuncInvoker2IP13t_224215755_0P13t_756155572_0S3_E6InvokeEjPvS3_S3_
w8h:_glGetShaderInfoLog__wrapper
DIf:_m_1196529186_0
Ti:_emscripten_glGetTexParameteriv
Juc:__ZN5physx7NpScene8simulateEfPNS_10PxBaseTaskEPvjb
hFc:__ZThn8_N5physx2Sc24ElementInteractionMarker10onActivateEj
j2h:__ZNKSt3__17num_getIcNS_19istreambuf_iteratorIcNS_11char_traitsIcEEEEE17__do_get_unsignedIjEES4_S4_S4_RNS_8ios_baseERjRT_
W0d:__ZN5physx18RepXPropertyFilterINS_2Sn17RepXVisitorReaderINS_17PxVehicleTireDataEEEEclILj597ES3_ffEEvRKNS_14PxPropertyInfoIXT_ET0_T1_T2_EEj
Dbh:__Z59t_2028532359_0_CustomAttributesCacheGenerator_m_181382644_0P21CustomAttributesCache
Yse:_m778152131_0_gshared
Ima:__ZN8PlayableD0Ev
bAe:_m_900709618_0_gshared
kD:__ZN12AudioManager8TransferI19StreamedBinaryWriteILb0EEEEvRT_
UDh:__Z27RuntimeInvoker_t729335180_0PK10MethodInfoPvPS2_
ong:_m1595031114_0
B3b:__ZNK32RendererMaterialAnimationBinding12GetPPtrValueERKN11UnityEngine9Animation10BoundCurveE
bve:_m_1337057554_0_gshared
s4d:__ZN5physx3Pvd17PvdPropertyFilterINS_2Sn17RepXVisitorWriterINS_30PxVehicleAckermannGeometryDataEEEE14handleAccessorILj550ENS_22PxRepXPropertyAccessorILj550ES4_ffEEEEvRKT0_
hpc:__ZN5physx18NpArticulationLink10clearForceENS_11PxForceMode4EnumE
Sgd:__ZN5physx2Gu30distanceSegmentTriangleSquaredERKNS_6PxVec3ES3_S3_S3_S3_PfS4_S4_
L5g:__Z59t1621492670_0_CustomAttributesCacheGenerator_m_1890029619_0P21CustomAttributesCache
zXa:__ZN22LocalFileSystemHandler9MakeLocalER13FileEntryDatab
d$g:_m784125091_0_gshared
Ung:_m929676406_0
jV:__ZN6il2cpp2vm8basepathEPKc
mPd:__ZNK5physx15NpActorTemplateINS_7PxClothEE12getAggregateEv
qz:__ZN4FMOD8ChannelI15setChannelGroupEPNS_12ChannelGroupE
fPe:_m273269703_0
$na:__ZN14CompressedMesh10GetQualityE15MeshCompression
nbc:__ZN25DeferredRenderLoopScratchD0Ev
vLf:_m_827656591_0
hof:_m_1235907889_0
R9d:__ZNK5physx2Cm12DelegateTaskINS_13PxsCCDContextEXadL_ZNS2_14postCCDAdvanceEPNS_10PxBaseTaskEEEE7getNameEv
Icf:_m_308655797_0
ZKb:__ZN15ResourceManagerD0Ev
Lef:_t27601876_0_marshal_back
nOb:__ZNK15dense_hashtableINSt3__14pairIKNS0_12basic_stringIcNS0_11char_traitsIcEE13stl_allocatorIcL18MemLabelIdentifier53ELi16EEEEP20ArchiveStorageReaderEES8_11djb2_hash_tIS8_EN14dense_hash_mapIS8_SB_SE_NS0_8equal_toIS8_EES5_ISC_LS6_53ELi16EEE9SelectKeyESH_SI_E10test_emptyEj
HZb:__Z22Transfer_Builtin_AlignIa18StreamedBinaryReadILb0EELb0EEvRK29SerializationCommandArgumentsR31RuntimeSerializationCommandInfo
_ta:__ZN22CreateGpuProgramOutputD2Ev
arf:_m_833298280_0
Tlc:__ZNK5physx3Cct15ObstacleContext14getNbObstaclesEv
zea:__ZNK18DelayedCallManager25GetClassIDVirtualInternalEv
bnb:__ZNSt3__16__sortIR23CompareReflectionProbesP31RuntimeReflectionProbeBlendInfoEEvT0_S5_T_
tL:__ZN6il2cpp6icalls8mscorlib6System2IO6MonoIO9SetLengthE12Il2CppIntPtrxPi
Exc:__ZN5physx16NpParticleSystem23setParticleReadDataFlagENS_22PxParticleReadDataFlag4EnumEb
w8f:_m_1129374115_0
Xuc:__ZN5physx7NpScene26removeFromParticleBaseListERNS_14PxParticleBaseE
PNc:__ZN5physx2Sc9ClothCore23setSelfCollisionIndicesEPKjj
g2:__ZN10TagManager13StaticCleanupEPv
Xsg:_m71989545_0
p3d:__ZN5physx3Pvd17PvdPropertyFilterINS_2Sn17RepXVisitorReaderINS_21PxVehicleDriveDynDataEEEE27handleExtendedIndexPropertyILj636ES4_fKjNS_18PxUnknownClassInfoEEEvjRKNS_29PxExtendedIndexedPropertyInfoIXT_ET0_T2_T1_EERKT3_
zha:__ZN14FileCacherReadD2Ev
Z6c:__ZN5physx22PxVehicleWheelsSimData26setTireForceAppPointOffsetEjRKNS_6PxVec3E
gng:_m_958861369_0
l4a:__Z50Register_UnityEngine_CullingGroup_FinalizerFailurev
Rvh:__Z55RuntimeInvoker_t_19515315_0_t_887538054_0_t1636693376_0PK10MethodInfoPvPS2_
Ksb:__ZL22PrepareValueParametersI21FullParameterPreparerEvRK13dynamic_arrayIN20GpuProgramParameters14ValueParameterELj4EERS1_IhLj4EERKT_
MSc:__ZN5physx5cloth8SwSolverC2EPNS_13PxProfileZoneEPNS_13PxTaskManagerE
Ilb:__ZNK4PPtrI5FlareEcvPS0_Ev
C2:__ZN6Camera15ThreadedCleanupEv
Vmg:_m_1549364580_0
boe:_m_693467142_0_gshared
xYe:_m_1272031769_0
OMe:_m_175878101_0
Uvf:_m_2060536989_0
pL:__ZN6il2cpp6icalls8mscorlib6System2IO6MonoIO9GetLengthE12Il2CppIntPtrPi
uWc:__ZN5physx10PxsCCDPair12updateShapesEv
uqb:__ZNSt3__16vectorIN9ShaderLab16ParserSubProgram14ConstantBufferENS_9allocatorIS3_EEE21__push_back_slow_pathIKS3_EEvRT_
CKe:_m_810621991_0
ju:__ZN9AudioClip23VirtualRedirectTransferER18StreamedBinaryReadILb0EE
Y5b:__ZN18StreamedBinaryReadILb1EE8TransferINSt3__16vectorIh13stl_allocatorIhL18MemLabelIdentifier13ELi16EEEEEEvRT_PKc17TransferMetaFlags
Xu:__ZN18AudioLowPassFilter13StaticCleanupEPv
kqg:_m30772481_0
Tub:__ZN4PPtrI10GameObjectE8TransferI13ProxyTransferEEvRT_
eOc:__ZN5physx2Sc9ClothCore22removeCollisionCapsuleEj
$Id:__ZNSt3__16vectorIN5physx10PxSweepHitENS_9allocatorIS2_EEE8__appendEj
AYc:__ZN5physx16PxsFluidDynamics15schedulePacketsENS_16PxsSphUpdateTypeERNS_10PxBaseTaskE
Nlb:__ZNK4PPtrI23ShaderVariantCollectionEcvPS0_Ev
RYc:__ZN5physx16PxsIslandManager25setArticulationLinkHandleEjPvRKNS_20PxsIslandManagerHookIjLj4294967295EEE
wk:_glCopyTexSubImage2D
E3b:__ZNK24RendererAnimationBinding13GetFloatValueERKN11UnityEngine9Animation10BoundCurveE
KFc:__ZN5physx2Sc10NPhaseCore39pool_deleteParticleElementRbElementPairEPNS0_35ParticleElementRbElementInteractionEjj
adi:_glActiveTexture__wrapper
Wpf:_m148894233_0
TX:_UNITY_png_write_zTXt
Q8f:_m1428086970_0
l8a:__ZN18ScreenManagerWebGL13SetShowCursorEb
JUh:_frexp
qKf:_m325537617_0
$he:__ZN5physx6shdfnd5ArrayIPNS_3Scb5ShapeENS0_15InlineAllocatorILj16ENS0_19ReflectionAllocatorIS4_EEEEE15growAndPushBackERKS4_
rta:__ZN9GfxDevice18InsertCustomMarkerEi
HWc:__ZN5physx37UpdateAtomProgressesWithArticulationsEPNS_23PxcSolverConstraintDescEjjjPjj
GNf:_m2141754631_0
Eai:_emscripten_glGenVertexArrays__wrapper
hkb:__ZN11GameManager7PRODUCEE18MemLabelIdentifier18ObjectCreationMode
_ob:__ZN6prcoreL21CreateRemapAnyBlitterE13TextureFormatS0_
SN:__ZN6il2cpp2os5Event4WaitEjb
oIa:__ZN17AnimationCurveTplIfE16StripInvalidKeysEv
VYh:__ZNSt3__19__num_getIcE19__stage2_float_loopEcRbRcPcRS4_ccRKNS_12basic_stringIcNS_11char_traitsIcEENS_9allocatorIcEEEEPjRSE_RjS4_
kxb:__ZN15dense_hashtableINSt3__14pairIKiiEEi21InstanceIDHashFunctorN14dense_hash_mapIiiS4_NS0_8equal_toIiEE13stl_allocatorIS3_L18MemLabelIdentifier1ELi16EEE9SelectKeyES7_SA_E12maybe_shrinkEv
WH:_il2cpp_method_has_attribute
MJf:_m_1366586614_0
n3g:__Z58t1412919357_0_CustomAttributesCacheGenerator_m_861480261_0P21CustomAttributesCache
Lmg:_m2067765899_0
Jhh:__Z57t1443710675_0_CustomAttributesCacheGenerator_m769720520_0P21CustomAttributesCache
aGa:__Z26RegisterClass_InputManagerv
lPb:__ZN14SafeBinaryRead19TransferSTLStyleMapINSt3__13mapIN9ShaderLab16FastPropertyNameEfNS1_4lessIS4_EENS1_9allocatorINS1_4pairIKS4_fEEEEEEEEvRT_17TransferMetaFlags
sPb:__ZN4PPtrI7TextureE8TransferI14SafeBinaryReadEEvRT_
XPc:__ZN5physx2Sc8ClothSim16addCollisionMeshEPKNS0_8ShapeSimE
y0c:__ZN5physx21solveExtFrictionBlockEPKNS_23PxcSolverConstraintDescEjRNS_16PxcSolverContextE
n$d:__ZN5physx6shdfnd5ArrayINS_12PxFilterDataENS0_15InlineAllocatorILj80ENS0_19ReflectionAllocatorIS2_EEEEE6resizeEjRKS2_
WCa:__Z23RegisterClass_Texture2Dv
owf:_m841540860_0
lo:FUNCTION_TABLE_iiiiiiiiiiiiii
Wzd:__ZN5physx6shdfnd5ArrayIPKNS_10PxsCCDBodyENS0_19ReflectionAllocatorIS4_EEE8recreateEj
FNb:__ZN14DrawBufferGLESI12VertexBuffer27VertexBufferUsageMapperGLESED2Ev
OTf:_m147184759_0
GPg:_m1612293317_0
gde:__ZThn4_N5physx5cloth9ClothImplINS0_7SwClothEE16setRestPositionsENS0_5RangeIKNS_6PxVec4EEE
cae:__ZN5physx6shdfnd5ArrayINS_5cloth13MovingAverage7ElementENS0_9AllocatorEE8recreateEj
myg:_m1463138813_0
VAe:_m855442727_0_gshared
y8:__ZN16ReflectionProbes8ScheduleEN18ReflectionProbeJob7JobTypeEP15ReflectionProbei
T0f:_m_1795247437_0
Q4d:__ZN5physx2Sn21RepXVisitorReaderBaseINS_23PxVehicleDriveSimData4WEE8pushNameEPKc
zyg:_m1448672242_0
s1:__ZN16MessageForwarder13HandleMessageEPviR11MessageData
ubc:__ZN14qsort_internal31_FindAndMovePivotToLastPositionIP16RenderObjectDatai26RenderDeferredObjectSorterEEvT_S4_T0_T1_
aMd:__ZN5physx19NpRigidBodyTemplateINS_14PxRigidDynamicEE20setRigidDynamicFlagsENS_7PxFlagsINS_15PxRigidBodyFlag4EnumEhEE
CVh:__ZNSt3__18ios_base4InitC2Ev
alg:_m_801805722_0
G6:__ZN5Light23VirtualRedirectTransferER18StreamedBinaryReadILb1EE
iEe:_m_1656382957_0_gshared
Vv:__ZN12AudioManager23VirtualRedirectTransferER13ProxyTransfer
Tra:__ZN13DrawImmediate11BeginBufferEv
ayg:_m_2136832967_0
POd:__ZN5physx22NpParticleBaseTemplateINS_16PxParticleSystemENS_16NpParticleSystemEE20setMaxMotionDistanceEf
pHa:__Z25GetCachedActiveColorSpacev
oah:__Z88t_1653164979_0_CustomAttributesCacheGenerator_t_1653164979_0____Constructor_PropertyInfoP21CustomAttributesCache
Drb:__ZN4PPtrI4MeshE8TransferI13ProxyTransferEEvRT_
Urb:__Z18SkinGenericMathLibILi2ELb1ELb0EEvR12SkinMeshInfo
jWc:__ZN5physx18ComputeSortedListsEPNS_2Cm10BitMapBaseINS_6shdfnd9AllocatorEEEjjPKjPPNS_8SapBox1DES7_PjSB_jRKNS_2Gu4AxesESB_RjSB_SG_RbSH_
g6:__ZNK21IntermediateRenderers16GetBoundingBoxesEv
jR:__ZN6il2cpp2vm5Class12GetNamespaceEP8TypeInfo
BId:__ZL28VehicleWheelRaycastPreFilterN5physx12PxFilterDataES0_PKvjRNS_7PxFlagsINS_9PxHitFlag4EnumEtEE
Aze:_m1426158035_0_gshared
ODd:__Z48setPxVehicleTireLoadFilterDataMMaxNormalisedLoadPN5physx27PxVehicleTireLoadFilterDataEf
Hdh:__Z43t_78223278_0_CustomAttributesCacheGeneratorP21CustomAttributesCache
THb:__ZN9GfxDevice20SetMaxBufferedFramesEi
_Zh:__ZNKSt3__18time_getIwNS_19istreambuf_iteratorIwNS_11char_traitsIwEEEEE13do_date_orderEv
dq:__ZN11OffMeshLink13StaticCleanupEPv
BZh:__ZNKSt3__18time_getIcNS_19istreambuf_iteratorIcNS_11char_traitsIcEEEEE13do_date_orderEv
R6f:_m65110050_0
Uw:__ZN24AudioScriptBufferManagerD2Ev
X4h:dynCall_vdd
D8g:__Z57t_920211631_0_CustomAttributesCacheGenerator_m963271833_0P21CustomAttributesCache
A2d:__ZN5physx2Sn21RepXVisitorReaderBaseINS_16PxVehicleDriveNWEE8pushNameEPKc
sI:__ZN6il2cpp2vm2GC7CollectEi
r6c:__ZN5physx15computeTankDiffEffjPKbPfS2_S2_
coc:__ZNK5physx14NpArticulation17releaseDriveCacheERNS_24PxArticulationDriveCacheE
W$h:__ZNKSt3__18messagesIcE7do_openERKNS_12basic_stringIcNS_11char_traitsIcEENS_9allocatorIcEEEERKNS_6localeE
Iha:__ZN22MemoryCacherReadBlocksD2Ev
GAd:__ZN5physx18collideWithCapsuleERNS_19PxsParticleCollDataERKNS_17PxCapsuleGeometryEf
H7b:__ZN6prcoreL29inner_stretch_rgb565_bilinearEPKNS_9InnerInfoE
UXh:__ZThn8_NSt3__114basic_iostreamIcNS_11char_traitsIcEEED1Ev
HOc:__ZNK5physx2Sc9ClothCore25getSelfCollisionStiffnessEv
O6:__Z20AddActiveLocalLightsRK27LocalLightCullingParametersRK14ShadowCullDataPK8Vector4fPPK5LightRK9IndexListPfRSC_R12ActiveLightsP15LightScreenInfo
QPf:_m587146872_0
rm:_glUniformBlockBinding
V9:__ZNK14RenderSettings19GetFlatAmbientColorEv
cpb:__ZN6prcoreL10inner_flipILj4EEEvPhS1_j
_sb:__ZN18StreamedBinaryReadILb0EE19TransferSTLStyleMapINSt3__13setI4PPtrI10MonoScriptENS2_4lessIS6_EE13stl_allocatorIS6_L18MemLabelIdentifier75ELi16EEEEEEvRT_17TransferMetaFlags
sl:_glGenTransformFeedbacks
EXh:__ZTv0_n12_NSt3__113basic_istreamIwNS_11char_traitsIwEEED0Ev
ere:_m817393776_0_gshared
K2a:__Z23AppendPathNameExtensionRKNSt3__112basic_stringIcNS_11char_traitsIcEENS_9allocatorIcEEEES7_
wDa:__ZN14Texture2DArray17UploadToGfxDeviceEv
$u:__Z14FMODMemoryFreePvjPKc
rlf:_m816650207_0
u8d:__ZN5physx2Cm12DelegateTaskINS_17PxsFluidCollisionEXadL_ZNS2_12mergeResultsEPNS_10PxBaseTaskEEEED0Ev
qza:__ZN8Renderer13StaticCleanupEPv
BKe:_m641766759_0
Utd:__ZN5physx3Scb4Body9syncStateEv
sQd:__ZN5physx20SingleAABBUpdateTaskD0Ev
D_c:__ZN5physx12PxsRigidBody23updatePoseDependenciesVERNS_10PxsContextE
q3e:_m924395419_0
cjd:__ZN5physx2Gu12TriangleMesh4loadERNS_13PxInputStreamE
zG:_GC_is_heap_ptr
Lmf:_m_1278447295_0
Yqh:__Z78t_1701071911_0_CustomAttributesCacheGenerator_m_ObjectArgumentAssemblyTypeNameP21CustomAttributesCache
$Ja:__Z21PlayerStartFirstSceneb
H0f:_m_1211640022_0
m6d:__ZN5physx18RepXSerializerImplINS_16PxVehicleDriveNWEE11getTypeNameEv
K_d:__ZN5physx21PxConstraintConnectorD2Ev
gn:_emscripten_glIsTexture
$4f:_m742870391_0
Rl:_emscripten_glHint
Rzf:_m_1048363764_0
c_:__ZN6Object15ClassIDToStringEi
kog:_m1674825235_0
f4e:_m_1094615587_0
Yba:__Z14DrawGUITextureRK5RectTIfEP7Texture11ColorRGBA32P8Material
V4e:_m1260760027_0
xRf:_m737865954_0
zm:_SDL_UpperBlit
gfe:__ZN5physx2Cm12DelegateTaskINS_2Sc5SceneEXadL_ZNS3_13ccdBroadPhaseEPNS_10PxBaseTaskEEEED0Ev
AYf:_m_285111409_0
owc:__ZNK5physx7NpShape16getContactOffsetEv
RDd:__Z28getPxVehicleWheelDataMRadiusPKN5physx18PxVehicleWheelDataE
ZTc:__ZN5physx14PxsAABBManager21processAggregatePairsEPKNS_19AggregateSortedDataE
mzh:__Z84RuntimeInvoker_t_224166001_0_t_887538054_0_t_887538054_0_t1636693376_0_t_887538054_0PK10MethodInfoPvPS2_
dRa:__ZN14SafeBinaryRead20OverrideRootTypeNameEPKc
Eha:__ZN14FileCacherRead16UnlockCacheBlockEj
Afh:__Z44t1137216428_0_CustomAttributesCacheGeneratorP21CustomAttributesCache
Cpc:__ZNK5physx12NpBatchQuery23getFilterShaderDataSizeEv
Lrb:__Z19ApplyBlendShapeTmplILb1ELb0EEvPK16BlendShapeVertexjjfiiiPh
F4e:_m1823829274_0
Wch:__Z44t_289657918_0_CustomAttributesCacheGeneratorP21CustomAttributesCache
Nvg:_m1830328057_0
ke:_emscripten_glUniform1f
BFg:_m769720520_0
_Zd:__ZN5physx7profile11EventBufferINS_24PxDefaultContextProviderENS_6shdfnd6MutexTINS0_26WrapperReflectionAllocatorIhEEEENS0_14ScopedLockImplIS7_EENS_24PxProfileNullEventFilterEE10doAddEventINS0_17RelativeStopEventEEEvhtRKT_
QJh:__Z28RuntimeInvoker_t1703360233_0PK10MethodInfoPvPS2_
SNh:__ZN18VirtActionInvoker2IP11t18014439_0PP14t_1891169743_0E6InvokeEjPvS1_S4_
Mc:_emscripten_glUniform1i
IJc:__ZN5physx2Sc19ShapeInstancePairLL23postIslandGenSecondPassEv
hlc:__ZN5physx3Cct26CharacterControllerManager16createControllerERKNS_16PxControllerDescE
sje:__ZN5physx26PxPhysicsInsertionCallbackD2Ev
X3c:__ZN5physx2Sq16BucketPrunerCore12updateObjectERKNS_9PxBounds3ERKNS0_13PrunerPayloadE
KO:__ZN6il2cpp2os12Cryptography23GetCryptographyProviderEv
y5f:_m_1764518421_0
ZJe:_m_691249872_0
Yc:_emscripten_glAttachShader
o$e:_m2088706324_0
Hed:__ZN5physx2Gu19GetRaycastFuncTableEv
S_d:__ZN5physx2Sn21RepXVisitorWriterBaseINS_16PxVehicleNoDriveEE23extendedIndexedPropertyINS_3Pvd36PxPvdExtendedIndexedPropertyAccessorILj687ES2_KjfEEKNS_18PxUnknownClassInfoEEEvPjRKT_RT0_
eEg:_m_439460648_0
Koa:__ZNK4Mesh25GetClassIDVirtualInternalEv
T7a:__ZNK13EmscriptenWWW6GetUrlEv
mZc:__ZN5physx17EdgeChangeManager23cleanupBrokenEdgeEventsEPKNS_4EdgeE
SWc:__ZN5physx17PxsContactManager16resetCachedStateEv
lXg:_m1244904454_0_gshared
JJe:_m362104835_0
I8a:_tlsf_walk_heap
Xrg:_m_2019282774_0
ib:invoke_vif
zqa:__ZN14VertexDataInfo13UpdateStreamsEjjjRK19VertexStreamsLayoutRK20VertexChannelsLayout
jb:invoke_vid
kb:invoke_vii
Wwc:__ZN5physx13NpVolumeCacheD2Ev
Nla:__ZN12TLSAllocatorI14StackAllocatorE16ThreadInitializeEP13BaseAllocator
n_g:_m_429591570_0_gshared
BEf:_m_1623304769_0
xGe:_m_782882794_0_gshared
OKc:__ZThn8_N5physx2Sc35ParticleElementRbElementInteraction12onDeactivateEj
Y8f:_m_1069910426_0
Qdg:_m1343018521_0
E0c:__ZN5physx16PxsThreadContextC2EPNS_10PxsContextE
W$a:__ZN25SingleBlockMemoryFileDataD0Ev
hib:__ZN6il2cpp8metadataL30CollectImplicitArrayInterfacesEP8TypeInfoRNSt3__16vectorIS2_NS3_9allocatorIS2_EEEE
Skc:__ZN5physx3Cct10Controller4moveERNS0_11SweptVolumeERKNS_6PxVec3EffRKNS_19PxControllerFiltersEPKNS_17PxObstacleContextEb
odf:_m_324747327_0
IJf:_m_604726362_0
usc:__ZN5physx14NpRigidDynamic17setAngularDampingEf
eN:__ZN6il2cpp6icalls8mscorlib6System9Threading6Thread27GetSerializedCurrentCultureEP12Il2CppThread
bce:__ZThn4_NK5physx5cloth9ClothImplINS0_7SwClothEE10getGravityEv
NLg:_m_1284141495_0
IFa:__Z31CalculateHierarchyTransformType23TransformAccessReadOnly
Ljg:_m755243983_0
wz:__ZN4FMOD8ChannelI11setPositionEjj
YJa:__Z24GetPlayerRunInBackgroundv
ACd:__ZN5physx2Sn18writeAllPropertiesINS_18PxVehicleDriveTankEEEvPKT_RNS_9XmlWriterERNS_12MemoryBufferERNS_12PxCollectionE
Svf:_m_25648595_0
vpd:__ZN12PhysXRaycast12CleanupClassEv
lud:__ZN5physx6shdfnd8PoolBaseINS_2Sc12SimStateDataENS0_19ReflectionAllocatorIS3_EEE17releaseEmptySlabsEv
xZ:__ZN17BaseObjectManager13StaticDestroyEPv
vv:__ZN12AudioManager14UpdateListenerERK8Vector3fS2_S2_S2_
mrg:_m_1400022983_0
ZB:__ZN4FMOD6Reverb13setPropertiesEPK22FMOD_REVERB_PROPERTIES
Rsb:__ZNSt3__16__treeINS_12__value_typeI18VertexChannelsInfoP17VertexDeclarationEENS_19__map_value_compareIS2_S5_NS_4lessIS2_EELb1EEE13stl_allocatorIS5_L18MemLabelIdentifier13ELi16EEE12__find_equalIS5_EERPNS_16__tree_node_baseIPvEENS_21__tree_const_iteratorIS5_PNS_11__tree_nodeIS5_SG_EEiEESJ_RKT_
wNd:__ZNK5physx22NpParticleBaseTemplateINS_15PxParticleFluidENS_15NpParticleFluidEE14getRestitutionEv
wVc:__ZN5physx16PxsBroadPhaseMBP6updateEjjRKNS_23PxcBroadPhaseUpdateDataEPNS_10PxBaseTaskE
trc:__ZN5physx9NpPhysics18createRigidDynamicERKNS_11PxTransformE
Dab:__ZN7ApiGLES15BindVertexArrayEj
_ge:__ZN5physx6shdfnd5ArrayIPvNS0_19ReflectionAllocatorINS_2Sc18TriggerInteractionEEEE15growAndPushBackERKS2_
vuf:_m1313518859_0
dPg:_m237625228_0
AJa:__Z18ExtractTagThrowingR11ICallString
ppb:__ZN4PPtrI6ShaderE8TransferI19StreamedBinaryWriteILb0EEEEvRT_
Vhd:__ZN5physx2Gu17intersectRayAABB2ERKNS_6shdfnd3aos5Vec3VES5_S5_S5_RKNS2_6FloatVERS6_S9_
cEb:__ZN4core20StringStorageDefaultIcE6assignEPKcj
sCf:_m_719075222_0
Xvc:__ZNK5physx7NpShape17getSphereGeometryERNS_16PxSphereGeometryE
$Rg:_m266329463_0
tHd:__ZL18intersectAnyVsMeshILi1EEbPKN5physx2Gu6SphereEPKNS1_7CapsuleEPKNS1_3BoxERKNS1_13RTreeMidphaseERKNS0_11PxTransformERKNS0_11PxMeshScaleEP14LimitedResults
Lie:__ZN5physx15NpActorTemplateINS_13PxRigidStaticEE15exportExtraDataERNS_22PxSerializationContextE
Afe:__ZN5physx6shdfnd5ArrayIPvNS0_15InlineAllocatorILj256ENS0_19ReflectionAllocatorINS_2Cm5BlockIhLj128EEEEEEEE15growAndPushBackERKS2_
a4:__ZN6Camera6SetFarEf
dig:_m_918552066_0
Wff:_m_1030281498_0
q8b:__ZN6prcoreL12RemapGenericI17TexFormatABGR888817TexFormatARGB8888EEvPKNS_9InnerInfoE
R_:__ZN11GameManager17MainThreadCleanupEv
d2f:_m750470747_0
xVe:_m_835250137_0
$Dg:_m736270528_0
Fah:__Z58t553963095_0_CustomAttributesCacheGenerator_m_2049898246_0P21CustomAttributesCache
gzc:__ZNK5physx7NpCloth24getParticleAccelerationsEPNS_6PxVec4E
l_e:_m_420971499_0
mOd:__ZN5physx22NpParticleBaseTemplateINS_16PxParticleSystemENS_16NpParticleSystemEE20lockParticleReadDataEv
Qsa:__ZN9GfxDevice20DestroyRenderSurfaceER12ObjectHandleI17RenderSurface_TagP17RenderSurfaceBaseE
JZf:_m_17975264_0
XVh:__ZNSt3__111__stdoutbufIcE8overflowEi
hJb:__ZN9GfxDevice22UpdateComputeResourcesEjPK9TextureIDPK16TextureDimensionPKijPKjjPK15ComputeBufferIDS7_PK20ComputeBufferCounterjSC_S2_S5_S9_SF_
Ola:__ZN12TLSAllocatorI14StackAllocatorE13ThreadCleanupEv
Nv:__Z18GetAudioManagerPtrv
qJ:__ZN6il2cpp6icalls8mscorlib6System4Char20GetDataTablePointersEPPhS5_PPdPPtS9_S9_S9_
xoa:__ZN4Mesh27SwizzleVertexColorsIfNeededEb
yFa:__Z27FindActiveTransformWithPathPKc
VYc:__ZN5physx16PxsIslandManager14setEdgeRigidCMERKNS_20PxsIslandManagerHookIjLj4294967295EEEPNS_17PxsContactManagerE
t2:__ZN12BaseRendererD0Ev
yBb:__Z29StdTemplateConversionFunctionIbyEbPvR14SafeBinaryRead
PBa:__ZN7Texture5ResetEv
Tkf:_m_599837054_0
Nnc:__ZN5physx14NpArticulation25setStabilizationThresholdEf
qjd:__ZN5physx2Gu11HeightField7releaseEv
wab:__ZN7ApiGLES11UnmapBufferEjN2gl12BufferTargetE
sCa:__Z25GetNextAllowedTextureSizeib13TextureFormat
p1a:__ZN20LocalFileSystemWebGL4CopyER13FileEntryDataS1_
CRf:_m_1398105380_0
ZTb:__Z22Transfer_Builtin_AlignIh14SafeBinaryReadLb0EEvRK29SerializationCommandArgumentsR31RuntimeSerializationCommandInfo
dO:__ZN6il2cpp2os9Semaphore4WaitEb
Dvf:_m1320008003_0
Qhh:__Z44t1357698113_0_CustomAttributesCacheGeneratorP21CustomAttributesCache
WXg:_m_2094500299_0_gshared
ZPc:__ZN5physx2Sc8ClothSim23addCollisionHeightfieldEPKNS0_8ShapeSimE
VGa:__ZN11TimeManager23VirtualRedirectTransferER18StreamedBinaryReadILb1EE
Xva:__Z34scripting_liveness_calculation_endPv
mO:__ZN6il2cpp2os6ThreadC2Ev
e7f:_m559904859_0
EGg:_m707299055_0
hgh:__Z58t1074171742_0_CustomAttributesCacheGenerator_m_702484113_0P21CustomAttributesCache
pAh:__Z55RuntimeInvoker_t_224166001_0_t987554498_0_t1628762099_0PK10MethodInfoPvPS2_
sof:_m_1718014920_0
Gtf:_m_230404484_0
s0f:_m762391029_0
XV:__ZN6il2cpp2vm6Thread6DetachEP12Il2CppThread
pbf:_m2087049322_0
Kic:__ZN24EllipsoidParticleEmitter13StaticCleanupEPv
pt:__ZNK14AudioBehaviour25GetClassIDVirtualInternalEv
hLd:__ZNK5physx18NpArticulationLink13isSubordinateEv
Cvh:__Z57RuntimeInvoker_t_224166001_0_t_887538054_0_t_1047952454_0PK10MethodInfoPvPS2_
hVe:_m_1057864545_0
URe:_m_977944545_0
LTb:__ZNSt3__16vectorIa13stl_allocatorIaL18MemLabelIdentifier1ELi16EEE6assignINS_11__wrap_iterIPaEEEENS_9enable_ifIXaasr21__is_forward_iteratorIT_EE5valuesr16is_constructibleIaNS_15iterator_traitsISA_E9referenceEEE5valueEvE4typeESA_SA_
U6c:__ZNK5physx22PxVehicleWheelsSimData11getTireDataEj
ged:__ZN5physx13GuMeshFactory16createConvexMeshERNS_13PxInputStreamE
MZb:__Z16Transfer_BuiltinIx18StreamedBinaryReadILb0EELb0EEvRK29SerializationCommandArgumentsR31RuntimeSerializationCommandInfo
$Cf:_m723067872_0
UP:__ZN6il2cpp2os10ThreadImpl5SleepEjb
gWc:__ZN5physx14SapPairManager12shrinkMemoryEv
bwf:_m_250784309_0
EIg:_m_991321435_0
cXa:__ZN15FileSystemEntry4MoveERS_23FileSystemCopyMoveFlags
eai:_glBindSampler__wrapper
fEd:__Z30getPxVehicleWheelDataMToeAnglePKN5physx18PxVehicleWheelDataE
ig:_emscripten_set_mouseup_callback
_Jh:__ZL10SZArrayNewP8TypeInfoj
hRf:_m_2081083349_0
WIb:__ZN9GfxDevice27SetRandomWriteTargetTextureEi9TextureID
AQg:_m_617126685_0
K4d:__ZN5physx18RepXPropertyFilterINS_2Sn17RepXVisitorReaderINS_23PxVehicleDriveSimData4WEEEEclILj656ENS_21PxVehicleDriveSimDataERKNS_19PxVehicleEngineDataES8_EEvRKNS_14PxPropertyInfoIXT_ET0_T1_T2_EEj
Buc:__ZN5physx7NpScene22removeBroadPhaseRegionEj
BSd:__ZL34GeomOverlapCallback_CapsuleCapsuleRKN5physx10PxGeometryERKNS_11PxTransformES2_S5_PNS_2Gu12TriggerCacheE
lNa:__ZN13MonoBehaviour19RebuildMonoInstanceEP14ScriptingClassP15ScriptingObjectP10MonoScript
f8a:__ZNK18ScreenManagerWebGL8GetWidthEv
Duc:__ZNK5physx7NpScene23getFilterShaderDataSizeEv
bU:__ZN6il2cpp2vm13MetadataCache33GetFieldDefaultValueDataFromIndexEi
HD:__ZN10SampleClipD2Ev
Y0b:__ZN12NativeBufferI19Converter_PrimitiveI5RectTIfEEE15SetupForWritingER9ArrayInfo
TP:__ZN6il2cpp2os10ThreadImpl13SetWaitObjectEPNS0_5posix15PosixWaitObjectE
fcg:_m275527876_0
Mya:__ZN15QualitySettings13StaticCleanupEPv
cCa:__ZN7Texture23VirtualRedirectTransferER13ProxyTransfer
SRc:__ZThn4_N5physx5cloth8SwFabric18scaleTetherLengthsEf
dDe:_m_685555599_0_gshared
MGb:__ZN14FileCacherRead13GetFileLengthEv
Rfa:__ZN15LODGroupManager21CalculateLODDataArrayERK17CullingParametersPK6Cameraf
$7e:_m_1458221061_0
Ig:_readlink
uPg:_m349185144_0
vef:_m1367974951_0
tqa:__ZN14SpriteRenderer16StaticInitializeEPv
kPe:_m914076225_0
ETg:_m_490338876_0
rbg:_m760090638_0
jlf:_m1309172166_0
C6c:__ZN5physx15PxVehicleUpdate13updateNoDriveEfRKNS_6PxVec3EffRKNS_43PxVehicleDrivableSurfaceToTireFrictionPairsEPNS_16PxVehicleNoDriveEPNS_25PxVehicleWheelQueryResultEPNS_29PxVehicleConcurrentUpdateDataE
p7a:__ZN11ContextGLES6CreateEi
Nqd:__ZN5physx6shdfnd5ArrayINS_10PxTriangleENS0_19ReflectionAllocatorIS2_EEE15growAndPushBackERKS2_
k3d:__ZN5physx2Sn21RepXVisitorReaderBaseINS_19PxVehicleEngineDataEE8pushNameEPKc
toa:__Z27ConvertSubMeshesToTrianglesRNSt3__16vectorI7SubMesh13stl_allocatorIS1_L18MemLabelIdentifier15ELi16EEEER13dynamic_arrayItLj2EE
ifg:_m1120368958_0
APf:_m301215120_0
U_b:__Z19TransferField_ArrayI18StreamedBinaryReadILb0EE27Converter_SimpleNativeClassI17AnimationCurveTplIfEEEvRK23StaticTransferFieldInfoR31RuntimeSerializationCommandInfoRT0_
yDe:_m_1862755209_0_gshared
Qva:__Z29scripting_field_has_attributeP14ScriptingClassP14ScriptingFieldS0_
Vke:__ZL11SweepBoxBoxPKN5physx3Cct9SweepTestEPKNS0_11SweptVolumeEPKNS0_11TouchedGeomERKNS_14PxExtendedVec3ERKNS_6PxVec3ERNS0_12SweptContactE
Bz:__ZN4FMOD4DSPI13disconnectAllEbb
Slb:__ZN16GraphicsSettings8TransferI18StreamedBinaryReadILb1EEEEvRT_
XDf:_m_400653529_0
pSc:__ZThn4_NK5physx5cloth9SwFactory20extractCollisionDataERKNS0_5ClothENS0_5RangeINS_6PxVec4EEENS5_IjEES7_S8_NS5_INS_6PxVec3EEE
dpd:__ZN14PhysicsManager13StaticCleanupEPv
yQa:__ZN9Scripting28CreateEngineScriptableObjectEP15ScriptingObject
G2a:__ZN11MessageLoopC2Ev
FBa:__ZN11TextureData5ResetEv
_Zg:_m_432839266_0_gshared
oif:_m1179042611_0
dEb:__ZL30InitializeCoreScriptingClassesv
zb:invoke_iii
hh:_glBlitFramebuffer
$Ya:__ZN17ArchiveFileSystem5TouchER13FileEntryData
n3c:__ZN5physx2Sq10AABBPrunerC2Eb
Ffa:__ZN8LODGroup16StaticInitializeEPv
lNd:__ZN5physx22NpParticleBaseTemplateINS_15PxParticleFluidENS_15NpParticleFluidEE13setVelocitiesEjRKNS_16PxStrideIteratorIKjEERKNS4_IKNS_6PxVec3EEE
Ibc:__ZN13dynamic_arrayI11CulledLightLj4EE6insertEPS0_PKS0_S4_
tbi:_munmap__wrapper
cSc:__ZN5physx5cloth9SwFactory5cloneERKNS0_5ClothE
KSb:__ZNSt3__16vectorI8Vector3f13stl_allocatorIS1_L18MemLabelIdentifier1ELi16EEE6assignINS_11__wrap_iterIPS1_EEEENS_9enable_ifIXaasr21__is_forward_iteratorIT_EE5valuesr16is_constructibleIS1_NS_15iterator_traitsISB_E9referenceEEE5valueEvE4typeESB_SB_
n2:__ZN10TagManager23VirtualRedirectTransferER18StreamedBinaryReadILb1EE
Ucc:__ZN11Tetrahedron8TransferI18StreamedBinaryReadILb0EEEEvRT_
Fo:FUNCTION_TABLE_vif
Go:FUNCTION_TABLE_vid
Ho:FUNCTION_TABLE_vii
Bgg:_m1116682582_0
yX:_UNITY_png_create_write_struct
YYg:_m_1241640340_0_gshared
HWe:_m_741517581_0
e2b:__Z14resize_trimmedINSt3__16vectorIi13stl_allocatorIiL18MemLabelIdentifier11ELi16EEEEEvRT_j
UJc:__ZN5physx2Sc8ShapeSim20createLowLevelVolumeEjRKNS_9PxBounds3EjNS_9AABBMgrIdE
A3b:__ZNK32RendererMaterialAnimationBinding12SetPPtrValueERKN11UnityEngine9Animation10BoundCurveEi
xN:__ZN6il2cpp8metadata15GenericMetadata20RegisterGenericClassEP18Il2CppGenericClass
L9h:_glDeleteFramebuffers__wrapper
$Of:_m1969619056_0
GLd:__ZNK5physx15NpActorTemplateINS_14PxRigidDynamicEE14getOwnerClientEv
Jr:__ZN26AnimatorOverrideController13StaticCleanupEPv
_Oa:__ZN18ScriptingArguments9AddStructEPv
PA:__ZN10ObjectPoolIN4FMOD3DSPENS0_4DSPIEE8ValidateEPS1_
HVf:_m_395224635_0
N4b:__ZN28EnlightenRendererInformation8TransferI14SafeBinaryReadEEvRT_
gtf:_m1535680650_0
tpc:__ZN5physx12NpBatchQuery13getUserMemoryEv
s9a:__ZN7ApiGLES12DrawIndirectE16GfxPrimitiveTypej
RM:__ZN6il2cpp6icalls8mscorlib6System9Threading16NativeEventCalls20CreateEvent_internalEbbP12Il2CppStringPb
dQb:__ZNSt3__16vectorI14ConstantStringNS_9allocatorIS1_EEE6assignINS_11__wrap_iterIPS1_EEEENS_9enable_ifIXaasr21__is_forward_iteratorIT_EE5valuesr16is_constructibleIS1_NS_15iterator_traitsISA_E9referenceEEE5valueEvE4typeESA_SA_
HXf:_m_1388777226_0
zGe:_m_1089850666_0_gshared
KQc:__ZN5physx5cloth9ClothImplINS0_7SwClothEE24getParticleAccelerationsEv
bMd:__ZN5physx19NpRigidBodyTemplateINS_14PxRigidDynamicEE16setRigidBodyFlagENS_15PxRigidBodyFlag4EnumEb
i6g:__Z59t_224215755_0_CustomAttributesCacheGenerator_m_1708528615_0P21CustomAttributesCache
qud:__ZN5physx6shdfnd8PoolBaseINS_2Sc19ConstraintGroupNodeENS0_19ReflectionAllocatorIS3_EEE17releaseEmptySlabsEv
Gvf:_m394719939_0
bSh:__ZN21InterfaceFuncInvoker1IdP13t_887538054_0E6InvokeEjP8TypeInfoPvS1_
MVh:__ZNSt3__111__stdoutbufIwE8overflowEj
QDd:__Z56setPxVehicleTireLoadFilterDataMMaxFilteredNormalisedLoadPN5physx27PxVehicleTireLoadFilterDataEf
zkf:_m_932059638_0
_lc:__ZN5physx3Cct8SweptBoxD2Ev
T9d:__ZN5physx2Cm12DelegateTaskINS_13PxsCCDContextEXadL_ZNS2_12postCCDSweepEPNS_10PxBaseTaskEEEED0Ev
kyc:__ZN5physx3Scb5Scene20addArticulationJointERNS0_17ArticulationJointE
Ikc:__ZN5physx3Cct9SweepTest15onObstacleAddedEjPKNS_17PxObstacleContextERKNS_6PxVec3ES7_f
kXd:__ZN5physx2Gu10SupportMapD2Ev
w4b:__ZN4PPtrI11LightProbesE8TransferI18StreamedBinaryReadILb0EEEEvRT_
X_g:_m_193844837_0_gshared
FKd:__ZNK5physx15NpActorTemplateINS_18PxArticulationLinkEE22getClientBehaviorFlagsEv
fQa:__ZN9TextAsset8TransferI18StreamedBinaryReadILb1EEEEvRT_
$lh:__Z67t_244520888_0_CustomAttributesCacheGenerator_U3CU3Ef__switchU24mapFP21CustomAttributesCache
Hi:_JS_WebRequest_Release
Bvf:_m1178707977_0
$1c:__ZN5physx21PxcArticulationHelper18computeJointDrivesERNS_9PxcFsDataEPNS_6shdfnd3aos5Vec3VEPKNS_19PxsArticulationLinkEPKNS_11PxTransformEPKNS_30PxcArticulationJointTransformsEPKNS4_6Mat33VEf
GKd:__ZNK5physx15NpActorTemplateINS_18PxArticulationLinkEE12getAggregateEv
SNe:_m_1314209791_0
Rpc:__ZNK5physx12NpConstraint8getFlagsEv
pvc:__ZNK5physx7NpScene18getStaticStructureEv
BWc:__ZN5physx13PxsCCDContext12postCCDSweepEPNS_10PxBaseTaskE
vN:__ZN6il2cpp8metadata15GenericMetadata7InflateEPK19Il2CppGenericMethodPK20Il2CppGenericContext
SRd:__ZN5physx6shdfnd10Foundation19AlignCheckAllocator28deregisterAllocationListenerERNS_20PxAllocationListenerE
gCc:__ZN5physx2Sc21ArticulationJointCore12setChildPoseERKNS_11PxTransformE
Xef:_m838183325_0
drf:_m_281756998_0
H$f:_m_1553231985_0
HHf:_m_1394807298_0
Iph:__Z90t_867674284_0_CustomAttributesCacheGenerator_t_867674284_0_m608460772_0_Arg1_ParameterInfoP21CustomAttributesCache
i0c:__ZN5physx33solveContactCoulombBlockWriteBackEPKNS_23PxcSolverConstraintDescEjRNS_16PxcSolverContextEPNS_25PxcThresholdStreamElementEjPi
kxh:__Z56RuntimeInvoker_t_887538054_0_t1628762041_0_t1636693376_0PK10MethodInfoPvPS2_
oBh:__Z43RuntimeInvoker_t_1190127860_0_t1636693376_0PK10MethodInfoPvPS2_
Rbd:__ZN5physx9PxTaskMgr17submitUnnamedTaskERNS_6PxTaskENS_10PxTaskType4EnumE
rBe:_m609878398_0_gshared
i0e:_m_1594122979_0
Guh:__Z43RuntimeInvoker_t_1190127860_0_t1458036598_0PK10MethodInfoPvPS2_
XBa:__ZN7Texture21GetMasterTextureLimitEv
LX:_UNITY_png_write_sRGB
jic:__ZN9ShaderLabL25StaticInitializeShaderLabEPv
k4c:__ZNK5physx2Sq12BucketPruner5sweepERKNS0_9ShapeDataERKNS_6PxVec3ERfRNS0_14PrunerCallbackE
IGf:_m_1540855832_0
n6g:__Z43t_64224368_0_CustomAttributesCacheGeneratorP21CustomAttributesCache
s2a:__Z40DebugStringToFilePostprocessedStacktracePKcS0_S0_iS0_iiiiPFvRK11CppLogEntryE
gH:_il2cpp_class_get_methods
SHg:_m1115068225_0
t1:__ZN16MessageForwarder23RegisterMessageCallbackEiPFvPviR11MessageDataEi
YQg:_m84047568_0
gGh:__Z28RuntimeInvoker_t_251826893_0PK10MethodInfoPvPS2_
sy:__ZN16BaseVideoTexture16StaticInitializeEPv
wO:__ZN6il2cpp2os6Thread16GetCurrentThreadEv
jUe:_m789203443_0
JFd:__ZN5physx6shdfnd8internal8HashBaseINS0_4PairIKPKNS0_14NamedAllocatorEPKcEES6_NS0_4HashIS6_EENS1_11HashMapBaseIS6_S9_SC_NS0_20NonTrackingAllocatorEE6GetKeyESE_Lb1EE15reserveInternalEj
xih:__Z56t867363288_0_CustomAttributesCacheGenerator_m330941057_0P21CustomAttributesCache
elb:__ZN10TagManager8TransferI19StreamedBinaryWriteILb0EEEEvRT_
pOa:__ZN11PreloadData23VirtualRedirectTransferER18StreamedBinaryReadILb0EE
Lia:__ZN9ShaderLab7Program21GetMatchingSubProgramEP6ShaderPNS_4PassERK16ShaderKeywordSetRS5_R19ShaderSnippetResult
CQa:__ZN9Scripting12LogExceptionEP18ScriptingExceptioniPKc
hFb:__Z15FindOrAddByNameI15ComputeShaderCBERT_RNSt3__16vectorIS1_NS3_9allocatorIS1_EEEERKS1_
Rgf:_m41317712_0
Lic:__ZN19MeshParticleEmitter16StaticInitializeEPv
xlh:__Z58t1507005735_0_CustomAttributesCacheGenerator_m1388175350_0P21CustomAttributesCache
ADf:_m_1060107317_0
Akf:_m_1261170955_0
mwf:_m_906301790_0
n8h:_glBlendFuncSeparate__wrapper
bzg:_m581213919_0
Zw:__ZN10AudioMixer14UpdateMuteSoloEv
GZb:__Z22Transfer_Builtin_AlignIt18StreamedBinaryReadILb0EELb0EEvRK29SerializationCommandArgumentsR31RuntimeSerializationCommandInfo
rwa:__Z17GetMonoManagerPtrv
S8:__ZN15ReflectionProbe16StaticInitializeEPv
d_e:_m_1694968668_0
kPg:_m1444155236_0
Ptd:__ZN5physx6shdfnd5ArrayINS_3Scb13MaterialEventENS0_19ReflectionAllocatorIS3_EEE15growAndPushBackERKS3_
Kj:_JS_Eval_ClearTimeout
bjf:_m1134768050_0
Gab:__ZN7ApiGLES16SetPatchVerticesEi
uAe:_m_425089352_0_gshared
wIb:__ZN9GfxDevice12PresentFrameEPK14ChannelAssigns
G7f:_m109042642_0
_k:_acosf
Dq:__ZN6Object12SetHideFlagsEi
k$a:__ZN10MemoryFileC2E18MemLabelIdentifierP14MemoryFileData14FilePermission
$Qe:_m_1636467033_0
UQ:__ZN6il2cpp2vm5Class20FromGenericParameterEPK22Il2CppGenericParameter
bSd:__ZL28GeomMTDCallback_PlaneCapsuleRN5physx6PxVec3ERfRKNS_10PxGeometryERKNS_11PxTransformES5_S8_
Cjb:__ZN11AssetBundle8TransferI14SafeBinaryReadEEvRT_
J3e:_m1884016728_0
rxd:__ZNK13Simd4fFactoryIN6detail9FourTupleEEcv8Scalar4fEv
sIh:__Z42RuntimeInvoker_t1628762099_0_t_224751869_0PK10MethodInfoPvPS2_
Wqc:__ZNK5physx10NpMaterial18getDynamicFrictionEv
O_f:_m1443497884_0
dja:__ZN9ShaderLab15PushParserStateEPNS_17ParserShaderStateE
qRb:__Z16Transfer_BuiltinIy18StreamedBinaryReadILb1EELb1EEvRK29SerializationCommandArgumentsR31RuntimeSerializationCommandInfo
Heh:__Z43t969932237_0_CustomAttributesCacheGeneratorP21CustomAttributesCache
buh:__Z42RuntimeInvoker_t_738719053_0_t1458036598_0PK10MethodInfoPvPS2_
Ny:__ZN4FMOD4DSPIC2EPNS_7SystemIE
rO:__ZN6il2cpp2os6Thread7SetNameERKNSt3__112basic_stringIcNS2_11char_traitsIcEENS2_9allocatorIcEEEE
gJg:_m827320437_0
kr:__ZN13ProxyTransfer32TransferSTLStyleArrayWithElementIhEEvRT_17TransferMetaFlags
Ptf:_m832351220_0
L8:__ZN16ReflectionProbes40UpdateRealtimeReflectionProbesTimeslicedEv
pae:__ZN5physx5cloth9ClothImplINS0_7SwClothEE11setRotationERKNS_6PxQuatE
lyd:__ZorRK8Scalar4fS1_
Nff:_m_563730129_0
x5:__ZNK16GraphicsSettings25GetClassIDVirtualInternalEv
C4c:__ZN5physx2Sq17SceneQueryManager8addShapeERKNS_7NpShapeERKNS_12PxRigidActorEbPNS_9PxBounds3E
U8:__ZN16ReflectionProbes15InitializeClassEv
OPe:_m31446181_0
Pgg:_m1823571767_0
TS:__ZN6il2cpp2vm5Image9GetCorlibEv
jPd:__ZNK5physx15NpActorTemplateINS_7PxClothEE14getOwnerClientEv
JWd:__ZNK5physx2Gu29EPASupportMapPairRelativeImplINS0_8CapsuleVES2_E9doSupportERKNS_6shdfnd3aos5Vec3VERS6_S9_S9_
rFd:__ZN5physx10SubSortSAH5sort4EPjjRNS_6shdfnd5ArrayINS_11RTreeNodeNQENS2_19ReflectionAllocatorIS4_EEEERjjPS4_
Cxg:_m_110508812_0
ISf:_m_108117326_0
ggf:_m_1064758665_0
G1b:__ZNSt3__16__treeINS_12__value_typeI8UnityStr4PPtrI6ObjectEEENS_19__map_value_compareIS2_S6_NS_4lessIS2_EELb1EEENS_9allocatorIS6_EEE14__insert_multiERKS6_
U$a:__ZN25SingleBlockMemoryFileDataC2E18MemLabelIdentifierPvjb
d1:__ZN5Unity9Component8TransferI18StreamedBinaryReadILb0EEEEvRT_
Q7g:__Z44t_250997435_0_CustomAttributesCacheGeneratorP21CustomAttributesCache
sPh:__ZN16VirtFuncInvoker0IhE6InvokeEjPv
Jse:_m339784735_0_gshared
oa:invoke_fff
QSh:_mbsinit
WQc:__ZN5physx5cloth11SwCollisionI8Scalar4fE18ImpulseAccumulator11addVelocityERKS2_S6_S6_S6_
PKg:_m256639662_0
SCf:_m_1668898169_0
I1g:_m837365928_0_gshared
s4a:__Z26AnimationCurve_CUSTOM_InitP15ScriptingObjectP14ScriptingArray
B9a:__ZN7ApiGLES13CreateProgramEv
K5:__ZN11HaloManager7AddHaloEv
Vwf:_m365084105_0
ltb:__ZN4crnd12crn_unpackerD2Ev
cl:_emscripten_glTexImage2D
YOa:__ZN18ScriptingArguments9AddStringEPKc
$3h:runPostSets
IWd:__ZNK5physx2Gu29EPASupportMapPairRelativeImplINS0_8CapsuleVES2_E18doWarmStartSupportEiiRNS_6shdfnd3aos5Vec3VES7_S7_
zHh:__Z42RuntimeInvoker_t1628762099_0_t1935982065_0PK10MethodInfoPvPS2_
zjb:__ZL23stbir__resize_arbitraryPvPKviiiS_iiiffffPfiij14stbir_datatype12stbir_filterS4_10stbir_edgeS5_16stbir_colorspace
oOg:_m_63118147_0
ol:_pthread_detach
cW:__ZN6il2cpp2vm19SocketPollingThread7RunLoopEv
$qg:_m562789531_0
T7d:__ZN5physx11EdgeManager6resizeEj
SZd:__ZThn132_N5physx7profile8ZoneImplINS_28PxProfileNameProviderForwardEED0Ev
tzb:__ZN13StreamingInfo8TransferI13ProxyTransferEEvRT_
SXg:_m_1441736207_0_gshared
SNg:_m_1409040840_0
qLg:_m1051597858_0
szg:_m_1722567446_0
sei:_emscripten_glIsShader__wrapper
vCh:__Z98RuntimeInvoker_t_19515315_0_t_887538054_0_t1628762099_0_t_887538054_0_t1636693376_0_t_1047982445_0PK10MethodInfoPvPS2_
eIc:__ZN5physx2Sc5Scene12removeStaticERNS0_10StaticCoreERNS_6shdfnd11InlineArrayIPKNS0_9ShapeCoreELj64ENS4_19ReflectionAllocatorIS8_EEEEb
a$h:__ZNKSt3__110moneypunctIwLb0EE16do_thousands_sepEv
V1:__ZN11NamedObject8TransferI18StreamedBinaryReadILb0EEEEvRT_
LNb:__ZNK17GPUSkinPoseBuffer12GetBoneCountEv
QRf:_m_2108768253_0
_lg:_m_1861538825_0
xmf:_m1549451184_0
pJa:__Z12CanAddScriptR10GameObjectP14ScriptingClassPS2_S3_
UVa:__ZN19ShaderPropertySheet24SetTextureHDRDecodeValueERNS_15TexturePropertyERKN9ShaderLab16FastPropertyNameERK8Vector4f
Pl:_emscripten_glMatrixMode
med:__ZN5physx13GuMeshFactory17createHeightFieldERNS_13PxInputStreamE
AFc:__ZN5physx2Sc10NPhaseCore25createShapeInstancePairLLERNS0_8ShapeSimES3_NS_7PxFlagsINS_10PxPairFlag4EnumEtEE
yhg:_m_1657571650_0
KL:__ZN6il2cpp6icalls8mscorlib6System10Reflection6Module16InternalGetTypesEP33mscorlib_System_Reflection_Module
Z4d:__ZNK5physx40PxVehicleDifferential4WDataGeneratedInfo23visitInstancePropertiesINS_18RepXPropertyFilterINS_2Sn17RepXVisitorReaderINS_27PxVehicleDifferential4WDataEEEEEEEjT_j
JM:__ZN6il2cpp6icalls8mscorlib6System9Threading7Monitor4ExitEP12Il2CppObject
d_b:__ZL26Transfer_SimpleNativeClassI18StreamedBinaryReadILb0EE10RectOffsetLb0EEvRK29SerializationCommandArgumentsR31RuntimeSerializationCommandInfo
SSc:__ZThn4_N5physx5cloth8SwSolver8addClothEPNS0_5ClothE
Bob:__ZL12DepthPassJobPN21GfxDeviceAsyncCommand10ArgScratchEPKNS_3ArgE
_l:_emscripten_asm_const_2
Wvh:__Z57RuntimeInvoker_t_224166001_0_t_887538054_0_t_1681755259_0PK10MethodInfoPvPS2_
G6c:__Z34PxVehicleWheels4SuspensionRaycastsPN5physx12PxBatchQueryERKNS_23PxVehicleWheels4SimDataERNS_23PxVehicleWheels4DynDataEPKNS_17PxQueryFilterDataEPKbjPNS_14PxRigidDynamicE
Tpd:__ZN9Rigidbody16ApplyConstraintsEv
Qua:__Z30scripting_cast_object_to_arrayP15ScriptingObject
Gta:__ZN14GfxDeviceStats16CopyAllDrawStatsERKS_
wOb:__ZNK15dense_hashtableINSt3__14pairIKNS0_12basic_stringIcNS0_11char_traitsIcEE13stl_allocatorIcL18MemLabelIdentifier53ELi16EEEEP20ArchiveStorageReaderEES8_11djb2_hash_tIS8_EN14dense_hash_mapIS8_SB_SE_NS0_8equal_toIS8_EES5_ISC_LS6_53ELi16EEE9SelectKeyESH_SI_E10test_emptyERK24dense_hashtable_iteratorISC_S8_SE_SK_SH_SI_E
$Rh:__ZN21InterfaceFuncInvoker1I13t_818288618_0P13t_887538054_0E6InvokeEjP8TypeInfoPvS2_
Pn:FUNCTION_TABLE_iiiiiiiiiiii
IBb:__ZNSt3__112basic_stringIcNS_11char_traitsIcEE13stl_allocatorIcL18MemLabelIdentifier65ELi16EEE6assignIPKhEENS_9enable_ifIXsr21__is_forward_iteratorIT_EE5valueERS6_E4typeESB_SB_
Zyh:__Z55RuntimeInvoker_t_224166001_0_t1628762194_0_t517708048_0PK10MethodInfoPvPS2_
fMc:__ZN5physx2Sc17ParticleSystemSim8setFlagsEj
uGb:__ZN16GraphicsSettingsD0Ev
dBb:__Z29StdTemplateConversionFunctionIshEbPvR14SafeBinaryRead
NLa:__Z26Transfer_UnityEngineObjectI13ProxyTransferLb1EEvRK29SerializationCommandArgumentsR31RuntimeSerializationCommandInfo
$zh:__Z28RuntimeInvoker_t_634726754_0PK10MethodInfoPvPS2_
Wuh:__Z69RuntimeInvoker_t_887538054_0_t_887538054_0_t_887538054_0_t574519524_0PK10MethodInfoPvPS2_
m:cttz_i8
yWb:__Z22Transfer_Builtin_AlignIs13ProxyTransferLb0EEvRK29SerializationCommandArgumentsR31RuntimeSerializationCommandInfo
rad:__ZN5physx2Gu15EdgeListBuilder18CreateEdgesToFacesEjPKjPKt
v2:__ZN12BaseRenderer20FlattenToRenderQueueER15RenderNodeQueueRKNS0_4Node10SourceDataE
Ubh:__Z45t_2098053619_0_CustomAttributesCacheGeneratorP21CustomAttributesCache
cyd:__ZanRK8Scalar4fRK14ComplementExprIS_E
kLa:__ZNK15ResourceManager25GetClassIDVirtualInternalEv
XWf:_m_1313865846_0
Sgg:_m110584337_0
b6f:_m_494971038_0
Bm:_emscripten_glViewport
aK:__ZN6il2cpp6icalls8mscorlib6System15MonoCustomAttrs17IsDefinedInternalEP12Il2CppObjectP20Il2CppReflectionType
yoa:__ZN4Mesh21UnswizzleVertexColorsEb
jEe:_m1767874860_0_gshared
Kgh:__Z45t_1169133302_0_CustomAttributesCacheGeneratorP21CustomAttributesCache
WPb:__ZN14SafeBinaryRead22TransferWithTypeStringIjEEvRT_PKcS4_17TransferMetaFlags
oTd:__ZThn28_N14PhysicsManagerD0Ev
BEc:__ZN5physx2Sc27ConstraintProjectionManagerC2Ev
bwg:_m_576421559_0
Tvc:__ZNK5physx7NpShape15getGeometryTypeEv
q0c:__ZN5physx20solveExtContactBlockEPKNS_23PxcSolverConstraintDescEjRNS_16PxcSolverContextE
DKa:__ZN14PlayerSettings23VirtualRedirectTransferER18StreamedBinaryReadILb0EE
MVb:__Z19TransferField_ArrayI14SafeBinaryRead19Converter_PrimitiveI8Vector2fEEvRK23StaticTransferFieldInfoR31RuntimeSerializationCommandInfoRT0_
QN:__ZN6il2cpp2os5Event5ResetEv
hUb:__Z15Transfer_StringI14SafeBinaryReadLb0EEvRK29SerializationCommandArgumentsR31RuntimeSerializationCommandInfo
qN:__ZN6il2cpp8metadata15GenericMetadata17InflateParametersEPK13ParameterInfohPK20Il2CppGenericContextb
RLg:_m1332740042_0
hge:__ZNK5physx2Cm12DelegateTaskINS_2Sc5SceneEXadL_ZNS3_23postIslandGenSecondPassEPNS_10PxBaseTaskEEEE7getNameEv
Jaa:__Z23CullDirectionalCascadesRNSt3__16vectorI16ShadowCasterData13stl_allocatorIS1_L18MemLabelIdentifier2ELi16EEEEPK17ShadowCascadeInfoiRK10Matrix4x4fRK8Vector3fRK14ShadowCullData
w3:__ZNK6Camera23CalculateShadowDistanceEv
G$h:__ZNKSt3__19money_getIwNS_19istreambuf_iteratorIwNS_11char_traitsIwEEEEE6do_getES4_S4_bRNS_8ios_baseERjRNS_12basic_stringIwS3_NS_9allocatorIwEEEE
Oqg:_m_870260619_0
WXh:__ZNSt3__114basic_iostreamIcNS_11char_traitsIcEEED0Ev
RTh:__ZN10__cxxabiv116__shim_type_infoD2Ev
Y9e:_m_2082336931_0
YFb:__ZN10GameObjectD2Ev
P6c:__ZN5physx22PxVehicleWheelsSimData4freeEv
m9g:__Z43t593719024_0_CustomAttributesCacheGeneratorP21CustomAttributesCache
HBd:__ZN5physxL27PxcSweepAnyShapeHeightfieldERKNS_11PxsCCDShapeES2_PKNS_12PxsRigidBodyES5_RKNS_11PxTransformES8_fRNS_6PxVec3ESA_RNS_10PxcNpCacheERNS_18PxcNpThreadContextE
Nza:__ZThn32_NK8Renderer8GetLayerEv
Toa:__ZNK4Mesh17GetPrimitiveCountEv
Lsd:__ZN5physx3Scb5SceneD2Ev
y1h:__ZNKSt3__17codecvtIDic11__mbstate_tE13do_max_lengthEv
uM:__ZN6il2cpp6icalls8mscorlib6System7Runtime8Remoting10Activation18ActivationServices34AllocateUninitializedClassInstanceEP20Il2CppReflectionType
sFg:_m_734237986_0
qci:_emscripten_glTexParameterfv__wrapper
_Eb:__ZN12_GLOBAL__N_113SetDepthStateER7ApiGLESR15DeviceStateGLESPK20DeviceDepthStateGLES
UH:_il2cpp_method_get_param_count
iHe:_m_1711009010_0
ddd:__Z20sweepCCTBoxTrianglesjPKN5physx10PxTriangleERKNS_13PxBoxGeometryERKNS_11PxTransformERKNS_6PxVec3EfRS9_SC_RfRjPKjfNS_7PxFlagsINS_9PxHitFlag4EnumEtEE
Iod:__Z16GetDynamicsScenev
DKc:__ZThn8_N5physx2Sc18TriggerInteraction7destroyEv
iGf:_m1857966345_0
Gbc:__ZNSt3__16__treeI4PPtrI10GUIElementENS_4lessIS3_EE11memory_poolIS3_EE15__insert_uniqueERKS3_
gMe:_m_1548478367_0
vEh:__Z28RuntimeInvoker_t1719079768_0PK10MethodInfoPvPS2_
ire:_m1624016570_0_gshared
Oug:_m_1254915027_0
JAd:__ZN5physx2Cm9transformERKNS0_8Matrix34ERKNS_9PxBounds3E
EGe:_m_2033281105_0_gshared
tub:__ZN16LightmapSettings8TransferI14SafeBinaryReadEEvRT_
Hbb:__ZN17BufferManagerGLES13ReleaseBufferEP14DataBufferGLES
Xp:copyTempDouble
vXf:_m_891886693_0
MGc:__ZN5physx2Sc5Scene15prepareSimulateEv
TQc:__ZN5physx5cloth11SwCollisionI8Scalar4fE13CollisionDataC2Ev
twd:__ZN5physx6shdfnd5ArrayIPNS_2Sc11InteractionENS0_19ReflectionAllocatorIS4_EEE8recreateEj
Anh:__Z57t1617514872_0_CustomAttributesCacheGenerator_m_54428356_0P21CustomAttributesCache
QPe:_m2073665242_0
gNe:_m507057712_0
Zrf:_m_547154306_0
rme:__ZN13RuntimeStaticINSt3__16vectorIPN20TextRenderingPrivate17TextMeshGeneratorENS0_9allocatorIS4_EEEEE13StaticDestroyEPv
Sp:stackSave
SIe:_m_1042867912_0
LBf:_m_1910518510_0
i$a:__ZN16MemoryFileSystem5TouchER13FileEntryData
Kag:_m_87717425_0
Q4f:_m_1924225188_0
D3e:_m_1884904378_0
Yog:_m497260761_0
W3:__ZN6Camera9SetAspectEf
Vrf:_m864002126_0
Sxd:__Z3minRK8Scalar4fS1_
Eyd:__Z6simd4fRK8Scalar4f
hsd:__ZN5physx6shdfnd8internal8HashBaseIPNS_7PxActorES4_NS0_4HashIS4_EENS1_11HashSetBaseIS4_S6_NS0_9AllocatorELb0EE6GetKeyES8_Lb0EE6createERKS4_Rb
f1d:__ZN5physx18RepXPropertyFilterINS_2Sn17RepXVisitorReaderINS_18PxVehicleWheelDataEEEEclILj572ES3_ffEEvRKNS_14PxPropertyInfoIXT_ET0_T1_T2_EEj
EGd:__ZL5case0iiiRN5physx6PxVec3ERKS0_S3_PfRf
DV:__ZN6il2cpp2vm7Runtime9ClassInitEP8TypeInfo
K6d:__ZN5physx16PxVehicleDrive4WD0Ev
Idi:_emscripten_glBindVertexArray__wrapper
UIh:__Z56RuntimeInvoker_t_224166001_0_t1628762099_0_t1910164791_0PK10MethodInfoPvPS2_
DFh:__Z70RuntimeInvoker_t_224166001_0_t_887538054_0_t_224751869_0_t_887538054_0PK10MethodInfoPvPS2_
q7e:_t_497485311_0_marshal_back
OA:__ZN10ObjectPoolIN4FMOD3DSPENS0_4DSPIEE7GetFreeEi
Fhb:__ZL11reveal_linkPv
OE:__ZTv0_n12_NSt3__119basic_ostringstreamIcNS_11char_traitsIcEENS_9allocatorIcEEED1Ev
shb:__GLOBAL__sub_I_ScreenManager_cpp
lAf:_m_1230872802_0
Kvb:__ZN14Texture2DArray8TransferI13ProxyTransferEEvRT_
cRe:_m1306012538_0
Meg:_m1506077966_0
Elg:_m_2143817121_0
qwa:__Z14GetMonoManagerv
mzf:_m1450876743_0
aTa:__ZNK14SerializedFile10GetClassIDEx
pDf:_m1356360283_0
KNa:__ZN10MonoScript13StaticCleanupEPv
LKh:__ZN16VirtFuncInvoker2IbiiE6InvokeEjPvii
jfb:__ZN13GfxDeviceGLES26SetRandomWriteTargetBufferEi15ComputeBufferID
Tob:__ZNK4PPtrI4MeshEptEv
xdh:__Z44t_118070759_0_CustomAttributesCacheGeneratorP21CustomAttributesCache
WWg:_m_711828717_0_gshared
k5f:_m1841540458_0
eZ:__ZN18AssetBundleManager19RegisterAssetBundleEP11AssetBundle
hid:__ZN5physx20InternalTriangleMesh7releaseEv
Kzd:__ZN5physx6shdfnd5ArrayINS_16PxsCCDBlockArrayINS_13PxsCCDOverlapELi128EE9BlockInfoENS0_19ReflectionAllocatorIS5_EEE15growAndPushBackERKS5_
vwc:__ZNK5physx7NpShape8getFlagsEv
IPh:__ZN16VirtFuncInvoker2IP12t553963095_0P13t_756155572_0iE6InvokeEjPvS3_i
qce:__ZThn4_N5physx5cloth9ClothImplINS0_7SwClothEE21setStiffnessFrequencyEf
UDd:__Z27setPxVehicleWheelDataMWidthPN5physx18PxVehicleWheelDataEf
ZHg:_m1150945613_0
PYg:_m_624354258_0_gshared
nAf:_m_9925716_0
nze:_m_1559640930_0_gshared
LAc:__ZNK5physx7NpCloth16getContactOffsetEv
DNa:__ZN10MonoScript13AwakeFromLoadE17AwakeFromLoadMode
VGg:_m531114797_0
Qpb:__ZN13dynamic_arrayI16ShaderKeywordSetLj4EE6insertEPS0_PKS0_S4_
kXf:_m_891874007_0
sph:__Z58t1159094344_0_CustomAttributesCacheGenerator_m_474808031_0P21CustomAttributesCache
Atd:__ZN5physx6shdfnd8internal8HashBaseIPNS_3Scb4BaseES5_NS0_4HashIS5_EENS1_11HashSetBaseIS5_S7_NS0_9AllocatorELb1EE6GetKeyES9_Lb1EE6createERKS5_Rb
Z7c:__Z37setPxVehicleWheelsSimData_ChassisMassPN5physx22PxVehicleWheelsSimDataEf
LAa:__ZN13RenderTexture9SetHeightEi
IEg:_m_576057267_0
t$h:__ZNSt3__19money_getIcNS_19istreambuf_iteratorIcNS_11char_traitsIcEEEEED2Ev
CVe:_m_1393734023_0
Aoe:_m_306610661_0_gshared
mL:__ZN6il2cpp6icalls8mscorlib6System2IO6MonoIO17GetFileAttributesEP12Il2CppStringPi
Pxg:_m1972945906_0
Qsg:_m_209418351_0
YJe:_m_1214996711_0
eLb:__ZN23PreloadManagerOperationD0Ev
ne:_emscripten_set_keydown_callback
qe:_glGetVertexAttribPointerv
hXa:__ZN12FileAccessorC2Ev
uYf:_m_735775347_0
EFa:__ZN9Transform35SetLocalPositionWithoutNotificationERKN4math7_float3E
SCc:__ZN5physx2Sc15ArticulationSim12applyImpulseERNS0_8BodyCoreERKNS_9PxcFsDataERKNS_6PxVec3ES9_
YJg:_m_2093406131_0
UWe:_m_1000455614_0
THg:_m1115071170_0
Lhe:__ZNK5physx22NpParticleBaseTemplateINS_16PxParticleSystemENS_16NpParticleSystemEE7getTypeEv
nKf:_m_1747722011_0
z9e:_m828897591_0
Myd:__ZNK13Simd4iFactoryIN6detail7IntTypeILi0EEEEcv8Scalar4fEv
Anc:__ZNK5physx14NpArticulation26getInternalDriveIterationsEv
c8g:__Z43t611130968_0_CustomAttributesCacheGeneratorP21CustomAttributesCache
xcc:__ZNSt3__17__sort5IR23CompareReflectionProbesP31RuntimeReflectionProbeBlendInfoEEjT0_S5_S5_S5_S5_T_
DCe:_m_1551802280_0_gshared
Ipb:__ZN15dense_hashtableINSt3__14pairIK16ShaderKeywordSetPN9ShaderLab10SubProgramEEES2_NS4_7Program24ShaderKeywordHashFunctorEN14dense_hash_mapIS2_S6_S9_NS0_8equal_toIS2_EE13stl_allocatorIS7_L18MemLabelIdentifier64ELi16EEE9SelectKeyESC_SF_E13set_empty_keyERKS7_
TPa:__ZN9TextAsset16StaticInitializeEPv
rod:__ZThn28_N14PhysicsManager9onContactERKN5physx19PxContactPairHeaderEPKNS0_13PxContactPairEj
Etg:_m759186162_0
Sve:_m788143672_0_gshared
G9:__ZN13RenderManager18UpdateAllRenderersEv
_9d:__ZN5physx6shdfnd5ArrayINS_6PxVec3ENS0_9AllocatorEE8recreateEj
AIf:_m814995684_0
yBg:_m1671040818_0
zYb:__Z16Transfer_BuiltinI4AABB17RemapPPtrTransferLb0EEvRK29SerializationCommandArgumentsR31RuntimeSerializationCommandInfo
p_g:_m44664915_0_gshared
fvg:_m591291609_0
OTe:_m_1033400412_0
d0:__Z24MergeTransformComponentsR9TransformS0_b
fJg:_m_916804453_0
gVg:_pinvoke_delegate_wrapper_t_1637549863_0
zCc:__ZThn24_N5physx2Sc20ArticulationJointSimD0Ev
M2f:_m_2046897727_0
NZe:_m_386560737_0
ETc:__ZN5physx14PxsAABBManager12createBPElemEv
cfg:_m_1592398909_0
Drf:_m1469603388_0
GXb:__ZL26Transfer_SimpleNativeClassI13ProxyTransfer11GradientNEWLb1EEvRK29SerializationCommandArgumentsR31RuntimeSerializationCommandInfo
Ovc:__ZThn12_N5physx7NpShape14onRefCountZeroEv
PVf:_m_203034343_0
oSd:__ZL26GeomMTDCallback_ConvexMeshRN5physx6PxVec3ERfRKNS_10PxGeometryERKNS_11PxTransformES5_S8_
E$d:__ZN5physx3Pvd17PvdPropertyFilterINS_2Sn17RepXVisitorWriterINS_17PxVehicleTireDataEEEE14handleAccessorILj600ENS_22PxRepXPropertyAccessorILj600ES4_ffEEEEvRKT0_
Yje:__ZN5physx15NpActorTemplateINS_18PxArticulationLinkEE22setClientBehaviorFlagsENS_7PxFlagsINS_25PxActorClientBehaviorFlag4EnumEhEE
Ldc:__ZNSt3__16vectorI4PPtrI23ShaderVariantCollectionE13stl_allocatorIS3_L18MemLabelIdentifier51ELi16EEE6assignINS_11__wrap_iterIPS3_EEEENS_9enable_ifIXaasr21__is_forward_iteratorIT_EE5valuesr16is_constructibleIS3_NS_15iterator_traitsISD_E9referenceEEE5valueEvE4typeESD_SD_
Ik:_emscripten_glVertexAttribPointer
gOa:__ZN14PreloadManager26UpdatePreloadingSingleStepENS_21UpdatePreloadingFlagsEi
BSe:_m1532839414_0
Dsf:_m_1788476788_0
zta:__Z19InitializeGfxDevicej
c7c:__ZNK5physx22PxVehicleWheelsSimData23getSceneQueryFilterDataEj
tIe:_m390067040_0
tzf:_m_984256693_0
DSd:__ZL33GeomOverlapCallback_CapsuleConvexRKN5physx10PxGeometryERKNS_11PxTransformES2_S5_PNS_2Gu12TriggerCacheE
G7b:__ZN6prcoreL25inner_stretch_i8_bilinearEPKNS_9InnerInfoE
qUf:_m1453287293_0
ZFh:__Z98RuntimeInvoker_t_887538054_0_t_887538054_0_t_981944187_0_t_766435453_0_t1628762099_0_t1628762099_0PK10MethodInfoPvPS2_
iBg:_m1515909476_0
_nh:__Z56t59089492_0_CustomAttributesCacheGenerator_m_163083830_0P21CustomAttributesCache
Vc:___cxa_rethrow
Ojf:_m_1436306958_0
pid:__ZN5physx20InternalTriangleMesh9loadRTreeERNS_13PxInputStreamEj
erb:__ZN13dynamic_arrayIP12SkinMeshInfoLj4EE7reserveEj
Fsd:__ZN5physx19NpRigidBodyTemplateINS_14PxRigidDynamicEE25setCMassLocalPoseInternalERKNS_11PxTransformE
bdh:__Z45t_1449198480_0_CustomAttributesCacheGeneratorP21CustomAttributesCache
O2b:__ZN13dynamic_arrayI16AddComponentDataLj4EE7reserveEj
Nr:__ZN13AnimationClip13StaticCleanupEPv
yMd:__ZNK5physx15NpActorTemplateINS_13PxRigidStaticEE14getOwnerClientEv
Dgc:__ZNSt3__16vectorIN6il2cpp8metadata18GenericArrayMethodENS_9allocatorIS3_EEE21__push_back_slow_pathIKS3_EEvRT_
aJ:__ZN6il2cpp6icalls8mscorlib6System9AppDomain22InternalGetProcessGuidEP12Il2CppString
PLc:__ZN5physx2Sc18ParticleSystemCore16releaseParticlesEv
FWd:__ZNK5physx2Gu29EPASupportMapPairRelativeImplINS0_8CapsuleVENS0_4BoxVEE6getDirEv
$hd:__ZN5physx2Gu20intersectTriangleBoxERKNS_6shdfnd3aos5Vec3VES5_S5_S5_S5_
G5c:__ZN5physx16PxVehicleNoDrive14setBrakeTorqueEjf
DHh:__Z42RuntimeInvoker_t_19515315_0_t_1204723828_0PK10MethodInfoPvPS2_
UDf:_t474147831_0_marshal
EIf:_m_1000628696_0
L$a:__ZN24RingBufferMemoryFileData4LockEPPv
aSa:__ZN17PersistentManager32GetAllFileIDsAndClassIDsFromPathERKNSt3__112basic_stringIcNS0_11char_traitsIcEENS0_9allocatorIcEEEER13dynamic_arrayIxLj8EERS9_IiLj4EE
kg:_emscripten_glClearDepth
Oma:__ZN8Playable12SetPlayStateE9PlayState
m0b:__Z16Transfer_BuiltinIi19StreamedBinaryWriteILb0EELb1EEvRK29SerializationCommandArgumentsR31RuntimeSerializationCommandInfo
F3h:__ZNSt3__127__num_get_unsigned_integralImEET_PKcS3_Rji
h1d:__ZN5physx18RepXPropertyFilterINS_2Sn17RepXVisitorReaderINS_18PxVehicleWheelDataEEEEclILj574ES3_ffEEvRKNS_14PxPropertyInfoIXT_ET0_T1_T2_EEj
VSa:__ZN14SerializedFile14InitializeReadERKNSt3__112basic_stringIcNS0_11char_traitsIcEENS0_9allocatorIcEEEER18ResourceImageGroupjj24TransferInstructionFlagsjj
Zmd:__ZNK8Collider25GetClassIDVirtualInternalEv
Vzf:_m1921037304_0
cUf:_m2014556670_0
Bgb:__GLOBAL__sub_I_LibraryLoader_cpp
F$c:__ZN5physx35solveContactPreBlock_ConcludeStaticEPKNS_23PxcSolverConstraintDescEjRNS_16PxcSolverContextE
ufc:__ZL22stbir__encode_scanlineP11stbir__infoiPvPfiii
Vle:__ZN20QuadTreeNodeRenderer13StaticDestroyEPv
Fog:_m_537874594_0
FD:__ZN14AudioBehaviourD2Ev
SM:__ZN6il2cpp6icalls8mscorlib6System9Threading16NativeEventCalls19CloseEvent_internalE12Il2CppIntPtr
fGd:__ZN5physxmlERKNS_11PxMeshScaleERKNS_11PxTransformE
V8d:__ZN5physx18PxsSolverStartTask13setupDescTaskEv
M9e:_m_110279773_0
bDc:__ZN5physx2Sc8BodyCore20clearSpatialVelocityEv
JDe:_m275441669_0_gshared
o2h:__ZNKSt3__17num_getIcNS_19istreambuf_iteratorIcNS_11char_traitsIcEEEEE23__do_get_floating_pointIeEES4_S4_S4_RNS_8ios_baseERjRT_
IAg:_m_263667039_0
QOh:__ZN16VirtFuncInvoker2IP12t340845501_0iP13t_887538054_0E6InvokeEjPviS3_
mkc:__ZN5physx3Cct13BoxController6resizeEf
o2b:__ZNSt3__16vectorIN30RuntimeInitializeOnLoadManager9ClassInfoE13stl_allocatorIS2_L18MemLabelIdentifier11ELi16EEE26__swap_out_circular_bufferERNS_14__split_bufferIS2_RS5_EE
RDb:_LZ4_compress_generic
kvg:_m_47474610_0
Ovd:__ZN5physx6shdfnd5ArrayINS_2Cm12DelegateTaskINS_2Sc5SceneEXadL_ZNS5_19updateCCDSinglePassEPNS_10PxBaseTaskEEEEENS0_19ReflectionAllocatorIS8_EEE8recreateEj
Gxe:_m1256664552_0_gshared
VQc:__ZN5physx5cloth11SwCollisionI8Scalar4fE18ImpulseAccumulator3addERKS2_S6_S6_S6_S6_
Ejc:__ZN12WheelJoint2D16StaticInitializeEPv
p5d:__ZNK5physx26PxSerializerDefaultAdapterINS_16PxVehicleDriveNWEE8requiresERNS_6PxBaseERNS_23PxProcessPxBaseCallbackE
zwc:__ZN5physx34NpShapeGetScRigidObjectFromScbSLOWERKNS_3Scb5ShapeE
Swb:__ZN13dynamic_arrayI15SavedCameraDataLj4EE7reserveEj
g5g:__Z92t1621492670_0_CustomAttributesCacheGenerator_t1621492670_0_m_1535220340_0_Arg0_ParameterInfoP21CustomAttributesCache
MUc:__ZNK5physx21PxsBodyTransformVault12getTransformERKNS_11PxsBodyCoreE
JSb:__Z14resize_trimmedINSt3__16vectorI8Vector3f13stl_allocatorIS2_L18MemLabelIdentifier1ELi16EEEEEvRT_j
eqe:_m_1082751059_0_gshared
vyg:_m1886644629_0
RJ:__ZN6il2cpp6icalls8mscorlib6System11Environment15internalGetHomeEv
Mqf:_m_1676730065_0
Mtg:_m1112862356_0
org:_m1287775502_0
GRe:_m_89856456_0
v0:__ZNK5Unity9Component7GetNameEv
oAa:__ZN13RenderTexture9SetActiveEPS_i11CubemapFaceij
jYd:__ZN44ConvexVsHeightfieldContactGenerationCallback7onEventEjPj
IMh:__ZN16VirtFuncInvoker1IP12t939027474_0iE6InvokeEjPvi
UUg:_m1668252761_0
unf:_m640530147_0
rBa:__ZN13ScreenManagerD0Ev
eX:_UNITY_png_set_error_fn
Oo:FUNCTION_TABLE_diiii
G$b:__Z16Transfer_BuiltinId19StreamedBinaryWriteILb0EELb0EEvRK29SerializationCommandArgumentsR31RuntimeSerializationCommandInfo
tYg:_m425538513_0_gshared
Aaa:__Z27CalculateShadowSphereOffsetRK6Cameraf
uZf:_m1380825636_0
g3e:_m_394503485_0
y0f:_m_1557708892_0
vMh:__ZN16VirtFuncInvoker5IP13t_887538054_0P14t_1238178395_0iiP13t_266361018_0S1_E6InvokeEjPvS3_iiS5_S1_
S6e:_m1998800056_0
gC:__ZN4FMOD6System7releaseEv
yud:__ZN5physx6shdfnd8PoolBaseINS_2Sc18TriggerInteractionENS0_19ReflectionAllocatorIS3_EEE15disposeElementsEv
Mah:__Z44t_615889032_0_CustomAttributesCacheGeneratorP21CustomAttributesCache
lKe:_m_349041573_0
sqe:_m2038073176_0_gshared
rye:_m833926610_0_gshared
Nyh:__Z43RuntimeInvoker_t_1336052579_0_t_887538054_0PK10MethodInfoPvPS2_
O0c:__ZN5physx28PxcContactCapsuleHeightFieldERKNS_2Gu13GeometryUnionES3_RKNS_11PxTransformES6_RKfRNS_10PxcNpCacheERNS0_13ContactBufferE
o$f:_m2134404459_0
KGe:_m54857389_0_gshared
Oqb:__ZN26RecursivePlayableTraverser8TraverseER9FrameDataP8PlayableS3_P14DirectorPlayeriPvf
axd:__ZN5physx6shdfnd5ArrayINS_6PxVec4ENS0_16AlignedAllocatorILj16ENS0_9AllocatorEEEE4copyIS5_EEvRKNS1_IS2_T_EE
Y3f:_m_214370815_0
rGd:__ZL31PointInConvexPolygon2D_OutCodesPKfjffffRh
itf:_m1763424693_0
FOd:__ZN5physx22NpParticleBaseTemplateINS_16PxParticleSystemENS_16NpParticleSystemEE18setDynamicFrictionEf
TNa:__ZN10MonoScript23VirtualRedirectTransferER17RemapPPtrTransfer
Mma:__ZN8Playable11SetDurationEd
lCc:__ZN5physx2Sc21ArticulationJointCore21setInternalComplianceEf
qcd:__ZNK5physx6shdfnd10Foundation13getErrorLevelEv
MFc:__ZN5physx2Sc10NPhaseCore19findTriggerContactsEPNS0_18TriggerInteractionEbb
qv:__ZN12AudioManager29ShutdownReinitializeAndReloadEv
i6d:__ZN5physx18RepXSerializerImplINS_16PxVehicleNoDriveEE12objectToFileERKNS_12PxRepXObjectEPNS_12PxCollectionERNS_9XmlWriterERNS_12MemoryBufferERNS_23PxRepXInstantiationArgsE
yge:__ZN5physx2Cm12DelegateTaskINS_2Sc5SceneEXadL_ZNS3_15postNarrowPhaseEPNS_10PxBaseTaskEEEE11runInternalEv
Vnd:__Z20ConvertContactToMonoP9Collision
RQ:__ZN6il2cpp2vm8Assembly20AssemblyNameToStringERK18Il2CppAssemblyName
waf:_m1440957557_0
Ngb:__GLOBAL__sub_I_String_cpp
w6c:__ZN5physx50solveDriveNWInternalDynamicsEnginePlusDrivenWheelsERKNS_19ImplicitSolverInputEPNS_20ImplicitSolverOutputE
$Jf:_m232511250_0
TRf:_m_591748639_0
FRa:__Z29GetGlobalAllowNameConversionsv
qGd:__ZL17transformVerticesRfS_S_S_PfjPKN5physx6PxVec3EPKhRKNS1_7PxMat33E
Ejd:__ZNK5physx2Gu15HeightFieldUtil31getFaceIndexAtShapePointNoTest2Ejff
nE:__ZN8WWWAudioD2Ev
Hai:_emscripten_glBlendFunc__wrapper
nwd:__ZN5physx6shdfnd5ArrayIPNS_14PxLightCpuTaskENS0_13TempAllocatorEE6resizeEjRKS3_
Oec:__ZNSt3__17__sort3IR17CompareInstanceIDPP6ObjectEEjT0_S6_S6_T_
EQb:__ZL26Transfer_SimpleNativeClassI18StreamedBinaryReadILb1EE8GUIStyleLb0EEvRK29SerializationCommandArgumentsR31RuntimeSerializationCommandInfo
v3c:__ZNK5physx2Sq10AABBPruner5sweepERKNS0_9ShapeDataERKNS_6PxVec3ERfRNS0_14PrunerCallbackE
X$b:__ZN10RectOffset8TransferI19StreamedBinaryWriteILb0EEEEvRT_
Q4h:dynCall_iiifiii
zZa:__ZN21ArchiveStorageCreatorC2Ev
KMg:_m_448950427_0
QHc:__ZN5physx2Sc5Scene21fireCallBacksPostSyncEv
Ocb:__ZN14GfxContextGLES43AddRenderSurfaceToDeferredFBOInvalidateListEPK17RenderSurfaceGLES
a$f:_m_2040754094_0
ZM:__ZN6il2cpp6icalls8mscorlib6System9Threading6Thread15Thread_internalEP12Il2CppThreadP14Il2CppDelegate
O1:__ZN11NamedObject23VirtualRedirectTransferER14SafeBinaryRead
tE:__ZNK8WWWAudio14GetPartialDataEv
kOa:__ZN23PreloadManagerOperation6IsDoneEv
B4d:__ZN5physx3Pvd17PvdPropertyFilterINS_2Sn17RepXVisitorWriterINS_27PxVehicleDifferential4WDataEEEE14handleAccessorILj543ENS_22PxRepXPropertyAccessorILj543ES4_ffEEEEvRKT0_
Ryf:_m_787396249_0
Zkc:__ZN5physx3Cct26CharacterControllerManagerD2Ev
HDb:__ZNSt3__16__treeINS_12__value_typeINS_12basic_stringIcNS_11char_traitsIcEE13stl_allocatorIcL18MemLabelIdentifier53ELi16EEEEPN16MemoryFileSystem4NodeEEENS_19__map_value_compareIS8_SC_NS_4lessIS8_EELb1EEES5_ISC_LS6_53ELi16EEE7destroyEPNS_11__tree_nodeISC_PvEE
Kyg:_m629320722_0
dhh:__Z43t106670293_0_CustomAttributesCacheGeneratorP21CustomAttributesCache
FBe:_m_457324166_0_gshared
Lca:__ZN26LightProbeProxyVolumeCacheC2ER13BatchRendererR15RenderLoopStats
$ob:__ZN6prcoreL31inner_stretch_argb8888_bilinearEPKNS_9InnerInfoE
xHh:__Z42RuntimeInvoker_t_224166001_0_t1935982065_0PK10MethodInfoPvPS2_
Mzd:__ZN5physx6shdfnd8internal8HashBaseINS0_4PairIKNS3_IPKNS_12PxsRigidCoreEPKNS_12PxsShapeCoreEEEPNS_11PxsCCDShapeEEESA_NS0_4HashISA_EENS1_11HashMapBaseISA_SD_SG_NS0_9AllocatorEE6GetKeyESI_Lb1EE15reserveInternalEj
ZEe:_m2040323320_0_gshared
wec:__ZN17SortingLayerEntry8TransferI13ProxyTransferEEvRT_
ITb:__ZNSt3__16vectorIh13stl_allocatorIhL18MemLabelIdentifier1ELi16EEE8__appendEj
sqh:__Z45t_1875082871_0_CustomAttributesCacheGeneratorP21CustomAttributesCache
oIc:__ZN5physx2Sc5Scene21setDominanceGroupPairEhhRKNS_20PxDominanceGroupPairE
q9d:__ZN5physx6shdfnd4sortIPvNS0_4LessIS2_EENS0_19ReflectionAllocatorINS_2Gu31SpherePersistentContactManifoldEEEEEvPT_jRKT0_RKT1_
FFb:__ZN23PreloadManagerOperation21MustCompleteNextFrameEv
njh:__Z57t867363288_0_CustomAttributesCacheGenerator_m_618117529_0P21CustomAttributesCache
Cre:_m_2113446411_0_gshared
_:Math_exp
Jph:__Z57t_867674284_0_CustomAttributesCacheGenerator_m814665735_0P21CustomAttributesCache
uOa:__ZN11PreloadData13StaticCleanupEPv
tp:FUNCTION_TABLE_iiifi
QSb:__ZNSt3__16vectorINS_12basic_stringIcNS_11char_traitsIcEE13stl_allocatorIcL18MemLabelIdentifier1ELi16EEEES4_IS7_LS5_1ELi16EEE8__appendEj
JVa:__ZN19ShaderPropertySheet14AddNewPropertyERKN9ShaderLab16FastPropertyNameENS_12PropertyTypeEijj
K6c:__ZN5physx22PxVehicleWheelsSimData20setWheelShapeMappingEji
lia:__ZN9ShaderLab9IntShader15ResolveFallbackERKNS_12ParserShaderEP6ShaderRNSt3__16vectorI4PPtrIS4_ENS6_9allocatorIS9_EEEEbR12ShaderErrors
Lyd:__Z8allEqualRK8Scalar4fS1_
ptc:__ZN5physx7NpScene12loadFromDescERKNS_11PxSceneDescE
LWa:__ZNK10FileSystem16LastErrorMessageEv
oR:__ZN6il2cpp2vm5Class13GetPropertiesEP8TypeInfoPPv
N6g:__Z44t_725023287_0_CustomAttributesCacheGeneratorP21CustomAttributesCache
fNa:__ZN13MonoBehaviour13AwakeFromLoadE17AwakeFromLoadMode
A1a:__ZN15Lz4Decompressor18ValidateBufferSizeEj
sha:__ZN12CachedWriter9InitWriteER15CacheWriterBase
FAg:_m_1103563282_0
IFe:_m_2060291867_0_gshared
BTc:__ZN5physx14PxsAABBManager15createAggregateEPvb
gbc:__ZN13dynamic_arrayI16ForwardShadowMapLj4EE7reserveEj
qV:__ZN6il2cpp2vm7Runtime14DelegateInvokeEP14Il2CppDelegatePPvPP12Il2CppObject
nyf:_m1799348482_0
Pcg:_m_1371819860_0
zpe:_m1842760765_0_gshared
eve:_m72014405_0_gshared
_a:invoke_iiiiifiiiif
H2:__ZN6Camera26ClearIntermediateRenderersEj
WX:_UNITY_png_write_pCAL
rdi:_glLinkProgram__wrapper
J3a:__ZN13OpenFileCache10ForceCloseERKNSt3__112basic_stringIcNS0_11char_traitsIcEENS0_9allocatorIcEEEE
k8b:__ZN6prcoreL12RemapGenericI17TexFormatARGB888815TexFormatBGR888EEvPKNS_9InnerInfoE
iJe:_m2026570507_0
NH:_il2cpp_unity_liveness_calculation_from_root
uNa:__Z20RequiredComponentsOfP14ScriptingClass
Qvc:__ZN5physx7NpShape8requiresERNS_23PxProcessPxBaseCallbackE
bL:__ZN6il2cpp6icalls8mscorlib6System13Globalization11CultureInfo35construct_internal_locale_from_nameEP17Il2CppCultureInfoP12Il2CppString
pxd:__ZNK13Simd4fFactoryIN6detail7IntTypeILi0EEEEcv8Scalar4fEv
b3b:__ZN15SerializeTraitsINSt3__14pairIi7Hash128EEE8TransferI13ProxyTransferEEvRS3_RT_
qFa:__ZN9Transform8TransferI13ProxyTransferEEvRT_
nfd:__ZN5physx2Gu30computeCapsule_TriangleMeshMTDERKNS_22PxTriangleMeshGeometryERKNS_11PxTransformERNS0_8CapsuleVEffbRNS_10PxSweepHitE
Sk:_emscripten_set_main_loop_timing
tJg:_m788736365_0
Qbb:__ZN14DataBufferGLES12RecordRenderEv
W5d:__ZZNK5physx26PxSerializerDefaultAdapterINS_18PxVehicleDriveTankEE18registerReferencesERNS_6PxBaseERNS_22PxSerializationContextEEN16RequiresCallback7processES4_
tQd:__ZNK5physx20SingleAABBUpdateTask7getNameEv
Qxa:__ZN14ImageReference10FlipImageYEv
yC:__ZN4FMOD6System23set3DListenerAttributesEiPK11FMOD_VECTORS3_S3_S3_
BGg:_m_1286059787_0
RB:__ZN4FMOD3DSP9setBypassEb
Y7a:__Z19NormalizeWheelInputf
eBb:__Z29StdTemplateConversionFunctionIsaEbPvR14SafeBinaryRead
LA:__ZN10ObjectPoolIN4FMOD5SoundENS0_6SoundIEE8ValidateEPS1_
dwa:__ZN11MonoManager25GetImageFromAssemblyIndexEi
iOc:__ZN5physx2Sc9ClothCore17addCollisionPlaneERKNS_21PxClothCollisionPlaneE
SO:__ZN6il2cpp2os11Environment17GetProcessorCountEv
c5g:__Z57t1621492670_0_CustomAttributesCacheGenerator_m235879135_0P21CustomAttributesCache
Uhb:__ZN6il2cpp6icalls8mscorlib6SystemL21CollectTypePropertiesINS_5utils10functional10TrueFilterEEEvP8TypeInfojRKT_S8_RNSt3__16vectorINS2_12PropertyPairENS_2gc9AllocatorISE_EEEE
USd:__ZNK5physx13PxHeightField8isKindOfEPKc
D3g:__Z92t_756155572_0_CustomAttributesCacheGenerator_t_756155572_0_m_1788476788_0_Arg3_ParameterInfoP21CustomAttributesCache
pta:__ZN9GfxDevice14ImmediateBeginE16GfxPrimitiveTypePK14ChannelAssigns
tHe:_m419221597_0
Hjh:__Z58t867363288_0_CustomAttributesCacheGenerator_m_1763296833_0P21CustomAttributesCache
AO:__ZN6il2cpp2os6Thread19DetachCurrentThreadEv
zKg:_m149930845_0
eNd:__ZNK5physx15NpActorTemplateINS_15PxParticleFluidEE12getAggregateEv
rDg:_m1648946806_0
yLc:__ZNK5physx2Sc18ParticleSystemCore16getInternalFlagsEv
eIf:_m1570388531_0
Ecc:__ZN19StreamedBinaryWriteILb0EE8TransferI13dynamic_arrayI8Vector3fLj4EEEEvRT_PKc17TransferMetaFlags
X8g:__Z43t921044050_0_CustomAttributesCacheGeneratorP21CustomAttributesCache
k$e:_m_39252506_0
oHh:__Z41RuntimeInvoker_t_19515315_0_t1363074209_0PK10MethodInfoPvPS2_
_Db:__ZL31DeleteLastPathNameComponentImplRKNSt3__112basic_stringIcNS_11char_traitsIcEENS_9allocatorIcEEEEPKc
Dyg:_m_810857501_0
Pke:__ZN16ControllerFilter9preFilterERKN5physx12PxFilterDataEPKNS0_7PxShapeEPKNS0_12PxRigidActorERNS0_7PxFlagsINS0_9PxHitFlag4EnumEtEE
YUc:__ZN16MBPOS_TmpBuffers16allocateSleepingEjj
G0e:_m_1758844558_0
_rb:__ZNSt3__16__treeINS_12__value_typeI18VertexChannelsInfo16MeshVertexFormatEENS_19__map_value_compareIS2_S4_NS_4lessIS2_EELb1EEE13stl_allocatorIS4_L18MemLabelIdentifier15ELi16EEE7destroyEPNS_11__tree_nodeIS4_PvEE
Fjg:_m_1946426782_0
Wsf:_m197914714_0
ove:_m757436355_0_gshared
_kh:__Z44t_487418165_0_CustomAttributesCacheGeneratorP21CustomAttributesCache
rYg:_m_152854606_0_gshared
kac:__ZN21FixedBehaviourManager6UpdateEv
lyb:__ZN13dynamic_arrayI20SerializationCommandLj4EE7reserveEj
Qqh:__Z58t_707416474_0_CustomAttributesCacheGenerator_m_753650397_0P21CustomAttributesCache
tch:__Z45t_1415786497_0_CustomAttributesCacheGeneratorP21CustomAttributesCache
Gng:_m_1986040134_0
Lga:__ZN19RuntimeSceneManager24BeginIntegrateMainThreadEP10UnityScene
Dnc:__ZN5physx14NpArticulation26setExternalDriveIterationsEj
hWd:__ZN16RayRTreeCallbackILi0ELb0EED0Ev
i_c:__ZN5physx20PxsParticleSystemSim23scheduleCollisionUpdateERNS_10PxBaseTaskE
B3:__ZN6Camera16StandaloneRenderEjP6ShaderRKNSt3__112basic_stringIcNS2_11char_traitsIcEENS2_9allocatorIcEEEE
vgb:__GLOBAL__sub_I_ArrayMetadata_cpp
iOb:__ZN15dense_hashtableINSt3__14pairIKNS0_12basic_stringIcNS0_11char_traitsIcEENS0_9allocatorIcEEEES7_EES7_11djb2_hash_tIS7_EN14dense_hash_mapIS7_S7_SB_NS0_8equal_toIS7_EE13stl_allocatorIS9_L18MemLabelIdentifier53ELi16EEE9SelectKeyESE_SH_E14squash_deletedEv
tnh:__Z94t_1571582451_0_CustomAttributesCacheGenerator_t_1571582451_0_m_1960606226_0_Arg0_ParameterInfoP21CustomAttributesCache
R8c:__Z36setPxVehicleDriveDynData_AnalogInputPN5physx21PxVehicleDriveDynDataEjf
xsc:__ZN5physx14NpRigidDynamic29wakeUpInternalNoKinematicTestERNS_3Scb4BodyEbb
fle:__ZN5physx15PxBoxControllerD0Ev
lZ:__ZN19AssetBundleManifest16StaticInitializeEPv
R7:__Z20CalculateLightMatrixRK15SharedLightDataP10Matrix4x4f
W0:__ZN5Unity9Component13RegisterClassEv
J9h:_glBlendEquationSeparate__wrapper
ORd:__ZN5physx19PxAllocatorCallbackD2Ev
K9e:_m385157186_0
BM:__ZN6il2cpp6icalls8mscorlib6System8Security12Cryptography24RNGCryptoServiceProvider13RngInitializeEP11Il2CppArray
kqe:_m_1041552581_0_gshared
fOd:__ZNK5physx15NpActorTemplateINS_16PxParticleSystemEE17getDominanceGroupEv
gcc:__ZN4PPtrI5LightE8TransferI19StreamedBinaryWriteILb0EEEEvRT_
llc:__ZN5physx3Cct26CharacterControllerManager21createObstacleContextEv
TDg:_m_1039133212_0
OIg:_m_185438150_0
TRb:__Z19TransferField_ArrayI18StreamedBinaryReadILb1EE27Converter_SimpleNativeClassI17AnimationCurveTplIfEEEvRK23StaticTransferFieldInfoR31RuntimeSerializationCommandInfoRT0_
Ohe:__ZN5physx15NpActorTemplateINS_15PxParticleFluidEE7releaseEv
pT:__ZN6il2cpp2vm12MarshalAlloc4FreeEPv
s2e:_m553083826_0
Xud:__ZN5physx6shdfnd5ArrayIPNS_2Sc19ShapeInstancePairLLENS0_19ReflectionAllocatorIS4_EEE15growAndPushBackERKS4_
BQa:__ZN9Scripting42GetScriptingWrapperOfComponentOfGameObjectER10GameObjectRKNSt3__112basic_stringIcNS2_11char_traitsIcEENS2_9allocatorIcEEEE
TKa:__ZN30RuntimeInitializeOnLoadManager23VirtualRedirectTransferER18StreamedBinaryReadILb1EE
jha:__ZN12CachedReader4ReadEPvj
ZQd:__ZN5physx21MBPPostUpdateWorkTaskD0Ev
d1g:_m_1214058706_0_gshared
FTc:__ZN5physx14PxsAABBManager19createAggregateElemEv
mMd:__ZNK5physx13PxRigidStatic8isKindOfEPKc
Baa:__Z24CalculateLightShadowFadeRK6CamerafffR8Vector4f
JGb:__ZN19RuntimeSceneManagerD2Ev
vfa:__ZN6prcore17GetIntegerBlitterE13TextureFormatS0_N14ImageReference8BlitModeE
dXc:__ZN5physx10PxsContext20createContactManagerERKNS_24PxvManagerDescRigidRigidEPNS_18PxsMaterialManagerE
qNe:_m_1033396791_0
Vjf:_m1932811376_0
rie:__ZN5physx2Cm12DelegateTaskINS_7NpSceneEXadL_ZNS2_12executeSolveEPNS_10PxBaseTaskEEEED0Ev
VHd:__ZN5physx2GuL18gPCMHullPrefetchCBEjPKNS_6PxVec3E
mHc:__ZN5physx2Sc5Scene31removeActiveBreakableConstraintEPNS0_13ConstraintSimE
h2g:_m_345048208_0_gshared
$0e:_m_134375477_0
O3f:_m1789048485_0
vtd:__ZN5physx6shdfnd5ArrayINS_12PxActorShapeENS0_19ReflectionAllocatorIS2_EEE15growAndPushBackERKS2_
F$a:__ZN25MultiBlocksMemoryFileData17AdjustBlocksCountEj
nwg:_m_1589588859_0
D4f:_m1111063247_0
yda:__ZN17CommonStringTableC2Ev
E6b:__ZN13dynamic_arrayI11ColorRGBA32Lj4EE7reserveEj
K6:__Z37CleanupLightAnimationBindingInterfacev
u3h:__ZNSt3__1L19utf8_to_ucs4_lengthEPKhS1_jmNS_12codecvt_modeE
iqb:__ZN9ShaderLab14ParserGrabPass7AddTagsERKNSt3__13mapIiiNS1_4lessIiEENS1_9allocatorINS1_4pairIKiiEEEEEE
Rcf:_m_932390301_0
fLe:_m2143586463_0
dEc:__ZN5physx2Sc14ConstraintCore8setFlagsENS_7PxFlagsINS_16PxConstraintFlag4EnumEtEE
ln:_glStencilMask
WP:__ZN6il2cpp2os10ThreadImpl16GetCurrentThreadEv
qPc:__ZNK5physx2Sc15ClothFabricCore20getNbParticleIndicesEv
QFa:__ZN15GUIEventManager10QueueEventERK10InputEvent
KWb:__Z16Transfer_BuiltinI5RectTIfE13ProxyTransferLb0EEvRK29SerializationCommandArgumentsR31RuntimeSerializationCommandInfo
vNf:_m_153232203_0
mG:_GC_push_conditional_with_exclusions
bnd:__ZN8Collider23VirtualRedirectTransferER18StreamedBinaryReadILb1EE
TJg:_m141936181_0
r3e:_m1851824850_0
fia:__ZN9ShaderLab9IntShaderC2Ev
Rpe:_m_236433478_0_gshared
PDc:__ZN5physx2Sc7BodySim6wakeUpEv
NFh:__Z41RuntimeInvoker_t_19515315_0_t_725341337_0PK10MethodInfoPvPS2_
uJh:__Z55RuntimeInvoker_t_19515315_0_t_215297020_0_t_215297020_0PK10MethodInfoPvPS2_
nAd:__ZN5physx6shdfnd8PoolBaseINS_2Gu30LargePersistentContactManifoldENS0_19ReflectionAllocatorIS3_EEE17releaseEmptySlabsEv
wEc:__ZN5physx2Sc21ConstraintInteraction7destroyEv
MGe:_m_108514817_0_gshared
mDg:_m927697317_0
iRd:__ZN5physx13PxsSolverCoreD2Ev
INh:__ZN23InterfaceActionInvoker4IiibP13t_201520826_0E6InvokeEjP8TypeInfoPviibS1_
dWb:__ZN14SafeBinaryRead21TransferSTLStyleArrayINSt3__16vectorIj13stl_allocatorIjL18MemLabelIdentifier1ELi16EEEEEEvRT_17TransferMetaFlags
sK:__ZN6il2cpp6icalls8mscorlib6System8MonoType16GetMethodsByNameEP20Il2CppReflectionTypeP12Il2CppStringibS5_
mDh:__Z98RuntimeInvoker_t_224166001_0_t1628762099_0_t1628762099_0_t1628762099_0_t1628762099_0_t1628762099_0PK10MethodInfoPvPS2_
eMa:__ZN9Coroutine3RunEv
X1g:_m_220652690_0_gshared
WIa:__ZN5Cache17ReadCacheInfoFileERKNSt3__112basic_stringIcNS0_11char_traitsIcEENS0_9allocatorIcEEEEPlS9_
Ytc:__ZNK5physx7NpScene16getNbConstraintsEv
YGh:__Z40RuntimeInvoker_t_19515315_0_t742775054_0PK10MethodInfoPvPS2_
W$d:__ZN5physx2Sn21RepXVisitorWriterBaseINS_22PxVehicleWheelsSimDataEE23extendedIndexedPropertyINS_3Pvd36PxPvdExtendedIndexedPropertyAccessorILj610ES2_KjNS_23PxVehicleSuspensionDataEEEKNS_36PxVehicleSuspensionDataGeneratedInfoEEEvPjRKT_RT0_
zAc:__ZN5physx7NpCloth14setWakeCounterEf
Xub:__ZN4PPtrI10GameObjectE8TransferI14SafeBinaryReadEEvRT_
X7e:_m1503065567_0
x8g:__Z59t_2130369341_0_CustomAttributesCacheGenerator_m_552738583_0P21CustomAttributesCache
mPh:__ZN18VirtActionInvoker1IP12t746228406_0E6InvokeEjPvS1_
b_d:__ZN5physx7profile11EventBufferINS_24PxDefaultContextProviderENS_6shdfnd6MutexTINS0_26WrapperReflectionAllocatorIhEEEENS0_14ScopedLockImplIS7_EENS_24PxProfileNullEventFilterEE17doAddProfileEventINS0_10StartEventEEEvtRKT_
yeg:_m347429559_0
a7g:__Z67t1798929758_0_CustomAttributesCacheGenerator_U3CU3Ef__switchU24map3P21CustomAttributesCache
j6c:__ZN5physx43PxVehicleDrivableSurfaceToTireFrictionPairs5setupEjjPPKNS_10PxMaterialEPKNS_28PxVehicleDrivableSurfaceTypeE
Iec:__ZN12ImmediatePtrIN5Unity9ComponentEE8TransferI13ProxyTransferEEvRT_
y8c:__Z46setPxVehicleWheelsSimData_SceneQueryFilterDataPN5physx22PxVehicleWheelsSimDataEjNS_12PxFilterDataE
S5b:__ZN10BlendShape8TransferI19StreamedBinaryWriteILb0EEEEvRT_
ngh:__Z43t453909881_0_CustomAttributesCacheGeneratorP21CustomAttributesCache
xzb:__ZL4WalkRK16TypeTreeIteratorR12CachedReaderPib
Pce:__ZThn4_NK5physx5cloth9ClothImplINS0_7SwClothEE28getTetherConstraintStiffnessEv
rjd:__ZNK5physx2Gu11HeightField17getReferenceCountEv
E8a:__Z19GetTimeSinceStartupv
lTf:_m955278002_0
hCa:__ZN7Texture23VirtualRedirectTransferER17RemapPPtrTransfer
Mth:__Z98RuntimeInvoker_t_224166001_0_t_887538054_0_t1628762099_0_t_887538054_0_t1628762099_0_t1628762099_0PK10MethodInfoPvPS2_
Vt:__ZN9AudioClip22GetFormatFromExtensionERKNSt3__112basic_stringIcNS0_11char_traitsIcEENS0_9allocatorIcEEEE
QP:__ZN6il2cpp2os10ThreadImpl11SetPriorityENS0_14ThreadPriorityE
yvg:_m1327881011_0
$Ha:__Z33MultiplyMatrixArrayWithBase4x4REFPK10Matrix4x4fS1_S1_PS_j
sNg:_m581941947_0
Vhf:_m_748061630_0
$Tf:_m_1369786513_0
Inb:__ZN4PPtrI8MaterialE8TransferI19StreamedBinaryWriteILb0EEEEvRT_
JKh:__ZL5UnBoxP13t_887538054_0P8TypeInfo
nmc:__ZNK5physx27PxClothGeodesicTetherCooker15getCookerStatusEv
FAf:_m910233845_0
bbf:_m1740410205_0
Ykh:__Z44t_914869145_0_CustomAttributesCacheGeneratorP21CustomAttributesCache
nde:__ZThn4_NK5physx5cloth9ClothImplINS0_7SwClothEE20getSleepTestIntervalEv
Ngc:__ZN6il2cpp2os11MutexHandle4WaitEj
$yd:__ZN5physx6shdfnd5ArrayINS_5cloth8SwSolver22CpuClothSimulationTaskENS0_9AllocatorEE15growAndPushBackERKS4_
kYf:_m778676102_0
p9b:__ZN6prcoreL17RemapGenericFloatI15TexFormatRGHalf18TexFormatARGBFloatEEvPKNS_9InnerInfoE
xkh:__Z44t1833817028_0_CustomAttributesCacheGeneratorP21CustomAttributesCache
QJb:__ZNK13RenderTexture13GetDataHeightEv
y9:__ZN13RenderManager23AddRemoveCamerasDelayedEv
YX:_UNITY_png_write_pHYs
AFb:__ZN23PreloadManagerOperation11GetPriorityEv
mr:__ZN4PPtrI6ObjectE8TransferI13ProxyTransferEEvRT_
l9g:__Z43t925572468_0_CustomAttributesCacheGeneratorP21CustomAttributesCache
hx:__ZN5audio5mixer25FindAudioEffectDefinitionERKNS0_18AudioMixerConstantEj
tnd:__ZNK5Unity5Joint16GetCurrentForcesER8Vector3fS2_
KAg:_m_670569027_0
b8c:__Z35getPxVehicleWheelsSimData_WheelDataPKN5physx22PxVehicleWheelsSimDataEj
KAa:__ZN13RenderTexture8SetWidthEi
Mbd:__ZN5physx9PxTaskMgr12dispatchTaskEmb
IHb:__ZN10MeshFilterD0Ev
ALf:_m_1699720545_0
K0e:_m_60566915_0
_Ee:_m700889072_0_gshared
vsf:_m_183777321_0
Gqc:__ZNK5physx9NpFactory11getNbShapesEv
cFa:__ZNK9Transform14TransformPointERK8Vector3f
Xha:__ZN9ShaderLab16FastPropertyName4InitEPKc
Shg:_m_1646483175_0
Zhf:_m423373689_0
kVf:_m_732033682_0
SU:__ZN6il2cpp2vm14PlatformInvoke18MarshalStringArrayEP11Il2CppArrayPPc
OTh:__ZNSt8bad_castD2Ev
E0h:__ZNSt3__15ctypeIcE21__classic_lower_tableEv
Fqa:__ZN10VertexData8TransferI17RemapPPtrTransferEEvRT_
MAa:__ZN13RenderTexture9SetMipMapEb
nFh:__Z84RuntimeInvoker_t_224166001_0_t_887538054_0_t1628762099_0_t_887538054_0_t_887538054_0PK10MethodInfoPvPS2_
aVb:__ZL26Transfer_SimpleNativeClassI14SafeBinaryRead8GUIStyleLb1EEvRK29SerializationCommandArgumentsR31RuntimeSerializationCommandInfo
EPc:__ZN5physx2Sc10ClothShape21updateBoundsInAABBMgrEv
CVg:_m_116870150_0
iS:__ZN6il2cpp2vm9Exception20GetTypeLoadExceptionEv
z8c:__Z44setPxVehicleWheelsSimData_TireLoadFilterDataPN5physx22PxVehicleWheelsSimDataERKNS_27PxVehicleTireLoadFilterDataE
T8c:__Z31getPxVehicleDriveDynData_GearUpPKN5physx21PxVehicleDriveDynDataE
$jb:__ZN6Object31FindObjectsOfTypeImplementationI19InstanceIDCollectorEEv11ClassIDTypeT_
uab:__ZN7ApiGLES19UploadBufferSubDataEjN2gl12BufferTargetEllPKv
AGc:__ZN5physx2Sc5Scene17createClothSolverEv
vTh:__ZdaPv
TZc:__ZNK5physx15PxsParticleData16getMaxParticlesVEv
$Gf:_m_941728310_0
Zof:_m1923672677_0
cC:__ZN4FMOD5Sound12getOpenStateEP14FMOD_OPENSTATEPjPbS4_
uZd:__ZThn116_N5physx7profile8ZoneImplINS_28PxProfileNameProviderForwardEE12removeClientERNS_19PxProfileZoneClientE
BYf:_m1164505443_0
kVc:__ZN15MBP_PairManager17removeMarkedPairsEPK10MBP_ObjectPN5physx16PxsBroadPhaseMBPERK8BitArrayS8_
qXg:_m826786503_0_gshared
nwh:__Z183RuntimeInvoker_t1628762099_0_t_887538054_0_t1628762099_0_t1628762099_0_t_887538054_0_t1628762099_0_t1628762099_0_t_604974727_0_t_604974727_0_t1636693376_0_t1636693376_0_t_2018974131_0PK10MethodInfoPvPS2_
qNh:__ZN18VirtActionInvoker1IP13t1621492670_0E6InvokeEjPvS1_
UVb:__Z19TransferField_ArrayI14SafeBinaryRead27Converter_SimpleNativeClassI8GUIStyleEEvRK23StaticTransferFieldInfoR31RuntimeSerializationCommandInfoRT0_
bwd:__ZN5physx6shdfnd5ArrayIPNS_2Sc9ClothCoreENS0_19ReflectionAllocatorIS4_EEE15growAndPushBackERKS4_
vhf:_m1419556996_0
lQ:__ZN6il2cpp5utils10MemoryPoolC2Ej
kQ:__ZN6il2cpp5utils10MemoryPoolC2Ev
a$:__ZN11GameManager13RegisterClassEv
S9:__ZN14RenderSettings5ResetEv
Xrc:__ZN5physx9NpPhysics33unregisterDeletionListenerObjectsERNS_18PxDeletionListenerEPKPKNS_6PxBaseEj
pOc:__ZNK5physx2Sc9ClothCore22getAngularInertiaScaleEv
qqh:__Z56t783301024_0_CustomAttributesCacheGenerator_m299691900_0P21CustomAttributesCache
xKd:__ZN5physx20NpRigidActorTemplateINS_18PxArticulationLinkEE12setActorFlagENS_11PxActorFlag4EnumEb
PPf:_m661855675_0
OZb:__Z16Transfer_BuiltinIf18StreamedBinaryReadILb0EELb0EEvRK29SerializationCommandArgumentsR31RuntimeSerializationCommandInfo
jkg:_m_155539277_0
aNf:_m427241453_0
pue:_m_500328897_0_gshared
KP:__ZN6il2cpp2os10ThreadImplD2Ev
$oe:_m1585251629_0_gshared
FKg:_m677875698_0
Hla:__ZNK12TLSAllocatorI14StackAllocatorE22GetAllocatedMemorySizeEv
UYe:_m_1251085596_0
CJa:__Z32GetSceneHierarchyPathDescriptivePK6Object
TLb:__ZN12HandlerChain4NameEv
kAf:_m_864928962_0
Mn:FUNCTION_TABLE_fiiiiiifiiiiiif
PCh:__Z28RuntimeInvoker_t1033348745_0PK10MethodInfoPvPS2_
T_c:__ZN5physx37setupFinalizeSolverConstraintsCoulombERNS_13PxcNpWorkUnitERKNS_2Gu13ContactBufferERKNS_27PxcCorrelationBufferCoulombERKNS_11PxTransformESB_bPhRKNS_13PxcSolverBodyESF_RKNS_17PxcSolverBodyDataESI_ffjffff
jD:__ZN12AudioManager8TransferI18StreamedBinaryReadILb1EEEEvRT_
GBb:__Z29StdTemplateConversionFunctionIbbEbPvR14SafeBinaryRead
pgb:__ZN14UnityWebStream24UpdateAllUnityWebStreamsEv
BZf:_m_520493460_0
dqe:_m642251926_0_gshared
u_h:__ZNSt3__18time_putIcNS_19ostreambuf_iteratorIcNS_11char_traitsIcEEEEED2Ev
kGc:__ZN5physx2Sc8RigidSimD2Ev
v0a:__Z12SetFileFlagsRKNSt3__112basic_stringIcNS_11char_traitsIcEENS_9allocatorIcEEEEjj
qSb:__ZNSt3__16vectorI10Matrix4x4f13stl_allocatorIS1_L18MemLabelIdentifier1ELi16EEE8__appendEj
iWc:__ZN5physx31ComputeCreatedDeletedPairsListsEPKjS1_jRPNS_17PxcBroadPhasePairERjS5_S4_S5_S5_RNS_14SapPairManagerE
kLb:__ZN18LoadSceneOperation21MustCompleteNextFrameEv
Kv:__ZNK12AudioManager16GetAudioListenerEv
Onh:__Z58t212748479_0_CustomAttributesCacheGenerator_m_2033635768_0P21CustomAttributesCache
akd:__ZN5physx2Gu16pcmContactBoxBoxERKNS0_13GeometryUnionES3_RKNS_11PxTransformES6_RKfRNS0_5CacheERNS0_13ContactBufferE
evg:_m1612088406_0
Mpf:_m435718588_0
Y9h:_glDeleteVertexArrays__wrapper
iih:__Z58t867363288_0_CustomAttributesCacheGenerator_m_1551444419_0P21CustomAttributesCache
JMg:_m_2017530632_0
GWa:__Z13GetFileSystemv
cag:_m_1632303351_0
ppa:__ZN10MeshFilter23VirtualRedirectTransferER13ProxyTransfer
K6b:__ZN14SafeBinaryRead8TransferIfEEvRT_PKc17TransferMetaFlags
bua:__ZN16GeometryJobTasksC2Ev
AZb:__ZL12InvokeMethodI18StreamedBinaryReadILb0EEEvRK29SerializationCommandArgumentsR31RuntimeSerializationCommandInfo
Pyf:_m_475627079_0
_Td:__ZN15RaycastCallback14processTouchesEPKN5physx12PxRaycastHitEj
G7g:__Z58t_2004451924_0_CustomAttributesCacheGenerator_m880032671_0P21CustomAttributesCache
eVf:_m_963116190_0
Sde:__ZN13Simd4fFactoryIPKfEC2ES1_
o3e:_m1834548415_0
XRh:__ZL9CastclassP13t_887538054_0P8TypeInfo1772
Oid:__ZN5physx2Gu5RTree15exportExtraDataERNS_22PxSerializationContextE
nMg:_m780384966_0
qJb:__ZNK9GfxDevice14IsPureThreadedEv
jeg:_m_1236151490_0
jif:_m_1499372675_0
NSg:_m_672812102_0
iEa:__Z29GetTextureSizeAllowedMultiple13TextureFormat
a7:__ZN21LightProbeProxyVolume10UpdateAABBEv
u3c:__ZNK5physx2Sq10AABBPruner7overlapERKNS0_9ShapeDataERNS0_14PrunerCallbackE
naa:__ZN14RenderSettings23VirtualRedirectTransferER18StreamedBinaryReadILb1EE
k9d:__ZN5physx6shdfnd5ArrayIPvNS0_19ReflectionAllocatorINS_2Gu30LargePersistentContactManifoldEEEE4copyINS0_15InlineAllocatorILj256ES6_EEEEvRKNS1_IS2_T_EE
Gah:__Z44t_334867138_0_CustomAttributesCacheGeneratorP21CustomAttributesCache
ixc:__ZNK5physx13NpVolumeCache7raycastERKNS_6PxVec3ES3_fRNS_13PxHitCallbackINS_12PxRaycastHitEEENS_7PxFlagsINS_9PxHitFlag4EnumEtEERKNS_17PxQueryFilterDataEPNS_21PxQueryFilterCallbackE
rJe:_m_2063559101_0
EKh:__ZN16VirtFuncInvoker0IP13t_887538054_0E6InvokeEjPv
yg:_glCheckFramebufferStatus
Dre:_m_918073621_0_gshared
CMf:_m_1573852513_0
bkb:__ZNSt3__16__sortIR17CompareInstanceIDPP6ObjectEEvT0_S6_T_
lfe:__ZN5physx2Cm12DelegateTaskINS_2Sc5SceneEXadL_ZNS3_19updateCCDSinglePassEPNS_10PxBaseTaskEEEE11runInternalEv
Isd:__ZN5physx3Scb4Body17switchBodyToNoSimEv
Kz:__ZN4FMOD4DSPI7releaseEv
z_d:__ZThn8_N5physx19TriangleMeshBuilderD1Ev
PVa:__ZN19ShaderPropertySheet17UpdateTextureInfoERNS_15TexturePropertyERKN9ShaderLab16FastPropertyNameEP7Textureb
nWh:__ZNSt3__112basic_stringIcNS_11char_traitsIcEENS_9allocatorIcEEE6appendEjc
Thd:__ZN5physx2Gu16intersectRayAABBERKNS_6PxVec3ES3_S3_S3_RfS4_
kFa:__ZN9Transform23VirtualRedirectTransferER17RemapPPtrTransfer
ZNg:_m_46981898_0
dSb:__ZNSt3__16vectorI11ColorRGBA3213stl_allocatorIS1_L18MemLabelIdentifier1ELi16EEE6assignINS_11__wrap_iterIPS1_EEEENS_9enable_ifIXaasr21__is_forward_iteratorIT_EE5valuesr16is_constructibleIS1_NS_15iterator_traitsISB_E9referenceEEE5valueEvE4typeESB_SB_
jRb:__Z22Transfer_Builtin_AlignIt18StreamedBinaryReadILb1EELb1EEvRK29SerializationCommandArgumentsR31RuntimeSerializationCommandInfo
Rog:_m_1012290299_0
l3d:__ZN5physx2Sn21RepXVisitorReaderBaseINS_19PxVehicleEngineDataEE12readPropertyIfEEbRT_
Q_c:__ZN5physx30setupFinalizeSolverConstraintsERNS_13PxcNpWorkUnitERKNS_2Gu13ContactBufferERKNS_20PxcCorrelationBufferERKNS_11PxTransformESB_bPhRKNS_13PxcSolverBodyESF_RKNS_17PxcSolverBodyDataESI_ffffff
jSb:__Z19TransferField_ArrayI18StreamedBinaryReadILb1EE19Converter_PrimitiveI4AABBEEvRK23StaticTransferFieldInfoR31RuntimeSerializationCommandInfoRT0_
zRg:_m1771268559_0
Bvc:__ZN5physx7NpScene17releaseBatchQueryEPNS_12PxBatchQueryE
jgg:_m_1915937927_0
CMd:__ZN5physx20NpRigidActorTemplateINS_13PxRigidStaticEE11attachShapeERNS_7PxShapeE
hWg:_m_1678178936_0_gshared
U_c:__ZN5physx26solveVBlockDefaultFrictionEPNS_13PxsSolverCoreEfjjPNS_13PxcSolverBodyEPNS_17PxcSolverBodyDataEjjPNS_25PxcArticulationSolverDescEjPNS_23PxcSolverConstraintDescEjS9_jRNS_6shdfnd5ArrayINS_24PxsConstraintBatchHeaderENSA_19ReflectionAllocatorISC_EEEESG_PNS_2Cm13SpatialVectorEPNS_25PxcThresholdStreamElementEjRj
_je:__ZN5physx15NpActorTemplateINS_18PxArticulationLinkEE17resolveReferencesERNS_24PxDeserializationContextE
Lzb:__ZN8Remapper6RemoveEi
Rrd:__ZN5physx19NpRigidBodyTemplateINS_18PxArticulationLinkEE9visualizeERNS_2Cm12RenderOutputEPNS_7NpSceneE
l$c:__ZN5physx11writeBack1DERKNS_23PxcSolverConstraintDescERNS_16PxcSolverContextERNS_17PxcSolverBodyDataES6_
R1b:__ZN15SerializeTraitsINSt3__14pairI8UnityStr4PPtrI6ObjectEEEE8TransferI14SafeBinaryReadEEvRS6_RT_
lWd:__ZThn4_N16RayRTreeCallbackILi0ELb0EED0Ev
w8:__ZN15ReflectionProbe17UseRendererResultEP13ProbeRenderer
WEe:_m1742566068_0_gshared
j2g:_m_1841451723_0_gshared
ZWf:_m1880666088_0
mQh:__ZN16VirtFuncInvoker0IdE6InvokeEjPv
Q6a:__Z40GameObject_CUSTOM_GetComponentInChildrenP15ScriptingObjectS0_h
fnf:_m1536231424_0
jag:_m1023389183_0
Aog:_m523012725_0
Qfd:__ZN5physx2Gu17GetGeomSweepFuncsEv
bBd:__ZN5physx6shdfnd8PoolBaseINS_15PxsArticulationENS0_16AlignedAllocatorILj64ENS0_9AllocatorEEEE17releaseEmptySlabsEv
pBe:_m_886467511_0_gshared
dag:_m1160867688_0
pSb:__ZNSt3__16vectorI10Matrix4x4f13stl_allocatorIS1_L18MemLabelIdentifier1ELi16EEE6assignINS_11__wrap_iterIPS1_EEEENS_9enable_ifIXaasr21__is_forward_iteratorIT_EE5valuesr16is_constructibleIS1_NS_15iterator_traitsISB_E9referenceEEE5valueEvE4typeESB_SB_
RNd:__ZN5physx22NpParticleBaseTemplateINS_15PxParticleFluidENS_15NpParticleFluidEE23setParticleReadDataFlagENS_22PxParticleReadDataFlag4EnumEb
hBe:_m_1263906925_0_gshared
y4a:__Z36AsyncOperation_Get_Custom_PropIsDoneP15ScriptingObject
Ulb:__ZN16GraphicsSettings8TransferI17RemapPPtrTransferEEvRT_
cxe:_m_2132623119_0_gshared
EI:__Z20il2cpp_gc_free_fixedPv
Dxh:__Z70RuntimeInvoker_t_224166001_0_t_887538054_0_t1636693376_0_t1636693376_0PK10MethodInfoPvPS2_
Gua:__Z28scripting_method_is_instance21ScriptingMethodIl2Cpp
IEf:_m_2079365865_0
QOg:_m2044082711_0
tdd:__ZN5physx2Gu5Debug9visualizeERKNS_13PxBoxGeometryERNS_2Cm12RenderOutputERKNS5_8Matrix34ERKNS_9PxBounds3Eyfj
T6g:__Z45t_1647744885_0_CustomAttributesCacheGeneratorP21CustomAttributesCache
tdb:__ZNK13GfxDeviceGLES12GetWireframeEv
Zcg:_m_1121611917_0
BRh:__ZL15CastclassSealedP13t_887538054_0P8TypeInfo1042
Uqd:__ZN5physx6shdfnd5ArrayIPKvNS0_19ReflectionAllocatorIS3_EEE6resizeEjRKS3_
r8d:__ZN5physx21PxsFluidCollisionTaskD0Ev
Cy:__ZN4FMOD7SystemI28GetSystemFromNonSystemHandleEPv
Oue:_m2083407400_0_gshared
Lsa:__ZN9GfxDevice18AllocRenderSurfaceEb
b6c:__ZN5physx23PxVehicleWheels4SimData11setTireDataEjRKNS_17PxVehicleTireDataE
R_c:__ZN5physx31setupFinalizeSolverConstraints4EPNS_21PxcSolverContact4DescERNS_18PxcNpThreadContextEPhffRKNS_6shdfnd3aos5Vec4VES9_S9_S9_
KMd:__ZN5physx7NpScene5flushEb
$Db:__ZNSt3__16__sortIRNS_6__lessI15OrderedCallbackS2_EEPS2_EEvT0_S6_T_
Bac:__ZN29DepthOrReplacementPassScratch15ThreadedCleanupEv
lRf:_m2131971349_0
Iwh:__Z70RuntimeInvoker_t_224166001_0_t1636693376_0_t271175457_0_t_1047982445_0PK10MethodInfoPvPS2_
Hdd:__ZN5physx2Gu13GeometryUnion3setERKNS_10PxGeometryE
uDe:_m1557103914_0_gshared
TJh:__Z26RuntimeInvoker_t_8263783_0PK10MethodInfoPvPS2_
kEd:__Z43setPxVehicleSuspensionDataMSpringDamperRatePN5physx23PxVehicleSuspensionDataEf
zmg:_m464051452_0
D3f:_m_657509551_0
akb:__ZN6Object31FindObjectsOfTypeImplementationI15ObjectCollectorEEv11ClassIDTypeT_
VWe:_m1090214203_0
FGe:_m_1896373580_0_gshared
JSa:__ZN17PersistentManager26GetStreamNameSpaceInternalEi
sAh:__Z112RuntimeInvoker_t1628762099_0_t_887538054_0_t1628762099_0_t1628762099_0_t_887538054_0_t1628762099_0_t_373034138_0PK10MethodInfoPvPS2_
CC:__ZN4FMOD6System11createSoundEPKcjP22FMOD_CREATESOUNDEXINFOPPNS_5SoundE
$yb:__ZL27GetComponentsImplementationILb0ELi3EEbR10GameObjectbRK17CompareParametersRK39GetComponentsImplementation_ReturnValue
mvg:_m870580644_0
Hzg:_m491962295_0
Ova:__Z28scripting_array_element_sizeP14ScriptingClass
P$e:_m2068483208_0
afc:__ZNSt3__118__insertion_sort_3IRN18AssetBundleManager27SortPreloadDataByIdentifierEPNS1_11PreloadDataEEEvT0_S6_T_
T6e:_m1250623225_0
FW:__ZN6il2cpp2vm4Type14IsSystemDBNullEPK10Il2CppType
OZd:__ZThn128_N5physx7profile8ZoneImplINS_28PxProfileNameProviderForwardEED1Ev
Tha:__ZN9ShaderLab19CommonPropertyNames13StaticCleanupEPv
thd:__ZN5physx2Gu25closestPtPointTetrahedronEPNS_6shdfnd3aos5Vec3VES4_S4_PiS5_RKS3_S7_S7_RjRS3_S9_
O3c:__ZN5physx2Sq17AABBTreeUpdateMap10invalidateEjjRNS0_8AABBTreeE
GTb:__Z14resize_trimmedINSt3__16vectorIh13stl_allocatorIhL18MemLabelIdentifier1ELi16EEEEEvRT_j
KGf:_m_526199021_0
B8h:_glStencilOpSeparate__wrapper
SBa:__ZN7Texture13SetAnisoLimitENS_20AnisotropicFilteringE
t1a:__Z18CreateDecompressor15CompressionType18MemLabelIdentifier
YD:__ZN11AudioModule16SetListenerPauseEb
Ei:_emscripten_glCompressedTexSubImage2D
beb:__ZN13GfxDeviceGLES22MemoryBarrierImmediateEyN2gl17MemoryBarrierTypeE
Jm:_abort
D9b:__ZN6prcoreL26RemapGenericFloatToIntegerI18TexFormatARGBFloat17TexFormatARGB8888EEvPKNS_9InnerInfoE
fte:_m1348796351_0_gshared
_5d:__ZNK5physx26PxSerializerDefaultAdapterINS_16PxVehicleDrive4WEE15exportExtraDataERNS_6PxBaseERNS_22PxSerializationContextE
w_:__ZN6Object27GetOffsetOfInstanceIdMemberEv
afd:__ZN5physx15writeWordBufferEPKtjbRNS_14PxOutputStreamE
jGg:_m_595765177_0
yI:__Z26il2cpp_gc_weak_link_removePPv
zgg:_m84902190_0
JQd:__ZN5physx16PxBroadPhaseBase12removeRegionEj
Emg:_m_262133738_0
OCb:__ZN13dynamic_arrayIN9ShaderLab16FastPropertyNameELj4EE6insertEPS1_PKS1_S5_
oyf:_m244209261_0
fud:__ZN5physx2Sc7BodySim37checkSleepReadinessBesidesWakeCounterEv
ZLe:_m1008796181_0
dhc:__ZNSt3__16__treeINS_12__value_typeI9TextureID21SparseTextureInfoGLESEENS_19__map_value_compareIS2_S4_NS_4lessIS2_EELb1EEENS_9allocatorIS4_EEE7destroyEPNS_11__tree_nodeIS4_PvEE
Zec:__ZNSt3__17__sort3IRN18AssetBundleManager27SortPreloadDataByIdentifierEPNS1_11PreloadDataEEEjT0_S6_S6_T_
e7c:__ZN5physx22PxVehicleWheelsSimData21setTireLoadFilterDataERKNS_27PxVehicleTireLoadFilterDataE
wvb:__ZL21SetAnisoLimitEnumImplN7Texture20AnisotropicFilteringEb
RBc:__ZN5physx2Sc16ArticulationCore14setWakeCounterEf
BFc:__ZN5physx2Sc10NPhaseCore24createTriggerInteractionERNS0_8ShapeSimES3_NS_7PxFlagsINS_10PxPairFlag4EnumEtEE
k1:__Z21GetManagerFromContexti
qmd:__ZN5Unity5Cloth22ReadBackSkinnedBuffersEv
idd:__ZN5physx2Gu9ContainerD2Ev
Xia:__ZN9ShaderLab11ShaderState16ApplyShaderStateEjPK19ShaderPropertySheetRK17ShaderPassContextP6ShaderPNS_4PassE
dgd:__ZN5physx2Gu12selectNormalEhff
Zzh:__Z56RuntimeInvoker_t_224166001_0_t_887538054_0_t_766435453_0PK10MethodInfoPvPS2_
xK:__ZN6il2cpp6icalls8mscorlib6System8MonoType16InternalGetEventEP20Il2CppReflectionTypeP12Il2CppStringi
Ibe:__ZNK5physx5cloth9ClothImplINS0_7SwClothEE20getSleepTestIntervalEv
_Jg:_m_618120474_0
bNh:__ZN18VirtActionInvoker2IP13t_756155572_0S1_E6InvokeEjPvS1_S1_
Pxc:__ZN5physx3Scb14ParticleSystem16releaseParticlesEjRKNS_16PxStrideIteratorIKjEE
IVa:__ZN19ShaderPropertySheet11ComputeHashEv
bDb:__ZN13dynamic_arrayIbLj1EE7reserveEj
Zq:__ZN4PPtrI6ObjectE8TransferI18StreamedBinaryReadILb1EEEEvRT_
$tb:__Z19GenerateCubeTextureIhPFvPh8Vector3fEEvP7CubemapRKT0_
Jod:__ZN14PhysicsManager12UpdateClothsEv
G8g:__Z58t_920211631_0_CustomAttributesCacheGenerator_m_180818295_0P21CustomAttributesCache
$Rc:__ZThn4_N5physx5cloth9SwFactory11createClothENS0_5RangeIKNS_6PxVec4EEERNS0_6FabricE
RCf:_m_1390304094_0
xod:__ZThn28_N14PhysicsManager7onSleepEPPN5physx7PxActorEj
XZc:__ZN5physx16PxsParticleShape4initEPNS_20PxsParticleSystemSimEPKNS_15PxsParticleCellE
R0c:__ZN5physx22PxcContactConvexConvexERKNS_2Gu13GeometryUnionES3_RKNS_11PxTransformES6_RKfRNS_10PxcNpCacheERNS0_13ContactBufferE
_if:_m_1312074995_0
dof:_m1270736309_0
sQb:__ZL29CanTransferTypeAsNestedObjectI18TransferField_InfoEbRKT_
_Lc:__ZNK5physx2Sc17ParticleSystemSim7getCoreEv
bRa:__ZN14SafeBinaryReadD2Ev
RLf:_m1937985856_0
kLc:__ZN5physx2Sc18ParticleSystemCore10setDampingEf
$ne:_m_578419059_0_gshared
UBe:_m_357453503_0_gshared
PRb:__Z14resize_trimmedINSt3__16vectorI11GradientNEW13stl_allocatorIS2_L18MemLabelIdentifier1ELi16EEEEEvRT_j
C4d:__ZN5physx18RepXPropertyFilterINS_2Sn17RepXVisitorWriterINS_27PxVehicleDifferential4WDataEEEEclILj544ES3_NS3_4EnumES7_EEvRKNS_14PxPropertyInfoIXT_ET0_T1_T2_EEj
PHa:__ZN10Matrix4x4f14SetPerspectiveEffffff
Ceg:_m_569966456_0
EFc:__ZN5physx2Sc10NPhaseCore16deleteFilterPairEPNS0_10FilterPairE
hAe:_m_1846949550_0_gshared
USf:_m_654925428_0
ak:_SDL_PauseAudio
rH:_il2cpp_class_from_type
bP:__ZN6il2cpp2os4File11GetStdErrorEv
hFd:__ZN5physx23SetMFrictionVsSlipGraphEPNS_17PxVehicleTireDataEjjf
lHc:__ZN5physx2Sc5Scene28addActiveBreakableConstraintEPNS0_13ConstraintSimE
Sha:__ZN9ShaderLab19CommonPropertyNames16StaticInitializeEPv
Sr:__ZN25RuntimeAnimatorController16StaticInitializeEPv
cge:__ZN5physx2Cm12DelegateTaskINS_2Sc5SceneEXadL_ZNS3_13postIslandGenEPNS_10PxBaseTaskEEEE11runInternalEv
Eka:__ZN13MemoryManager31DisallowAllocationsOnThisThreadEv
aob:__ZNSt3__16__sortIR15ReflProbeSorterPP15ReflectionProbeEEvT0_S6_T_
f_d:__ZN5physx7profile11EventBufferINS_24PxDefaultContextProviderENS_6shdfnd6MutexTINS0_26WrapperReflectionAllocatorIhEEEENS0_14ScopedLockImplIS7_EENS_24PxProfileNullEventFilterEE10eventValueEtyx
xQb:__Z22Transfer_Builtin_AlignIs18StreamedBinaryReadILb1EELb0EEvRK29SerializationCommandArgumentsR31RuntimeSerializationCommandInfo
H$h:__ZNSt3__111__money_getIwE13__gather_infoEbRKNS_6localeERNS_10money_base7patternERwS8_RNS_12basic_stringIcNS_11char_traitsIcEENS_9allocatorIcEEEERNS9_IwNSA_IwEENSC_IwEEEESJ_SJ_Ri
QLe:_m120457372_0
Xcd:__ZN5physx2Gu11getBoxEdgesEv
LNe:_m_270029945_0
DDa:__ZN14Texture2DArray23VirtualRedirectTransferER14SafeBinaryRead
v3:__ZNK6Camera21CalculateCanDoShadowsEv
FGc:__ZNK5physx2Sc5Scene17getBroadPhaseCapsERNS_16PxBroadPhaseCapsE
sqc:__ZN5physx9NpFactory14onActorReleaseEPNS_7PxActorE
tO:__ZN6il2cpp2os6Thread12SetStackSizeEj
Zyg:_m574453359_0
Hzf:_m_1679466983_0
IMc:__ZN5physx2Sc5Actor15onElementAttachERNS0_7ElementE
dea:__Z23RegisterClass_Behaviourv
n_a:__ZNK20ArchiveStorageReader15HasStreamBlocksEv
zug:_m_1719821490_0
iSb:__ZNSt3__16vectorI10ColorRGBAf13stl_allocatorIS1_L18MemLabelIdentifier1ELi16EEE8__appendEj
uLc:__ZN5physx2Sc18ParticleSystemCore23setSimulationFilterDataERKNS_12PxFilterDataE
CRg:_m_1031983542_0
_ze:_m_2052535227_0_gshared
V9g:__Z44t_932224957_0_CustomAttributesCacheGeneratorP21CustomAttributesCache
arg:_m_1206516417_0
gRf:_m346689243_0
jlh:__Z48g_System_Assembly_CustomAttributesCacheGeneratorP21CustomAttributesCache
Jdh:__Z45t_1114752962_0_CustomAttributesCacheGeneratorP21CustomAttributesCache
nCd:__ZN5physx6shdfnd8internal8HashBaseINS0_4PairIKNS_2Sq13PrunerPayloadEjEES5_NS0_4HashIS5_EENS1_11HashMapBaseIS5_jS9_NS0_9AllocatorEE6GetKeyESB_Lb1EE15reserveInternalEj
k_f:_m1118374853_0
bwe:_m1735201994_0_gshared
m1g:_m881861961_0_gshared
Wxf:_m_1860368580_0
Hxa:__Z14PadImageBorderR14ImageReferenceii
cU:__ZN6il2cpp2vm13MetadataCache28GetFieldDefaultValueForFieldEPK9FieldInfo
w0g:_m1145410765_0_gshared
V2f:_m_1554730114_0
XGd:__ZN5physx2Gu22gjkRelativePenetrationINS0_9TriangleVENS0_8CapsuleVEEEjRKT_RKT0_RKNS_6shdfnd3aos15PsMatTransformVERKNSB_6FloatVERNSB_5Vec3VESJ_SJ_RSF_PhSL_Rh
Hpd:__ZN9Rigidbody14SetIsKinematicEb
Qqe:_m_1835391240_0_gshared
fRf:_m1961291234_0
rEg:_m_157022707_0
gXb:__ZN6HelperI13ProxyTransfer23TransferArrayField_InfoLb1EE24SerializationFunctionForERKS1_R23StaticTransferFieldInfoPb
rv:__ZN12AudioManager39HandlePendingAudioConfigurationCallbackEv
Doa:__ZN4Mesh14ResizeVerticesEjjjRK20VertexChannelsLayoutRK19VertexStreamsLayout
il:_emscripten_glIsFramebuffer
Vab:__ZNK13TranslateGLES9GetFormatE13TextureFormat17TextureColorSpace
$Ih:__Z43RuntimeInvoker_t_224166001_0_t_1104556737_0PK10MethodInfoPvPS2_
ml:_JS_Sound_SetLoopPoints
xv:__ZN12AudioManager17ShouldSourcePauseEb
uT:__ZN6il2cpp2vm26MetadataAllocGenericMethodEv
vUc:__ZN5physx13ActorAABBTaskD2Ev
_Xh:__ZNKSt3__119__iostream_category7messageEi
sra:__ZN18AsyncUploadManager22UploadStreamingTextureEP28FileTextureUploadInstruction
eUe:_m_1536335773_0
Dwa:__ZN4crnd12symbol_codec11decode_bitsEj
$Xg:_m1209094507_0_gshared
jac:__ZN21FixedBehaviourManagerD0Ev
Fyd:__Z6simd4iRK8Scalar4f
j9c:__Z35setPxVehicleDriveSimData_EngineDataPN5physx21PxVehicleDriveSimDataERKNS_19PxVehicleEngineDataE
Bcb:__ZNK18GfxFramebufferGLES15GetSamplesCountEv
IVh:__ZNSt3__111__stdoutbufIwED0Ev
k2g:_m451644859_0_gshared
eZf:_m760203076_0
NJa:__Z16MarkDependenciesR27GarbageCollectorThreadStatej
jaa:__ZNK14RenderSettings25GetClassIDVirtualInternalEv
ZUf:_m594580360_0
UEa:__ZNK9Transform11GetPositionEv
nLd:__ZN5physx12NpConstraint8requiresERNS_23PxProcessPxBaseCallbackE
hTg:_m797802695_0
Qug:_m_511191063_0
L9f:_m439428219_0
rqa:__ZN23SharedMeshRenderingData18UnloadVertexStreamEi
IGg:_m_389845211_0
Klc:__ZN5physx3Cct13HandleManager3AddEPv
lfa:__ZN19RenderEventsContextC2Ei
Exd:__Z6simd4fRKf
Sl:_emscripten_glEnable
v4e:_m_1061567577_0
sAf:_m870898844_0
wpg:_m395042781_0
l2:__ZN10TagManager23VirtualRedirectTransferER14SafeBinaryRead
pPc:__ZNK5physx2Sc15ClothFabricCore9getNbSetsEv
QIf:_m_11479865_0
mvh:__Z70RuntimeInvoker_t_224166001_0_t_887538054_0_t1628762194_0_t1628762194_0PK10MethodInfoPvPS2_
vca:__Z15InitLightMeshesv
Fuh:__Z42RuntimeInvoker_t_766435453_0_t1458036598_0PK10MethodInfoPvPS2_
hvc:__ZNK5physx7NpScene26getNbContactDataBlocksUsedEv
ofd:__ZN5physx2Gu29computeCapsule_HeightFieldMTDERKNS_21PxHeightFieldGeometryERKNS_11PxTransformERNS0_8CapsuleVEffbjRNS_10PxSweepHitE
fNg:_m_2006978613_0
i2e:_m_495266554_0
vie:__ZNK5physx2Cm12DelegateTaskINS_7NpSceneEXadL_ZNS2_14executeCollideEPNS_10PxBaseTaskEEEE7getNameEv
NEe:_m_339096512_0_gshared
pjd:__ZN5physx2Gu11HeightField15exportExtraDataERNS_22PxSerializationContextE
eHb:__ZNK13BaseAllocator17ValidateIntegrityEPKv
FYg:_m1854445973_0_gshared
s5e:_m625353623_0
kUg:_m_568470932_0
nm:_pwrite
r2a:__Z15CleanLogHandler7LogTypePKcz
Qih:__Z57t867363288_0_CustomAttributesCacheGenerator_m1244742105_0P21CustomAttributesCache
Lqc:__ZN5physx10NpMaterialC2ERKNS_2Sc12MaterialCoreE
ukf:_m_1633937712_0
L9c:__Z31setPxVehicleNoDrive_BrakeTorquePN5physx16PxVehicleNoDriveEjf
wef:_m_1620235396_0
rt:__ZN14AudioBehaviour15ThreadedCleanupEv
ZUa:__ZN6Shader13StaticCleanupEPv
N3:__ZN6Camera17RemoveImageFilterERK11ImageFilter
mNh:__ZN21InterfaceFuncInvoker4IP12t939027474_0P12t943751828_0P13t_756155572_0iiE6InvokeEjP8TypeInfoPvS3_S5_ii
Lib:__ZNSt3__112__hash_tableINS_17__hash_value_typeINS_4pairIPKcS4_EEiEENS_22__unordered_map_hasherIS5_S6_24NamespaceAndNamePairHashLb1EEENS_21__unordered_map_equalIS5_S6_26NamespaceAndNamePairEqualsLb1EEENS_9allocatorIS6_EEE15__insert_uniqueERKS6_
d8c:__Z35setPxVehicleWheelsSimData_WheelDataPN5physx22PxVehicleWheelsSimDataEjNS_18PxVehicleWheelDataE
gTd:__ZN8Collider12GetIsTriggerEv
bRh:__ZN16VirtFuncInvoker2IP13t_224215755_0P13t_756155572_0bE6InvokeEjPvS3_b
XAf:_m911179384_0
ykh:__Z43t_43564974_0_CustomAttributesCacheGeneratorP21CustomAttributesCache
xmg:_m166573042_0
iBc:__ZNK5physx13NpClothFabric13getRestvaluesEPfj
dXd:__ZN5physx2Gu16_gjkLocalRayCastINS0_9TriangleVENS0_11ConvexHullVEEEbRT_RT0_RKNS_6shdfnd3aos6FloatVERKNS9_5Vec3VESF_RSA_RSD_SH_f
ns:__ZNK8Playable11GetDurationEv
Bwd:__ZN5physx6shdfnd8PoolBaseINS_2Cm5BlockIPvLj32EEENS0_19ReflectionAllocatorIS5_EEE17releaseEmptySlabsEv
_xe:_m1995803071_0_gshared
YVc:__ZN5physx23PxsBroadPhaseContextSap21batchUpdateFewUpdatesEjRPNS_17PxcBroadPhasePairERjS4_
Vkc:__ZN5physx3Cct17getSceneTimestampEPKNS0_30InternalCBData_FindTouchedGeomE
doc:__ZN5physx14NpArticulation12applyImpulseEPNS_18PxArticulationLinkERKNS_24PxArticulationDriveCacheERKNS_6PxVec3ES8_
IBa:__ZN6Sprite9ReloadAllEv
Qaf:_m1360004544_0
KLh:__ZL11IsInstClassP13t_887538054_0P8TypeInfo
yrb:__ZNSt3__16vectorI7SubMesh13stl_allocatorIS1_L18MemLabelIdentifier15ELi16EEE8__appendEj
wmg:_m210342955_0
vLh:__ZN18VirtActionInvoker2IP13t_887538054_0bE6InvokeEjPvS1_b
xMc:__ZN5physx2Sc17ParticleSystemSim20scheduleCollisionCpuERNS0_16InteractionSceneERKNS_6shdfnd5ArrayIPS1_NS4_19ReflectionAllocatorIS6_EEEERNS_10PxBaseTaskE
sbe:__ZN5physx5cloth9ClothImplINS0_7SwClothEE26clearSeparationConstraintsEv
u4b:__ZN18StreamedBinaryReadILb0EE21TransferSTLStyleArrayI13dynamic_arrayI31EnlightenSystemAtlasInformationLj8EEEEvRT_17TransferMetaFlags
Rxb:__ZN18StreamedBinaryReadILb0EE21TransferSTLStyleArrayINSt3__16vectorIN15ResourceManager10DependencyENS2_9allocatorIS5_EEEEEEvRT_17TransferMetaFlags
wrc:__ZN5physx9NpPhysics15createAggregateEjb
htb:__ZN4crnd12crn_unpacker22decode_color_endpointsEv
def:_m_2140006473_0
J7g:__Z59t_2004451924_0_CustomAttributesCacheGenerator_m1961291234_0P21CustomAttributesCache
c5f:_m_966276542_0
dBg:_m508648398_0
uva:__Z19scripting_array_newP14ScriptingClassjj
q7g:__Z43t240136748_0_CustomAttributesCacheGeneratorP21CustomAttributesCache
YTa:__ZN8Material11SetPassFastEPN9ShaderLab4PassER17ShaderPassContextP6Shaderib
i1d:__ZN5physx18RepXPropertyFilterINS_2Sn17RepXVisitorReaderINS_18PxVehicleWheelDataEEEEclILj575ES3_ffEEvRKNS_14PxPropertyInfoIXT_ET0_T1_T2_EEj
UFc:__ZN5physx2Sc10NPhaseCore32addToPersistentContactEventPairsEPNS0_19ShapeInstancePairLLE
_Jb:__ZNK13ScreenManager13GetLockCursorEv
BRe:_m271202242_0
lMg:_m_718901610_0
uNg:_m249965312_0
n$e:_m_1355184875_0
ZCh:__Z56RuntimeInvoker_t_224166001_0_t1628762099_0_t1628762194_0PK10MethodInfoPvPS2_
Wbd:__ZN5physx9PxTaskMgr12addReferenceEm
Qca:__Z12SetupLODFadeR9GfxDeviceR17ShaderPassContextf
gob:__ZL24CollectForwardObjectsJobP27CollectForwardObjectsHeader
Hba:__Z13IsNodeVisibleRK9SceneNodeRK4AABBRK22SceneCullingParameters
keg:_m_437705257_0
OHb:__ZThn32_NK12MeshRenderer14AllowsBatchingEv
ubg:_t_615889032_0_marshal_cleanup
xde:__ZN5physx6shdfnd5ArrayINS_6PxVec3ENS0_9AllocatorEE15growAndPushBackERKS2_
xA:__ZN4FMOD7SystemI9setOutputE15FMOD_OUTPUTTYPE
Vdi:_emscripten_glStencilMask__wrapper
vYg:_m_1897595978_0_gshared
LFe:_m181450041_0_gshared
r$e:_m_1129355858_0
HGf:_m_1722811782_0
x4e:_m_667008532_0
L9:__ZN15RenderNodeQueue7CleanupEv
AYa:__ZNK17ArchiveFileSystem8PositionERK13FileEntryData
NTd:__ZN5physx6shdfnd5ArrayINS_2Sn20ReaderNameStackEntryENS_7profile26WrapperReflectionAllocatorIS3_EEE15growAndPushBackERKS3_
mle:__ZN16NovodexAllocator8allocateEjPKcS1_i
JPg:_m_436204029_0
BWh:__ZNSt3__112basic_stringIwNS_11char_traitsIwEENS_9allocatorIwEEE6__initEPKwj
_mg:_m201102828_0
Zha:__ZN9ShaderLab10GrabPassesD2Ev
Fjc:__ZN12WheelJoint2D13StaticCleanupEPv
$dg:_m1957352252_0
ylh:__Z44t2054489207_0_CustomAttributesCacheGeneratorP21CustomAttributesCache
IRa:__ZN18AwakeFromLoadQueue25RegisterObjectInstanceIDsEv
TRd:__ZN5physx21PxProfileNameProviderD2Ev
pDa:__ZN14Texture2DArray13UploadTextureEb
F2f:_m1074091398_0
gea:__ZN9Behaviour8TransferI13ProxyTransferEEvRT_
JGc:__ZN5physx2Sc5Scene22removeBroadPhaseRegionEj
Jke:__ZN5physx2Cm12RenderBuffer5clearEv
NOc:__ZNK5physx2Sc9ClothCore21getStiffnessFrequencyEv
Nwh:__Z140RuntimeInvoker_t_224166001_0_t_887538054_0_t1628762099_0_t1628762099_0_t_887538054_0_t1628762099_0_t1628762099_0_t_887538054_0_t1628762099_0PK10MethodInfoPvPS2_
Dta:__ZN14GfxDeviceStats15SetScreenParamsEiiiiii
wjf:_m_211210206_0
yUd:__ZN14SafeBinaryRead21TransferSTLStyleArrayINSt3__16vectorIjNS1_9allocatorIjEEEEEEvRT_17TransferMetaFlags
CWc:__ZN5physx13PxsCCDContext14postCCDAdvanceEPNS_10PxBaseTaskE
$Ag:_m_174766867_0
B3a:__Z12MurmurHash2APKvij
xL:__ZN6il2cpp6icalls8mscorlib6System2IO6MonoIO20GetFileSystemEntriesEP12Il2CppStringS6_iiPi
j2d:__ZN5physx3Pvd17PvdPropertyFilterINS_2Sn17RepXVisitorWriterINS_21PxVehicleDriveDynDataEEEE14handleAccessorILj645ENS_22PxRepXPropertyAccessorILj645ES4_KffEEEEvRKT0_
x2:__ZNK12BaseRenderer14AddRenderNodesER15RenderNodeQueuePK11VisibleNodejRj
E3:__Z34GetCameraDepthNormalsTextureShaderv
lhh:__Z57t_702325573_0_CustomAttributesCacheGenerator_m736270528_0P21CustomAttributesCache
JRh:__ZN16VirtFuncInvoker1IiP13t_756155572_0E6InvokeEjPvS1_
tBf:_m1817311413_0
zQd:__ZNK5physx10BPWorkTask7getNameEv
A6f:_m1876278943_0
KYb:__ZN17RemapPPtrTransfer8TransferI8MonoPPtrEEvRT_PKc17TransferMetaFlags
_Jc:__ZN5physx2Sc8ShapeSim16onResetFilteringEv
Fmg:_m133866342_0
G6a:__Z44Register_UnityEngine_Component_get_transformv
X6:__ZN21LightProbeProxyVolume16StaticInitializeEPv
wr:__ZN4PPtrI9TransformE8TransferI18StreamedBinaryReadILb1EEEEvRT_
tGf:_m_936757299_0
uBc:__ZN5physx2Sc16ActorInteractionD2Ev
mYa:__ZN17ArchiveFileSystem12MountArchiveEPKcS1_
$sh:__Z42RuntimeInvoker_t_815265613_0_t1628762041_0PK10MethodInfoPvPS2_
bRe:_m970670722_0
tPa:__Z11RequireTypePKcS0_S0_
bjc:__ZN14EdgeCollider2D13StaticCleanupEPv
OXh:__ZNSt3__113basic_ostreamIwNS_11char_traitsIwEEED1Ev
KBc:__ZN5physx2Sc16ArticulationCore26setExternalDriveIterationsEj
Bxf:_m715202082_0
iIa:__ZN20SphericalHarmonicsL211AddWeightedERK20SphericalHarmonicsL1f
Dlb:__ZNSt3__16vectorIN12FlareManager10FlareEntryENS_9allocatorIS2_EEE21__push_back_slow_pathIKS2_EEvRT_
kta:__ZN9GfxDevice15ImmediateVertexEfff
Dsc:__ZN5physx14NpRigidDynamic10clearForceENS_11PxForceMode4EnumE
Ehg:_m_2049940772_0
q5:__ZN16GraphicsSettings13AwakeFromLoadE17AwakeFromLoadMode
dPe:_m509205152_0
ls:__ZN6Object13AwakeFromLoadE17AwakeFromLoadMode
ndb:__ZN13GfxDeviceGLES15SetStencilStateEPK18DeviceStencilStatei
hra:__ZN18AsyncUploadManager15AcquireWritePtrEj
udg:_m1053422160_0
aZb:__ZL26Transfer_SimpleNativeClassI17RemapPPtrTransfer8GUIStyleLb1EEvRK29SerializationCommandArgumentsR31RuntimeSerializationCommandInfo
Jd:_emscripten_glUniform1iv
x_a:__ZN16MemoryFileSystemD2Ev
mKh:__ZL5UnBoxP13t_887538054_0
vFb:__ZN14DrawBufferGLESI12VertexBuffer27VertexBufferUsageMapperGLESE12EnsureBufferEj
Zhc:__ZN13RuntimeStaticI23MeshVertexFormatManagerE13StaticDestroyEPv
OKa:__ZN30RuntimeInitializeOnLoadManager13RegisterClassEv
aab:__ZN7ApiGLES15TextureSubImageEj16TextureDimensionN2gl9TexFormatEiiiiiiiiPKv
bqh:__Z57t_184308134_0_CustomAttributesCacheGenerator_m434474382_0P21CustomAttributesCache
ktc:__ZN5physx7NpSceneD2Ev
kwb:__ZN12ImmediatePtrI9TransformE8TransferI18StreamedBinaryReadILb1EEEEvRT_
Mrb:__ZN12MeshRenderer7PRODUCEE18MemLabelIdentifier18ObjectCreationMode
CDe:_m_403958414_0_gshared
Qde:__Z4loadPKf
gye:_m190457651_0_gshared
CVc:__ZNK5physx16PxsBroadPhaseMBP18getNumDeletedPairsEv
wHa:__ZN11GradientNEW8TransferI18StreamedBinaryReadILb0EEEEvRT_
kZd:__ZN5physx7profile8ZoneImplINS_28PxProfileNameProviderForwardEE10startEventEty
j4f:_m1452131359_0
wWc:__ZN5physx10PxsCCDPair17sweepAdvanceToToiEfb
Z8c:__Z36getPxVehicleDriveDynData_CurrentGearPKN5physx21PxVehicleDriveDynDataE
eLa:__ZN15ResourceManager19PreloadDependenciesEiRNSt3__13setIiNS0_4lessIiEENS0_9allocatorIiEEEEb
be:_emscripten_glStencilFunc
XBe:_m556104049_0_gshared
aZc:__ZN5physx16PxsIslandManager11freeBuffersEv
lkb:__ZN18AwakeFromLoadQueueD2Ev
he:_glGetActiveUniformBlockName
Zsf:_m1597586261_0
kcg:_m_978149007_0
DLb:__ZNK17FileSystemHandler8IsHiddenERK13FileEntryData
UT:__ZN6il2cpp2vm13MetadataCache28GetGenericContainerFromIndexEi
Syc:__Z12NpGetPxClothRN5physx2Sc9ClothCoreE
lLb:__ZN27UnloadUnusedAssetsOperationD0Ev
lB:__ZN4FMOD7Channel20set3DConeOrientationEP11FMOD_VECTOR
jo:FUNCTION_TABLE_iiifii
Lbf:_m2145170622_0
eYe:_m_643705389_0
yJ:__ZN6il2cpp6icalls8mscorlib6System7Decimal14decimalCompareEP19il2cpp_decimal_reprS5_
ULa:__ZN21LinearCollectionFieldC2ERK17GeneralMonoObjectP14ScriptingField
Ild:__ZN5physx6shdfnd8SyncImpl7getSizeEv
Sai:_glCopyTexImage2D__wrapper
SMh:__ZN21InterfaceFuncInvoker2IiP13t_887538054_0S1_E6InvokeEjP8TypeInfoPvS1_S1_
Oke:__ZN5physx11PxHitBufferINS_12PxRaycastHitEED0Ev
AVb:__Z19TransferField_ArrayI14SafeBinaryRead19Converter_PrimitiveI10ColorRGBAfEEvRK23StaticTransferFieldInfoR31RuntimeSerializationCommandInfoRT0_
E9c:__Z35setPxVehicleDriveSimDataNW_DiffDataPN5physx23PxVehicleDriveSimDataNWERKNS_27PxVehicleDifferentialNWDataE
NPh:__ZN18VirtActionInvoker1I13t_367026719_0E6InvokeEjPvS0_
e9b:__ZN6prcoreL17RemapGenericFloatI14TexFormatRHalf15TexFormatRFloatEEvPKNS_9InnerInfoE
Erh:__Z69RuntimeInvoker_t_19515315_0_t_887538054_0_t_887538054_0_t_827402166_0PK10MethodInfoPvPS2_
Kaa:__Z16ShouldUseShadowsb
$Uf:_m619500550_0
p9a:__ZN7ApiGLES10DrawArraysE16GfxPrimitiveTypejjj
EJd:__ZN5physx3Cct13BoxController15getPxControllerEv
Ct:__ZN10SampleClip13LoadBaseSoundEv
TGd:__ZN5physx2Gu22gjkRelativePenetrationINS0_17ShrunkConvexHullVES2_EEjRKT_RKT0_RKNS_6shdfnd3aos15PsMatTransformVERKNSA_6FloatVERNSA_5Vec3VESI_SI_RSE_PhSK_Rh
D2h:__ZNSt3__120__get_up_to_n_digitsIcNS_19istreambuf_iteratorIcNS_11char_traitsIcEEEEEEiRT0_S5_RjRKNS_5ctypeIT_EEi
htf:_m2125462205_0
xce:__ZThn4_NK5physx5cloth9ClothImplINS0_7SwClothEE14getNumCapsulesEv
Fkg:_m_577978346_0
JN:__ZNK6il2cpp8metadata17Il2CppTypeCompareclEPK10Il2CppTypeS4_
PKc:__ZN5physx2Sc19ParticlePacketShapeC2ERNS0_17ParticleSystemSimEjPNS_16PxvParticleShapeE
A4:__ZN22DeviceMVPMatricesStateC2ER9GfxDevice
Grc:__ZN5physx9NpPhysics18createTriangleMeshERNS_13PxInputStreamE
vo:FUNCTION_TABLE_iiiiifiiiif
Zo:FUNCTION_TABLE_iifii
O7e:_m_491432615_0
dc:invoke_viiifi
gth:__Z56RuntimeInvoker_t_224166001_0_t1628762041_0_t1628762099_0PK10MethodInfoPvPS2_
X0b:__Z19TransferField_ArrayI19StreamedBinaryWriteILb0EE19Converter_PrimitiveI5RectTIfEEEvRK23StaticTransferFieldInfoR31RuntimeSerializationCommandInfoRT0_
fsd:__ZN5physx6shdfnd5ArrayIPNS_7PxActorENS0_19ReflectionAllocatorIS3_EEE8recreateEj
Dve:_m_1232807379_0_gshared
_1b:__ZN19StreamedBinaryWriteILb0EE21TransferSTLStyleArrayINSt3__16vectorIN30RuntimeInitializeOnLoadManager15ClassMethodInfoE13stl_allocatorIS5_L18MemLabelIdentifier11ELi16EEEEEEvRT_17TransferMetaFlags
OTd:__ZN5physx6shdfnd5ArrayINS_2Sn14NameStackEntryENS_7profile26WrapperReflectionAllocatorIS3_EEE15growAndPushBackERKS3_
nIe:_m_1567232054_0
Hf:_JS_Sound_SetPosition
R8g:__Z44t1425599414_0_CustomAttributesCacheGeneratorP21CustomAttributesCache
Vib:__ZL13GetSharedInstPK17Il2CppGenericInst
w$e:_m1282121770_0
Xyc:__ZNK5physx7NpCloth14getNbParticlesEv
fdh:__Z44t_158743637_0_CustomAttributesCacheGeneratorP21CustomAttributesCache
TFc:__ZN5physx2Sc10NPhaseCore24releaseShapeInstancePairEPNS0_19ShapeInstancePairLLEjj
M6:__Z15CullLocalLightsR8JobFenceS0_RK22SceneCullingParametersRK13dynamic_arrayI8Vector4fLj4EERKS4_IiLj4EER9IndexListSD_RS4_IfLj4EERS4_I15LightScreenInfoLj4EEPPK5LightRK14ShadowCullData
ajf:_m_583426068_0
Aca:__Z24SetupActiveLightsContextR21ActiveLightingContextRK12ActiveLightsRK11CullResultsP14ShadowMapCacheRK10MinMaxAABB
QHd:__ZN5physx2GuL34fullContactsGenerationConvexConvexERKNS0_11ConvexHullVERS1_RKNS_6shdfnd3aos12PsTransformVES9_bbPNS0_17PersistentContactERjRNS0_13ContactBufferERNS0_25PersistentContactManifoldERNS6_5Vec3VERKNS6_6FloatVEb
VJf:_m_1000639986_0
tCe:_m_740106708_0_gshared
Ja:invoke_iiiiiiii
T$a:__ZN24RingBufferMemoryFileData16ConsumeReadBytesEy
gRd:__ZN5physx21SapPostUpdateWorkTaskD0Ev
tfi:b120
Pmc:__ZN5physx7NpActor18releaseConstraintsERNS_12PxRigidActorE
JYd:__ZN5physx6shdfnd5ArrayINS_11PxDebugLineENS0_19ReflectionAllocatorIS2_EEE8recreateEj
RRg:_m590483049_0
n7f:_m1976780585_0
OOd:__ZNK5physx22NpParticleBaseTemplateINS_16PxParticleSystemENS_16NpParticleSystemEE20getMaxMotionDistanceEv
Rsc:__ZNK5physx14NpRigidDynamic25getContactReportThresholdEv
d5a:__Z47Register_UnityEngine_Camera_get_allCamerasCountv
Fig:_m1628758334_0
TAf:_m1896439844_0
Chb:___clang_call_terminate
yIe:_m_1944701341_0
_yg:_m1988771411_0
$Ab:__Z29StdTemplateConversionFunctionIsiEbPvR14SafeBinaryRead
oZc:__Z22updateIslandsToProcessRKN5physx2Cm10BitMapBaseINS_6shdfnd9AllocatorEEEPKjRKNS_11NodeManagerERS4_
Jzf:_m1131996281_0
wGa:__ZN12InputManager13InputEndFrameEv
r1:__ZN16MessageForwarderC2Ev
RV:__ZN6il2cpp2vm6Thread5SetupEP12Il2CppThread
Emd:__ZN8Collider30GetRelativePositionAndRotationERK9TransformR10Matrix4x4f
x1c:__ZN5physx35PxcSweepEstimateAnyShapeHeightfieldERKNS_11PxsCCDShapeES2_PKNS_12PxsRigidBodyES5_RKNS_11PxTransformES8_f
$Me:_m_1706374747_0
irg:_m986197586_0
EFf:_m_2145320167_0
Xjc:__ZN5physx3Cct13BoxControllerC2ERKNS_16PxControllerDescERNS_9PxPhysicsEPNS_7PxSceneE
$Ba:__Z21RegisterClass_Texturev
Qgc:__ZNSt3__16vectorIN6il2cpp6icalls8mscorlib6System12PropertyPairENS1_2gc9AllocatorIS5_EEE21__push_back_slow_pathIKS5_EEvRT_
MKh:__ZN21InterfaceFuncInvoker0I14t_1842557272_0E6InvokeEjP8TypeInfoPv
kfa:__ZN22RenderingCommandBuffer24PostExecuteCommandBufferER17ShaderPassContextP13RenderTexture
Fg:_localtime_r
hfa:__ZN22RenderingCommandBuffer13GetAndCheckRTE24BuiltinRenderTextureTypeRKN9ShaderLab16FastPropertyNameEPKcPP13RenderTexture
jva:__Z17ExtractStacktraceRKNSt3__112basic_stringIcNS_11char_traitsIcEENS_9allocatorIcEEEERS5_S8_iS8_Piii
Bbe:__ZN5physx5cloth9ClothImplINS0_7SwClothEE16setRestPositionsENS0_5RangeIKNS_6PxVec4EEE
PIe:_m147164789_0
Jeg:_m_1816908188_0
Jg:_strftime
PEg:_m2083527090_0
WBa:__ZN7Texture33SetStoredColorSpaceNoDirtyNoApplyE17TextureColorSpace
iXa:__ZN12FileAccessorD2Ev
fPb:__ZN10ColorRGBAf8TransferI18StreamedBinaryReadILb0EEEEvRT_
BKf:_m1539277917_0
Iqa:__ZN14VertexDataInfoC2Ev
Fdg:_m_1128383272_0
O1g:_m_1662592952_0_gshared
zUg:_m1548770152_0
Kwb:__ZN13BuildSettings8TransferI13ProxyTransferEEvRT_
fZg:_m_1540008151_0_gshared
XAg:_m970775893_0
v1c:__ZNK5physx18PxcConvexTriangles16getPolygonNormalEj
tyd:__ZNK13Simd4fFactoryIN6detail14AlignedPointerIfEEEcv8Scalar4fEv
Zia:__ZN9shadertag10InitializeEv
Hgf:_m_808730865_0
qFg:_m_1132664568_0
Tyd:__ZN5physx6shdfnd5ArrayIjNS0_9AllocatorEE15growAndPushBackERKj
gZ:__ZN18AssetBundleManager30CollectPreloadDataDependenciesERKNSt3__16vectorI14ConstantStringNS0_9allocatorIS2_EEEEbR13dynamic_arrayIiLj4EE
bJe:_m1483606703_0
lmb:__ZN13dynamic_arrayIPK5LightLj4EE7reserveEj
PM:__ZN6il2cpp6icalls8mscorlib6System9Threading16NativeEventCalls19ResetEvent_internalE12Il2CppIntPtr
Qyb:__ZN13dynamic_arrayIxLj8EE7reserveEj
lid:__ZN5physx20InternalTriangleMesh17allocateTrianglesEjb
ore:_m_2107779146_0_gshared
T9b:__ZN22BlockMemoryCacheWriter14LockCacheBlockEjPPhS1_
BOh:__ZN16VirtFuncInvoker1IP12t553963095_0P13t_756155572_0E6InvokeEjPvS3_
lah:__Z57t1048289184_0_CustomAttributesCacheGenerator_m759007899_0P21CustomAttributesCache
Dpf:_m_424225790_0
bSe:_m776645195_0
She:__ZN5physx22NpParticleBaseTemplateINS_15PxParticleFluidENS_15NpParticleFluidEED2Ev
Sje:__ZN5physx2Cm29ConstraintImmediateVisualizer19visualizeDoubleConeERKNS_11PxTransformEfb
epf:_m_1951092681_0
Xqd:__ZN5physx6shdfnd5ArrayINS_13PxExtendedBoxENS0_19ReflectionAllocatorIS2_EEE8recreateEj
DUc:__ZN5physx20ProcessBPResultsTask11runInternalEv
Jee:__ZN5physx6shdfnd5ArrayIPvNS0_19ReflectionAllocatorINS_2Cm5BlockIS2_Lj16EEEEEE4copyINS0_15InlineAllocatorILj256ES7_EEEEvRKNS1_IS2_T_EE
W8g:__Z44t_197486834_0_CustomAttributesCacheGeneratorP21CustomAttributesCache
nh:_llvm_eh_typeid_for
u_f:_m480466941_0
Sy:__ZN4FMOD13ChannelGroupI10getDSPHeadEPPNS_3DSPE
zVa:__Z19FindShaderLabShaderRKNSt3__112basic_stringIcNS_11char_traitsIcEENS_9allocatorIcEEEERNS_6vectorI4PPtrI6ShaderENS3_ISB_EEEEb
Vtc:__ZN5physx7NpScene19getActiveTransformsERjh
vjc:__ZN17PhysicsMaterial2D13StaticCleanupEPv
Fy:__ZN4FMOD6SoundIC2EPNS_7SystemIE
BEh:__Z70RuntimeInvoker_t_887538054_0_t1719079768_0_t_887538054_0_t_887538054_0PK10MethodInfoPvPS2_
sfa:__ZNK19RenderEventsContext25PostExecuteCommandBuffersEiR17ShaderPassContextP13RenderTextureP19ProfilerInformationi
aIb:__ZN9GfxDevice14EndBufferWriteEP9GfxBufferj
Prh:__Z42RuntimeInvoker_t1628762041_0_t_887538054_0PK10MethodInfoPvPS2_
JZ:__ZNK6Object14GetMemoryLabelEv
Ong:_m522922181_0
Htf:_m_1045892299_0
vdi:_glBindVertexArray__wrapper
q_d:__ZN5physx6shdfnd5ArrayINS_11RTreeNodeNQENS0_19ReflectionAllocatorIS2_EEE19resizeUninitializedEj
eNc:__ZNK5physx2Sc16InteractionScene18getLLIslandManagerEv
AUa:__ZN8Material8TransferI14SafeBinaryReadEEvRT_
c3c:__ZN5physx17PxcNpMemBlockPool34acquireExceptionalConstraintMemoryEj
_hg:_m_242447768_0
qte:_m_1025058286_0_gshared
V6f:_m866678633_0
a7d:__ZN5physxL23PxcSweepConvexTrianglesERKNS_11PxsCCDShapeES2_RKNS_11PxTransformES5_S5_S5_fRNS_6PxVec3ES7_RNS_10PxcNpCacheERNS_18PxcNpThreadContextERKNS_2Cm23FastVertex2ShapeScalingERNS_2Gu9TriangleVEf
Zvc:__ZNK5physx7NpShape16getPlaneGeometryERNS_15PxPlaneGeometryE
xWe:_m_1322806108_0
vci:_emscripten_glGetUniformiv__wrapper
yad:__ZN5physx27InternalTriangleMeshBuilder14fillRemapTableEv
mw:__ZN11AudioSource4StopEb
Ltf:_m_496233966_0
Jaf:_m847947013_0
Gfb:__ZN18GlslGpuProgramGLESD2Ev
ila:__ZNK20DynamicHeapAllocatorI17LowLevelAllocatorE19GetRequestedPtrSizeEPKv
vZd:__ZThn116_NK5physx7profile8ZoneImplINS_28PxProfileNameProviderForwardEE10hasClientsEv
gEf:_m_521028364_0
ckd:__ZN5physx2Gu20pcmContactCapsuleBoxERKNS0_13GeometryUnionES3_RKNS_11PxTransformES6_RKfRNS0_5CacheERNS0_13ContactBufferE
Z3g:__Z58t1458036598_0_CustomAttributesCacheGenerator_m_327844020_0P21CustomAttributesCache
ojh:__Z57t867363288_0_CustomAttributesCacheGenerator_m_372250887_0P21CustomAttributesCache
zCe:_m_1832851223_0_gshared
c0f:_m1313224031_0
yWe:_m_1300434989_0
bza:__ZN15QualitySettings22ApplyExpensiveSettingsEv
M_f:_m_684702620_0
_nb:__ZN13dynamic_arrayI17BatchInstanceDataLj4EE7reserveEj
ZBh:__Z42RuntimeInvoker_t_738719148_0_t_766435453_0PK10MethodInfoPvPS2_
rSa:__ZN17PersistentManager18ReadObjectThreadedEi
egb:__ZN25TransformFeedbackSkinning31CleanupTransformFeedbackShadersEv
kM:__ZN6il2cpp6icalls8mscorlib6System7Runtime16CompilerServices14RuntimeHelpers15InitializeArrayEP11Il2CppArray12Il2CppIntPtr
byd:__ZcoRK8Scalar4f
sTf:_m229298524_0
Ko:FUNCTION_TABLE_viidi
Qzh:__Z70RuntimeInvoker_t_224166001_0_t1628762194_0_t_887538054_0_t1628762194_0PK10MethodInfoPvPS2_
Cqa:__ZN10VertexData8TransferI18StreamedBinaryReadILb0EEEEvRT_
bIc:__ZN5physx2Sc5Scene9addStaticERNS0_10StaticCoreEPKPvjj
Sph:__Z91t_867674284_0_CustomAttributesCacheGenerator_t_867674284_0_m1163914169_0_Arg2_ParameterInfoP21CustomAttributesCache
iOa:__ZN14PreloadManager16UpdatePreloadingEv
s2:__ZN12BaseRendererD2Ev
ysh:__Z70RuntimeInvoker_t_738719148_0_t_887538054_0_t1628762099_0_t_887538054_0PK10MethodInfoPvPS2_
efc:__ZN19StreamedBinaryWriteILb0EE19TransferSTLStyleMapINSt3__18multimapI8UnityStrN11AssetBundle9AssetInfoENS2_4lessIS4_EENS2_9allocatorINS2_4pairIKS4_S6_EEEEEEEEvRT_17TransferMetaFlags
jIc:__ZN5physx2Sc5Scene9addShapesEPKPvjjRNS0_8RigidSimEPNS_12PxsRigidBodyERPNS0_8ShapeSimEPNS_9PxBounds3E
ZNh:__ZN16VirtFuncInvoker0IP13t_224215755_0E6InvokeEjPv
VMa:__ZN13MonoBehaviour21StartCoroutineManagedEPKcP15ScriptingObject
qph:__Z59t1159094344_0_CustomAttributesCacheGenerator_m_2039877193_0P21CustomAttributesCache
k1c:__ZN5physx23PxcPCMContactConvexMeshERKNS_2Gu13GeometryUnionES3_RKNS_11PxTransformES6_RKfRNS_10PxcNpCacheERNS0_13ContactBufferE
n6e:_m451109823_0
Tka:__ZNK21UnityDefaultAllocatorI17LowLevelAllocatorE8ContainsEPKv
Ydf:_m2017759730_0
Ii:_emscripten_get_main_loop_timing
FQg:_m1379655177_0
kOe:_m_1174838362_0
$pf:_m_396111381_0
zjg:_m1667957438_0
Plg:_m_1078816341_0
aNh:__ZL11IsInstClassP13t_887538054_0P8TypeInfo101
_Ba:__ZN7Texture13StaticCleanupEPv
OLh:__ZN16VirtFuncInvoker0IP13t_697755161_0E6InvokeEjPv
Zp:getTempRet0
eld:__ZN5physx2Gu33MultiplePersistentContactManifold24addManifoldContactPointsEPNS0_21MeshPersistentContactEjPPNS0_15PCMContactPatchEjRKNS_6shdfnd3aos6FloatVESB_h
p3f:_m1305573036_0
bNg:_m1972583858_0
t$e:_m_1196263682_0
mGf:_m43331734_0
wbc:__ZN18DeferredRenderLoopD2Ev
CIg:_m_777825329_0
mTa:__ZNK16TypeTreeIterator4NameEv
TWa:__ZN15FileSystemEntry3SetEPKc
$9d:__ZN5physx5cloth13MovingAverage4pushEjf
XBd:__ZN5physx6shdfnd5ArrayIPNS_13PxcNpMemBlockENS0_19ReflectionAllocatorIS3_EEE6resizeEjRKS3_
lq:__ZN13dynamic_arrayIyLj8EE7reserveEj
lsc:__ZN5physx14NpRigidDynamic8requiresERNS_23PxProcessPxBaseCallbackE
$9f:_m_897036389_0
YDa:__ZN9Texture3D23VirtualRedirectTransferER13ProxyTransfer
Lx:__ZN20SoundChannelInstance15ParameterBuffer5ApplyEPN4FMOD7ChannelE
h1:__Z23RegisterClass_Componentv
cHh:__Z41RuntimeInvoker_t1628762099_0_t976230437_0PK10MethodInfoPvPS2_
Obh:__Z44t2051761569_0_CustomAttributesCacheGeneratorP21CustomAttributesCache
l3h:__ZNSt3__113__vector_baseIPNS_6locale5facetENS_15__sso_allocatorIS3_Lj28EEEED2Ev
G6b:__ZN14SafeBinaryRead21TransferSTLStyleArrayI13dynamic_arrayI16BlendShapeVertexLj4EEEEvRT_17TransferMetaFlags
bZd:__ZN5physx7profile8ZoneImplINS_28PxProfileNameProviderForwardEE21setProfileZoneManagerEPNS_20PxProfileZoneManagerE
sj:_glIsEnabled
vha:__ZN15CacheWriterBaseD2Ev
Akc:__ZN5physx3Cct17CapsuleController15setFootPositionERKNS_14PxExtendedVec3E
lkd:__ZN5physx2Gu33PCMCapsuleVsMeshContactGeneration13generateEEMTDERKNS_6shdfnd3aos5Vec3VES6_RKNS3_6FloatVES6_jS6_S6_PNS0_21MeshPersistentContactERj
VVf:_m2099481178_0
die:__ZN18MultiQueryCallbackIN5physx10PxSweepHitEED0Ev
hqb:__ZNSt3__16vectorIN9ShaderLab16ParserSetTextureENS_9allocatorIS2_EEE6assignIPS2_EENS_9enable_ifIXaasr21__is_forward_iteratorIT_EE5valuesr16is_constructibleIS2_NS_15iterator_traitsIS9_E9referenceEEE5valueEvE4typeES9_S9_
wj:_emscripten_glDrawElementsInstanced
c7a:__Z25Transform_CUSTOM_GetChildP15ScriptingObjecti
y5g:__Z58t1621492670_0_CustomAttributesCacheGenerator_m_864928962_0P21CustomAttributesCache
fga:__ZN18JobBatchDispatcherD2Ev
CEa:__ZN9Transform17MainThreadCleanupEv
rei:_emscripten_glCreateShader__wrapper
pre:_m_1669103182_0_gshared
Ms:__ZNSt3__16vectorIhNS_9allocatorIhEEE6assignINS_11__wrap_iterIPhEEEENS_9enable_ifIXaasr21__is_forward_iteratorIT_EE5valuesr16is_constructibleIhNS_15iterator_traitsIS9_E9referenceEEE5valueEvE4typeES9_S9_
wte:_m_372510710_0_gshared
dSe:_m1260948317_0
W0g:_m1414334218_0_gshared
Nhb:__ZNSt3__16vectorIP9FieldInfoNS_9allocatorIS2_EEE21__push_back_slow_pathIKS2_EEvRT_
BC:__ZN4FMOD6System10getVersionEPj
VDc:__ZN5physx2Sc7BodySim10sleepCheckEffb
kqd:__ZN13WheelCollider16RecreateColliderEPK9Rigidbody
Akb:__ZN5Unity9Component7PRODUCEE18MemLabelIdentifier18ObjectCreationMode
n_:__ZNK6Object8HasEventEPFvPvS0_iEPKv
IWg:_m_1226831437_0_gshared
Jlh:__Z43t414226495_0_CustomAttributesCacheGeneratorP21CustomAttributesCache
JFb:__ZNK6Object25GetClassIDVirtualInternalEv
w4g:__Z60t_1791715840_0_CustomAttributesCacheGenerator_m_1571219376_0P21CustomAttributesCache
gFe:_m468964762_0_gshared
EDg:_m_491863820_0
KZf:_m1717806132_0
Rdi:_emscripten_glCullFace__wrapper
l0e:_m1884931640_0
jN:__ZN6il2cpp6icalls6System6System3Net7Sockets6Socket4SendE12Il2CppIntPtrP11Il2CppArrayiiNS4_11SocketFlagsEPi
nnf:_m1670428837_0
Kgf:_m1826427014_0
yFe:_m797211560_0_gshared
UGg:_m849531789_0
Vng:_m522021722_0
Xdc:__ZN4PPtrI23ShaderVariantCollectionE8TransferI13ProxyTransferEEvRT_
iDd:__Z45setPxVehicleDifferential4WDataMFrontRearSplitPN5physx27PxVehicleDifferential4WDataEf
pne:__ZN20HardwareInfoReporter18ReportHardwareInfoEv
Gwc:__ZN5physx14NpShapeManagerC2Ev
qrg:_m_1381046352_0
RTa:__ZN8Material28UpdateHashesOnPropertyChangeEN9ShaderLab16FastPropertyNameE
rDb:__ZNKSt3__16__treeINS_12__value_typeINS_12basic_stringIcNS_11char_traitsIcEE13stl_allocatorIcL18MemLabelIdentifier53ELi16EEEEN17ArchiveFileSystem11ArchiveItemEEENS_19__map_value_compareIS8_SB_NS_4lessIS8_EELb1EEES5_ISB_LS6_53ELi16EEE4findIS8_EENS_21__tree_const_iteratorISB_PNS_11__tree_nodeISB_PvEEiEERKT_
hoh:__Z57t814710830_0_CustomAttributesCacheGenerator_m1468336738_0P21CustomAttributesCache
mXh:__ZNSt3__115basic_streambufIwNS_11char_traitsIwEEE7seekposENS_4fposI11__mbstate_tEEj
Vde:__Z6cross3RK8Scalar4fS1_
cSb:__Z14resize_trimmedINSt3__16vectorI11ColorRGBA3213stl_allocatorIS2_L18MemLabelIdentifier1ELi16EEEEEvRT_j
ipb:__ZL32MarkLevelGameManagerDependenciesR27GarbageCollectorThreadState
lfb:__ZNK13GfxDeviceGLES26HasActiveRandomWriteTargetEv
zgb:__GLOBAL__sub_I_Thread_cpp
sbf:_m_278046786_0
A4g:__Z59t_224673028_0_CustomAttributesCacheGenerator_m_1513368716_0P21CustomAttributesCache
CWh:__ZNSt3__112basic_stringIwNS_11char_traitsIwEENS_9allocatorIwEEE6__initEjw
vKd:__ZNK5physx15NpActorTemplateINS_18PxArticulationLinkEE7getNameEv
Bph:__Z91t_867674284_0_CustomAttributesCacheGenerator_t_867674284_0_m1899663946_0_Arg1_ParameterInfoP21CustomAttributesCache
oeg:_m632177530_0
p9h:_glGetActiveUniformsiv__wrapper
cEd:__Z40setPxVehicleWheelDataMMaxHandBrakeTorquePN5physx18PxVehicleWheelDataEf
Flc:__ZNK5physx3Cct10Controller16getInternalStateERNS_17PxControllerStateE
Are:_m1208073509_0_gshared
PSg:_m1639593101_0
k9c:__Z35getPxVehicleDriveSimData_EngineDataPKN5physx21PxVehicleDriveSimDataE
Q2g:__Z44t_841769721_0_CustomAttributesCacheGeneratorP21CustomAttributesCache
fXc:__ZN5physx10PxsContext15setScratchBlockEPvj
Gye:_m1387670859_0_gshared
JR:__ZN6il2cpp2vm5Class12HasAttributeEP8TypeInfoS3_
LVh:__ZNSt3__111__stdoutbufIwE6xsputnEPKwi
fwd:__ZN5physx2Cm27getDynamicGlobalPoseAlignedERKNS_11PxTransformES3_S3_RS1_
XOe:_m613486997_0
m$c:__ZN5physx12solve1DBlockEPKNS_23PxcSolverConstraintDescEjRNS_16PxcSolverContextE
O6d:__ZN5physx6shdfnd5ArrayIPvNS0_19ReflectionAllocatorIN17PxcPoolMallocData10PoolData32EEEE15growAndPushBackERKS2_
uWa:__ZN5Mutex8IsLockedEv
R0g:_m_1168830548_0_gshared
bDa:__ZN9Texture2D23VirtualRedirectTransferER18StreamedBinaryReadILb0EE
Mba:__ZN10GUIElement13StaticCleanupEPv
dce:__ZThn4_NK5physx5cloth9ClothImplINS0_7SwClothEE10getDampingEv
CZh:__ZNKSt3__18time_getIcNS_19istreambuf_iteratorIcNS_11char_traitsIcEEEEE11do_get_timeES4_S4_RNS_8ios_baseERjP2tm
gY:_unity_z_tr_stored_block
Jcc:__ZN18StreamedBinaryReadILb1EE21TransferSTLStyleArrayI13dynamic_arrayI13ProbeSetIndexLj8EEEEvRT_17TransferMetaFlags
h7e:_m185806851_0
djc:__ZN17PolygonCollider2D13StaticCleanupEPv
gdh:__Z45t_1779408381_0_CustomAttributesCacheGeneratorP21CustomAttributesCache
zlb:__ZL22ScheduleSceneNodesJobsP25ScheduleSceneNodesJobDataj
a0c:__ZN5physx22concludeContactCoulombERKNS_23PxcSolverConstraintDescERNS_16PxcSolverContextE
Jl:_emscripten_set_canvas_size
uxc:__ZNK5physx15NpParticleFluid12getStiffnessEv
Uch:__Z44t1829716129_0_CustomAttributesCacheGeneratorP21CustomAttributesCache
I_h:__ZNKSt3__110moneypunctIcLb0EE14do_curr_symbolEv
JFh:__Z43RuntimeInvoker_t_224166001_0_t_2104861694_0PK10MethodInfoPvPS2_
Esa:__ZN9GfxDevice20BeginDynamicBatchingERK14ChannelAssignsjjP17VertexDeclarationjj16GfxPrimitiveType
ala:__ZN20DynamicHeapAllocatorI17LowLevelAllocatorE8AllocateEji
hfg:_m533228205_0
QGf:_m2023521787_0
R2e:_m1219092751_0
iEf:_m1908961333_0
gWf:_m760927938_0
noa:__ZN17GenericDynamicVBO10AllocateVBEjR21DynamicVBOChunkHandle
cOe:_m1164435223_0
m7d:__ZL27PxcTestFacesSepAxesBackfaceRKN5physx2Gu13PolygonalDataES3_RKNS_2Cm8Matrix34ES7_RKNS4_23FastVertex2ShapeScalingESA_S7_RKNS_6PxVec3ERfRSB_RjPjSG_fSD_
vre:_m_1556768074_0_gshared
_Dd:__Z33setPxVehicleWheelDataMDampingRatePN5physx18PxVehicleWheelDataEf
svf:_m1778338145_0
dm:_glMapBufferRange
hDa:__ZN9Texture2D8TransferI18StreamedBinaryReadILb0EEEEvRT_
M5a:__Z31Input_CUSTOM_GetMouseButtonDowni
nsh:__Z42RuntimeInvoker_t_224166001_0_t1636693376_0PK10MethodInfoPvPS2_
Kzc:__ZNK5physx7NpCloth23getExternalAccelerationEv
GFa:__ZNK9Transform16GetLocalPositionEv
COa:__ZN13LoadOperation19IntegrateTimeSlicedEi
D1e:_m_571715285_0
yVc:__ZN5physx16PxsBroadPhaseMBP9updatePPUEPNS_10PxBaseTaskE
xfb:__ZN13GfxDeviceGLES22DispatchComputeProgramE12ObjectHandleI18ComputeProgram_TagPvE15ComputeBufferIDj
iyf:_m1129836274_0
zPg:_m2136597604_0
akh:__Z44t2086638848_0_CustomAttributesCacheGeneratorP21CustomAttributesCache
sO:__ZN6il2cpp2os6Thread11SetPriorityENS0_14ThreadPriorityE
UWg:_m167312129_0_gshared
eh:_ftruncate
VBg:_m138259962_0
ufh:__Z43t_39352717_0_CustomAttributesCacheGeneratorP21CustomAttributesCache
XKh:__ZN21InterfaceFuncInvoker1Ii13t_215297020_0E6InvokeEjP8TypeInfoPvS0_
Cei:b89
Bei:b88
itg:_m894707804_0
Vci:b81
Sci:b80
ySe:_m1386517462_0
fAb:__ZN18ResourceImageGroup7CleanupEv
$di:b85
whd:__ZN5physx2Gu36closestPtPointTetrahedronTesselationEPNS_6shdfnd3aos5Vec3VES4_S4_RjRS3_S6_
Aei:b87
zei:b86
q1c:__ZN5physx25PxcPCMContactSphereConvexERKNS_2Gu13GeometryUnionES3_RKNS_11PxTransformES6_RKfRNS_10PxcNpCacheERNS0_13ContactBufferE
yhh:__Z43t866591226_0_CustomAttributesCacheGeneratorP21CustomAttributesCache
uge:__ZN5physx2Cm18DelegateFanoutTaskINS_2Sc5SceneEXadL_ZNS3_20particlePostShapeGenEPNS_10PxBaseTaskEEEED0Ev
_zh:__Z28RuntimeInvoker_t_851705551_0PK10MethodInfoPvPS2_
Kma:__ZN8Playable19SetOutputConnectionEPS_i
Qif:_m_553917006_0
Qm:_glDeleteShader
nIf:_m_1049483987_0
Wx:__ZN11SoundHandle8Instance15UpdateLoadStateEv
Gfg:_m_1779593247_0
m9b:__ZN6prcoreL17RemapGenericFloatI15TexFormatRGHalf16TexFormatRGFloatEEvPKNS_9InnerInfoE
Oqe:_m_760357971_0_gshared
MCf:_m_640501394_0
Cga:__ZN19RuntimeSceneManager9LoadSceneERK8UnityStrS2_S2_RK9UnityGUIDiNS_11LoadingModeE
rKf:_m_625124511_0
DCf:_m1203139678_0
_va:__Z27scripting_add_internal_callPKcPKv
qKa:__Z17GetPlayerSettingsv
sGd:__ZL21ContactReductionAllInRN5physx2Gu13ContactBufferEjjRKNS_7PxMat33EPKNS_6PxVec3EPKh
z0h:__ZNKSt3__15ctypeIwE11do_scan_notEtPKwS3_
Db:invoke_vffff
xYc:__ZN5physx16PxsFluidDynamics5clearEv
_If:_m1475215417_0
OU:__ZN6il2cpp2vm9Parameter30GetDefaultParameterValueObjectEPK10MethodInfoPK13ParameterInfoPb
ESh:__ZN6il2cpp2vm5Class9HasParentEP8TypeInfoS3_
Tv:__ZN12AudioManager13RegisterClassEv
Tae:__ZN5physx5cloth9ClothImplINS0_7SwClothEE9setPlanesENS0_5RangeIKNS_6PxVec4EEEjj
ZKd:__ZN5physx19NpRigidBodyTemplateINS_18PxArticulationLinkEE16setRigidBodyFlagENS_15PxRigidBodyFlag4EnumEb
Hac:__ZN14qsort_internal31_FindAndMovePivotToLastPositionIP17RODataReplacementi19ROSorterReplacementEEvT_S4_T0_T1_
Ube:__ZThn4_NK5physx5cloth9ClothImplINS0_7SwClothEE10getFactoryEv
Hsb:__ZNSt3__16vectorIN20GpuProgramParameters16TextureParameterENS_9allocatorIS2_EEE21__push_back_slow_pathIKS2_EEvRT_
Cse:_m_884953207_0_gshared
W5f:_m226951426_0
Ylb:__ZN13dynamic_arrayI9SceneNodeLj4EE7reserveEj
IZe:_m_897051614_0
Oja:__ZN9ShaderLab7Program23CreateFromParsedProgramERKNS_13ParserProgramE10ShaderTypeiP16PropertyNamesSetP17InstancedPropInfoPK6Shader
aKf:_m510753919_0
r4g:__Z58t_1425427079_0_CustomAttributesCacheGenerator_m365084105_0P21CustomAttributesCache
h_d:__ZN5physx7profile11EventBufferINS_24PxDefaultContextProviderENS_6shdfnd6MutexTINS0_26WrapperReflectionAllocatorIhEEEENS0_14ScopedLockImplIS7_EENS_24PxProfileNullEventFilterEE9stopEventEty
EAb:__Z29StdTemplateConversionFunctionIihEbPvR14SafeBinaryRead
bpf:_m946778327_0
fce:__ZThn4_NK5physx5cloth9ClothImplINS0_7SwClothEE13getLinearDragEv
B6b:__ZN14SafeBinaryRead21TransferSTLStyleArrayI13dynamic_arrayI11ColorRGBA32Lj4EEEEvRT_17TransferMetaFlags
Vih:__Z57t867363288_0_CustomAttributesCacheGenerator_m_454973322_0P21CustomAttributesCache
exd:__ZN5physx5cloth4copyINS0_7SwClothES2_EEvRT_RKT0_
QYe:_m1026734678_0
OKe:_m_284859224_0
f7c:__ZN5physx22PxVehicleWheelsSimData25setMinLongSlipDenominatorEf
Leh:__Z44t_968251992_0_CustomAttributesCacheGeneratorP21CustomAttributesCache
UZ:__ZN6Object24SetCachedScriptingObjectEP15ScriptingObject
CPa:__ZN16ScriptingManager23ClassIDToScriptingClassEi
QA:__ZN10ObjectPoolIN4FMOD3DSPENS0_4DSPIEE5CheckEv
kTb:__ZN18StreamedBinaryReadILb1EE21TransferSTLStyleArrayINSt3__16vectorIy13stl_allocatorIyL18MemLabelIdentifier1ELi16EEEEEEvRT_17TransferMetaFlags
dqb:__ZN9ShaderLab17ParserShaderStateC2ERKS0_
VRa:__Z20GetPersistentManagerv
sBh:__Z43RuntimeInvoker_t_1190127860_0_t1628762194_0PK10MethodInfoPvPS2_
u8a:__ZN21SystemInfoStringCache16StaticInitializeEPv
DCd:__ZN5physx2Sn17readAllPropertiesINS_16PxVehicleNoDriveEEEvNS_23PxRepXInstantiationArgsERNS_9XmlReaderEPT_RNS_18XmlMemoryAllocatorERNS_12PxCollectionE
Scd:__ZN5physx2Cm20visualizeLinearLimitERNS0_12RenderOutputEfRKNS_11PxTransformES5_fb
nud:__ZN5physx2Sc7BodySim18internalWakeUpBaseEf
K0g:_m_1597203053_0_gshared
Goe:_m_1547056088_0_gshared
lth:__Z70RuntimeInvoker_t_887538054_0_t_887538054_0_t1628762099_0_t1628762099_0PK10MethodInfoPvPS2_
rNa:__ZNK13MonoBehaviour7GetNameEv
EL:__ZN6il2cpp6icalls8mscorlib6System10Reflection8Assembly13get_code_baseEP24Il2CppReflectionAssemblyb
KVf:_m1152979434_0
DQh:__ZN21InterfaceFuncInvoker2IP13t_887538054_0P13t1484498776_0S1_E6InvokeEjP8TypeInfoPvS3_S1_
PC:__Z15_CheckFMODError11FMOD_RESULTPKciS1_
qub:__ZN13dynamic_arrayI12LightmapDataLj4EE5eraseEPS0_S2_
Eca:__ZN23ForwardShaderRenderLoop16PerformRenderingER8JobFencePK11ActiveLightRK14ShadowCullDatabbbi
lqb:__ZNSt3__16vectorIPN9ShaderLab16ParserSubProgramENS_9allocatorIS3_EEE21__push_back_slow_pathIKS3_EEvRT_
kKh:__ZN16VirtFuncInvoker2IbP13t_887538054_0S1_E6InvokeEjPvS1_S1_
wW:__ZN6il2cpp2vm4Type19GetGenericParameterEPK10Il2CppType
mTc:__ZN5physx5cloth16TripletSchedulerC2ENS0_5RangeIA4_KjEE
IMd:__ZN5physx20NpRigidActorTemplateINS_13PxRigidStaticEE15exportExtraDataERNS_22PxSerializationContextE
CMg:_m_277069128_0
z2f:_m_1078533860_0
igd:__ZN5physx13BigConvexData5VLoadERNS_13PxInputStreamE
jJh:__Z41RuntimeInvoker_t742775054_0_t_887538054_0PK10MethodInfoPvPS2_
qd:_glBeginQuery
SQa:__ZN13ProxyTransfer16TransferTypelessEPjPKc17TransferMetaFlags
oxg:_m1891267395_0
XAd:__ZN5physx11NodeManager6resizeEj
bna:__ZN20SpeedTreeWindManagerD2Ev
H0a:__ZN20LocalFileSystemPosix10ToAbsoluteEPKc
txf:_m_2073408179_0
cgf:_m972795186_0
kvc:__ZNK5physx7NpScene28getSceneQueryStaticTimestampEv
GGb:__ZN9BehaviourD0Ev
Seh:__Z44t_754437679_0_CustomAttributesCacheGeneratorP21CustomAttributesCache
Ed:_getcwd
pxg:_m_751125025_0
Xoc:__ZN5physx18NpArticulationLinkD0Ev
Rla:__ZN25ThreadsafeLinearAllocatorD2Ev
YPh:__ZN18VirtActionInvoker5IP13t_887538054_0S1_iP13t1890870994_0P14t_1039475404_0E6InvokeEjPvS1_S1_iS3_S5_
mRd:__ZN5physx2Sq10AABBPruner11preallocateEj
Tqa:__ZN21BillboardBatchManager16StaticInitializeEPv
IE:__ZNSt3__115basic_stringbufIcNS_11char_traitsIcEENS_9allocatorIcEEE7seekposENS_4fposI11__mbstate_tEEj
nhc:__ZN12_GLOBAL__N_138ArchiveRedirectFileSystemStaticDestroyEPv
qJc:__ZN5physx2Sc19ShapeInstancePairLLC2ERNS0_8ShapeSimES3_RNS0_9ActorPairENS_7PxFlagsINS_10PxPairFlag4EnumEtEE
TA:__ZN10ObjectPoolIN4FMOD6ReverbENS0_7ReverbIEE8ValidateEPS1_
KPh:__ZL5UnBoxP13t_887538054_0P8TypeInfo649
Bga:__ZN19RuntimeSceneManagerC2Ev
a6c:__ZN5physx23PxVehicleWheels4SimData12setWheelDataEjRKNS_18PxVehicleWheelDataE
Fjb:__ZN11AssetBundle8TransferI19StreamedBinaryWriteILb0EEEEvRT_
$Ee:_m1751794225_0_gshared
nYa:__ZN17ArchiveFileSystem10AddStorageEP20ArchiveStorageReader
dLd:__ZN5physx19NpRigidBodyTemplateINS_18PxArticulationLinkEE27setMaxDepenetrationVelocityEf
Aua:__ZN9Scripting30IsSystemCollectionsGenericListEP14ScriptingClass
OOc:__ZN5physx2Sc9ClothCore16setStretchConfigENS_22PxClothFabricPhaseType4EnumERKNS_20PxClothStretchConfigE
sme:__ZN2UI14CanvasRenderer16StaticInitializeEPv
FZc:__ZN5physx15PxsParticleData13onOriginShiftERKNS_6PxVec3E
eU:__ZN6il2cpp2vm13MetadataCache37GetParameterDefaultValueDataFromIndexEi
kYc:__ZN5physx23collideWithConvexPlanesERNS_19PxsParticleCollDataEPKNS_7PxPlaneEjf
dHg:_m263203207_0
uE:__ZNK8WWWAudio14GetPartialSizeEv
nvf:_m_2043233776_0
iQd:__ZN5physx2Cm4Task3runEv
nId:__ZN4PPtrI14PhysicMaterialE8TransferI13ProxyTransferEEvRT_
Ckb:__ZN14SafeBinaryRead21TransferSTLStyleArrayI13dynamic_arrayINSt3__14pairIi12ImmediatePtrIN5Unity9ComponentEEEELj4EEEEvRT_17TransferMetaFlags
tId:__ZN13dynamic_arrayItLj2EE6insertEPtPKtS3_
s3d:__ZN5physx18RepXPropertyFilterINS_2Sn17RepXVisitorReaderINS_21PxVehicleDriveDynDataEEEEclILj639ES3_KbbEEvRKNS_14PxPropertyInfoIXT_ET0_T1_T2_EEj
vsa:__ZN9GfxDevice22GetDefaultVertexBufferE26GfxDefaultVertexBufferTypej
khb:__GLOBAL__sub_I_SkinnedMeshRenderer_cpp
Zme:__ZN11UnityEngine15PlatformWrapper17GetProcessorCountEv
XSh:_sscanf
pOg:_m_1960981417_0
_7e:_m_140842386_0
xta:__ZN9GfxDevice17ReleaseTempBufferEP13RenderTexture
mZf:_m_471670116_0
kjf:_m758693402_0
Nya:__Z29RegisterClass_QualitySettingsv
fcb:__ZN18GfxFramebufferGLES18GetFramebufferNameERK20GfxRenderTargetSetup
G0d:__ZN5physx18RepXPropertyFilterINS_2Sn17RepXVisitorReaderINS_22PxVehicleWheelsSimDataEEEEclILj619ES3_RKNS_27PxVehicleTireLoadFilterDataES7_EEvRKNS_14PxPropertyInfoIXT_ET0_T1_T2_EEj
d4h:_saveSetjmp
uug:_m_322179319_0
oL:__ZN6il2cpp6icalls8mscorlib6System2IO6MonoIO11GetFileTypeE12Il2CppIntPtrPi
MFd:__ZN5physx6shdfnd5ArrayINS_12PxDebugPointENS0_19ReflectionAllocatorIS2_EEE15growAndPushBackERKS2_
t8h:_glGetFramebufferAttachmentParameteriv__wrapper
Gfc:_deflate_fast657
x_h:__ZNKSt3__18time_putIcNS_19ostreambuf_iteratorIcNS_11char_traitsIcEEEEE6do_putES4_RNS_8ios_baseEcPK2tmcc
_xg:_m958562396_0
Bmd:__ZN8Collider13AwakeFromLoadE17AwakeFromLoadMode
XUb:__Z16Transfer_BuiltinIj14SafeBinaryReadLb1EEvRK29SerializationCommandArgumentsR31RuntimeSerializationCommandInfo
mRa:__ZN14SafeBinaryRead20TransferTypelessDataEjPvi
xMg:_m_1682347641_0
TVf:_m_473148983_0
b6e:_m_492439886_0
oHa:__Z19GetActiveColorSpacev
qze:_m58572112_0_gshared
Rwg:_m_735695703_0
R8f:_m825562172_0
Jue:_m_2009610012_0_gshared
jKa:__Z32AddPathRemapsForBuiltinResourcesRKNSt3__112basic_stringIcNS_11char_traitsIcEENS_9allocatorIcEEEE
j3a:__Z6StrCmpPKcS0_
o$g:_m_1703941976_0_gshared
Sta:__Z21CheckGpuProgramUsable20ShaderGpuProgramType
fca:__ZN13BatchRenderer5FlushEv
QTh:__ZNKSt8bad_cast4whatEv
xfe:__ZN5physx6shdfnd5ArrayIPvNS0_19ReflectionAllocatorINS_2Cm5BlockIhLj128EEEEEE4copyINS0_15InlineAllocatorILj256ES7_EEEEvRKNS1_IS2_T_EE
Vaa:__ZNK15SharedLightData24GetFinalShadowResolutionEv
$rd:__ZN5physx6shdfnd8PoolBaseINS_16NpConnectorArrayENS0_19ReflectionAllocatorIS2_EEE15disposeElementsEv
J2b:__ZN12AspectRatios8TransferI18StreamedBinaryReadILb0EEEEvRT_
t0:__ZN10GameObject14CopyPropertiesERS_
cRa:__ZN14SafeBinaryRead4InitERK16TypeTreeIteratorii24TransferInstructionFlags18MemLabelIdentifier
iKb:__ZNK13ScreenManager12IsFullScreenEv
SUh:_rand
V8h:_emscripten_glFramebufferRenderbuffer__wrapper
eTd:__ZNK8Collider16SupportsMaterialEv
Npc:__ZNK5physx12NpConstraint9getActorsERPNS_12PxRigidActorES3_
hhf:_m_330376344_0
K4a:__Z60Register_UnityEngine_AsyncOperation_set_allowSceneActivationv
dac:__ZN12SafeIteratorI4ListI8ListNodeI9BehaviourEEEC2ERS4_
V6d:__ZN5physx6shdfnd8PoolBaseIN17PxcPoolMallocData10PoolData16ENS0_19ReflectionAllocatorIS3_EEE15disposeElementsEv
Qpd:__ZN9Rigidbody23UpdateInterpolationNodeEv
AOb:__ZNSt3__17__sort4IRPFbRKNS_4pairIN9ShaderLab16FastPropertyNameE10ColorRGBAfEES7_EPS5_EEjT0_SC_SC_SC_T_
hP:__ZN6il2cpp2os4File10DeleteFileERKNSt3__112basic_stringIcNS2_11char_traitsIcEENS2_9allocatorIcEEEEPi
_ea:__Z22PrepareOptimizedPlanesPK5PlaneiPKN4math7_float4E
lhd:__ZN5physx2Gu3EPA16addInitialFacet5Ev
end:__ZN8Collider8TransferI13ProxyTransferEEvRT_
c3a:__ZN17UniqueIDGenerator15CreatePureIndexEv
Dr:__ZN11UnityEngine9Animation28GenericAnimationBindingCache15DidReloadDomainEv
ooa:__ZN17GenericDynamicVBO19ReserveVertexBufferEjj
Hbh:__Z58t_2028532359_0_CustomAttributesCacheGenerator_m636004198_0P21CustomAttributesCache
ytc:__ZN5physx7NpScene8addActorERNS_7PxActorE
y7h:b32
U6f:_m1423794147_0
UM:__ZN6il2cpp6icalls8mscorlib6System9Threading6Thread22CurrentThread_internalEv
Gve:_m_4912836_0_gshared
I8d:__ZN21PxsParallelSolverTaskD0Ev
fQh:__ZL23il2cpp_codegen_get_typePFvvEP13t_756155572_0bPKc
knd:__ZN5Unity17ConfigurableJoint16StaticInitializeEPv
GPe:_m1864585473_0
oUf:_m_1202060271_0
$Ah:__Z42RuntimeInvoker_t_224751869_0_t1636693376_0PK10MethodInfoPvPS2_
B0b:__Z16Transfer_BuiltinI4AABB19StreamedBinaryWriteILb0EELb1EEvRK29SerializationCommandArgumentsR31RuntimeSerializationCommandInfo
uCf:_m_558236802_0
bFa:__ZNK9Transform18TransformDirectionERK8Vector3f
FJh:__Z55RuntimeInvoker_t_19515315_0_t_224607100_0_t_224607100_0PK10MethodInfoPvPS2_
NUc:__ZN5physx21PxsBodyTransformVault6updateEv
z8d:__ZN21PxsCreateFinalizeTask11runInternalEv
Vbh:__Z44t_951284868_0_CustomAttributesCacheGeneratorP21CustomAttributesCache
YYa:__ZNK17ArchiveFileSystem12GetAssetGUIDERK13FileEntryData
Tdi:_emscripten_glClearStencil__wrapper
gSd:__ZL29GeomMTDCallback_CapsuleConvexRN5physx6PxVec3ERfRKNS_10PxGeometryERKNS_11PxTransformES5_S8_
s0d:__ZN5physx2Sn21RepXVisitorReaderBaseINS_22PxVehicleWheelsDynDataEE8pushNameEPKc
_Th:__ZNK10__cxxabiv120__si_class_type_info27has_unambiguous_public_baseEPNS_19__dynamic_cast_infoEPvi
S5f:_m_65286172_0
Q$a:__ZN24RingBufferMemoryFileData9SetLengthEy
R6h:_glTexSubImage3D__wrapper
eJa:__Z21WriteImageAsyncThreadPv
Vhc:__ZL16GetInterfaceImpl18UnityInterfaceGUID
zih:__Z56t867363288_0_CustomAttributesCacheGenerator_m485982729_0P21CustomAttributesCache
Nvh:__Z112RuntimeInvoker_t_887538054_0_t_887538054_0_t1628762099_0_t_887538054_0_t_887538054_0_t_887538054_0_t_887538054_0PK10MethodInfoPvPS2_
J7a:__ZN13EmscriptenWWW7GetSizeEv
$J:__ZN6il2cpp6icalls8mscorlib6System15MonoCustomAttrs27GetCustomAttributesInternalEP12Il2CppObjectP20Il2CppReflectionTypeb
NLf:_m_864938562_0
mJd:__ZNK5physx3Cct13BoxController11getPositionEv
hOa:__ZN14PreloadManager35WaitForAllAsyncOperationsToCompleteEv
isc:__ZN5physx14NpRigidDynamicC2ERKNS_11PxTransformE
cdd:__Z27sweepCCTBox_HeightFieldGeomRKN5physx10PxGeometryERKNS_11PxTransformERKNS_2Gu3BoxERKNS_6PxVec3EfRNS_10PxSweepHitENS_7PxFlagsINS_9PxHitFlag4EnumEtEEf
DD:__ZL31InitializeAudioScriptingClassesv
XDh:__Z98RuntimeInvoker_t_887538054_0_t_887538054_0_t_887538054_0_t_887538054_0_t1628762099_0_t1628762099_0PK10MethodInfoPvPS2_
Vnb:__Z14SortGUIByDepthP10GUIElementS0_
X8c:__Z37getPxVehicleDriveDynData_UseAutoGearsPKN5physx21PxVehicleDriveDynDataE
wai:_emscripten_glVertexAttrib4fv__wrapper
gLe:_m1971373682_0
rkb:__ZNSt3__16__treeINS_12__value_typeINS_12basic_stringIcNS_11char_traitsIcEENS_9allocatorIcEEEEiEENS_19__map_value_compareIS7_S8_NS_4lessIS7_EELb1EEENS5_IS8_EEE7destroyEPNS_11__tree_nodeIS8_PvEE
_pb:__ZNSt3__16__treeINS_12__value_typeIiiEENS_19__map_value_compareIiS2_NS_4lessIiEELb1EEENS_9allocatorIS2_EEE12__find_equalIS2_EERPNS_16__tree_node_baseIPvEENS_21__tree_const_iteratorIS2_PNS_11__tree_nodeIS2_SC_EEiEESF_RKT_
Nkc:__ZN5physx3Cct9SweepTest18updateTouchedGeomsEPKNS0_30InternalCBData_FindTouchedGeomERKNS0_13UserObstaclesERKNS_17PxExtendedBounds3ERKNS_19PxControllerFiltersERKNS_6PxVec3E
Agc:__ZNSt3__112__hash_tableINS_17__hash_value_typeINS_4pairIP8TypeInfojEES4_EENS_22__unordered_map_hasherIS5_S6_N6il2cpp8metadata14ArrayClassHashELb1EEENS_21__unordered_map_equalIS5_S6_NS9_17ArrayClassCompareELb1EEENS_9allocatorIS6_EEE6rehashEj
snf:_m_2080056865_0
z3a:__Z17GetNumericVersionPKc
HMe:_m_1274426262_0
nqh:__Z45t_2044686267_0_CustomAttributesCacheGeneratorP21CustomAttributesCache
bRc:__ZN5physx5cloth11SwCollisionI8Scalar4fE15collideConvexesERKNS0_14IterationStateIS2_EE
bUf:_m1542106991_0
aLe:_m1851295361_0
lre:_m1708617267_0_gshared
Ky:__ZN4FMOD8ChannelID2Ev
C4b:__ZN14SafeBinaryRead21TransferSTLStyleArrayI13dynamic_arrayI12LightmapDataLj4EEEEvRT_17TransferMetaFlags
o1h:__ZNKSt3__17codecvtIDsc11__mbstate_tE16do_always_noconvEv
jMb:__ZN21AssetBundleFileSystem11CreateAsDirER13FileEntryData
wta:__ZN9GfxDevice12ExecuteAsyncEPFvPN21GfxDeviceAsyncCommand10ArgScratchEPKNS0_3ArgEES2_S5_R8JobFence
KOg:_m_1413353667_0
CTf:_m_1577794549_0
oAg:_m1980938192_0
f7e:_m676018014_0
ocb:__ZN18GfxFramebufferGLES12ApplyScissorEv
Klg:_m_1074627447_0
$fa:__ZN16SubstanceArchive13StaticCleanupEPv
mKf:_m1390437900_0
ANc:__ZNK5physx2Sc9ClothCore20getNbCollisionPlanesEv
kh:_emscripten_exit_fullscreen
MQd:__ZNK5physx23PxsBroadPhaseContextSap7getTypeEv
oed:__ZNK5physx13GuMeshFactory17getNbHeightFieldsEv
gih:__Z57t867363288_0_CustomAttributesCacheGenerator_m2082045765_0P21CustomAttributesCache
EBh:__Z42RuntimeInvoker_t1636693376_0_t1636693376_0PK10MethodInfoPvPS2_
DK:__ZN6il2cpp6icalls8mscorlib6System6String19InternalAllocateStrEi
N2e:_m_492051502_0
Q0a:__ZN20LocalFileSystemPosix8SetFlagsER13FileEntryDatajj
F4h:dynCall_fiiiiiifiiiiiif
YKf:_m_1880085306_0
a5:__Z15GetFlareManagerv
sIg:_m_2045994735_0
iea:__ZN9Behaviour8TransferI18StreamedBinaryReadILb0EEEEvRT_
buf:_m506471885_0
e_c:__ZNK5physx20PxsParticleSystemSim19getSimParticleDataVERNS_28PxvParticleSystemSimDataDescEb
FVd:__ZN26IntersectAnyVsMeshCallbackILi0ELb0EED2Ev
TUh:___toread
_sh:__Z133RuntimeInvoker_t_224166001_0_t_1238179969_0_t_1238179969_0_t_1251571384_0_t_1239551786_0_t_1239551786_0_t_1239551786_0_t_1239551786_0PK10MethodInfoPvPS2_
mUh:___cxa_is_pointer_type
K5g:__Z57t1621492670_0_CustomAttributesCacheGenerator_m646233104_0P21CustomAttributesCache
D1:__ZN17MessageIdentifier13StaticDestroyEPv
hYd:__ZN12_GLOBAL__N_141SphereMeshContactGenerationCallback_ScaleD0Ev
RJd:__ZN5physx3Cct17CapsuleController16setContactOffsetEf
GGg:_m901846280_0
hSa:__ZN17PersistentManager40GlobalToLocalSerializedFileIndexInternalERK26SerializedObjectIdentifier
cie:__ZN12GeomQueryAnyIN5physx10PxSweepHitEE7geomHitERKNS0_2Sq17SceneQueryManagerERKNS0_15MultiQueryInputERKNS3_9ShapeDataERKNS0_10PxGeometryERKNS0_11PxTransformENS0_7PxFlagsINS0_9PxHitFlag4EnumEtEEjPS1_fbPNS0_9PxBounds3E
z3g:__Z91t_756155572_0_CustomAttributesCacheGenerator_t_756155572_0_m_811250378_0_Arg0_ParameterInfoP21CustomAttributesCache
Qab:__ZN13TranslateGLES4InitERK12GraphicsCaps16GfxDeviceLevelGL
nYd:__ZN43CapsuleHeightfieldContactGenerationCallback7onEventEjPj
aod:__ZThn4_N12MemoryStream4readEPvj
Vbg:_m1751484935_0
T8h:_emscripten_glGetShaderPrecisionFormat__wrapper
K$a:__ZN24RingBufferMemoryFileDataD0Ev
Ksd:__ZN5physx6shdfnd8internal8HashBaseIPNS_13NpVolumeCacheES4_NS0_4HashIS4_EENS1_11HashSetBaseIS4_S6_NS0_9AllocatorELb0EE6GetKeyES8_Lb0EE15reserveInternalEj
OGa:__ZN11TimeManager13StaticCleanupEPv
Dsd:__ZN5physx6shdfnd8internal8HashBaseIPKNS_6PxBaseES5_NS0_4HashIS5_EENS1_11HashSetBaseIS5_S7_NS0_9AllocatorELb0EE6GetKeyES9_Lb0EE6createERKS5_Rb
XRb:__ZNSt3__16vectorI17AnimationCurveTplIfE13stl_allocatorIS2_L18MemLabelIdentifier1ELi16EEE8__appendEj
S$c:__ZN5physx28solveFrictionCoulombPreBlockEPKNS_23PxcSolverConstraintDescEjRNS_16PxcSolverContextE
hMh:__ZN16VirtFuncInvoker0IP13t1573116945_0E6InvokeEjPv
gUg:_m_807066988_0
Xyb:__ZL27GetComponentsImplementationILb0ELi0EEbR10GameObjectbRK17CompareParametersRK39GetComponentsImplementation_ReturnValue
hbi:_emscripten_glGetActiveAttrib__wrapper
vZf:_m973090016_0
mTb:__ZNSt3__16vectorIy13stl_allocatorIyL18MemLabelIdentifier1ELi16EEE6assignINS_11__wrap_iterIPyEEEENS_9enable_ifIXaasr21__is_forward_iteratorIT_EE5valuesr16is_constructibleIyNS_15iterator_traitsISA_E9referenceEEE5valueEvE4typeESA_SA_
aqc:__ZN5physx12NpConstraint12actorDeletedEPNS_12PxRigidActorE
O2:__ZN6Camera11SetupRenderER17ShaderPassContexti
NBb:__ZL16ReadTypeTreeImplILb0EEbR8TypeTreeRK16TypeTreeIteratorRPKhS6_i
Ude:__ZN5physx5cloth17UnalignedIteratorI8Scalar4fLj3EEppEv
Wah:__Z44t1597167888_0_CustomAttributesCacheGeneratorP21CustomAttributesCache
TOb:__ZNSt3__16vectorI4PPtrI6ShaderENS_9allocatorIS3_EEE8__appendEj
YJc:__ZN5physx2Sc8ShapeSim18reinsertBroadPhaseEv
aIc:__ZN5physx2Sc5Scene11removeShapeERNS0_8ShapeSimEb
Qtf:_m_1793175362_0
m3a:__Z19ConcatWithSeparatorRKNSt3__112basic_stringIcNS_11char_traitsIcEE13stl_allocatorIcL18MemLabelIdentifier1ELi16EEEES8_S8_
cbf:_m333754556_0
T6d:__ZN5physx6shdfnd4sortIPvNS0_4LessIS2_EENS0_19ReflectionAllocatorIN17PxcPoolMallocData9PoolData8EEEEEvPT_jRKT0_RKT1_
oca:__ZN18DeferredRenderLoop15RenderFinalPassEP13RenderTextureS1_
Q9a:__ZN7ApiGLES18DeleteRenderbufferERj
Cje:__ZN5physx6shdfnd5ArrayIPvNS0_15InlineAllocatorILj256ENS0_19ReflectionAllocatorINS_16NpConnectorArrayEEEEEE15growAndPushBackERKS2_
NMb:__ZL23ProgramUniformMatrix4fvPK7ApiGLESjiihPKv
Nwf:_m_342669795_0
eBh:__Z42RuntimeInvoker_t_224738991_0_t1636693376_0PK10MethodInfoPvPS2_
qUc:__ZN5physx14SingleAABBTaskC2Ev
Ikg:_m_19187338_0
Yi:_emscripten_glCheckFramebufferStatus
MQb:__Z16Transfer_BuiltinI10Matrix4x4f18StreamedBinaryReadILb1EELb0EEvRK29SerializationCommandArgumentsR31RuntimeSerializationCommandInfo
tBb:__Z29StdTemplateConversionFunctionIatEbPvR14SafeBinaryRead
qBh:__Z43RuntimeInvoker_t_1190127860_0_t_766435453_0PK10MethodInfoPvPS2_
wAa:__ZN13RenderTexture7ReleaseEv
YTe:_m_1076802843_0
qpa:__ZN10MeshFilter23VirtualRedirectTransferER14SafeBinaryRead
$zf:_m_1696350628_0
Kpa:__ZN12MeshRenderer17MainThreadCleanupEv
ckh:__Z44t_523179548_0_CustomAttributesCacheGeneratorP21CustomAttributesCache
OVe:_m1324026282_0
$ta:__ZN22CreateGpuProgramOutput12CreateParamsEv
o6g:__Z45t_1270520389_0_CustomAttributesCacheGeneratorP21CustomAttributesCache
dpc:__ZNK5physx18NpArticulationLink11getChildrenEPPNS_18PxArticulationLinkEj
tHg:_m_571855449_0
Ncb:__ZNK14GfxContextGLES13GetDefaultFBOEv
jKg:_m1647411363_0
KVg:_pinvoke_delegate_wrapper_t_1938407861_0
jof:_m_66599631_0
QXc:__Z15atomIntegrationfPKPN5physx11PxsBodyCoreEPKPNS_12PxsRigidBodyEjPKNS_2Cm13SpatialVectorEPNS_13PxcSolverBodyEPNS_17PxcSolverBodyDataEPS9_RjSH_
ctc:__ZN5physx13NpRigidStatic11createShapeERKNS_10PxGeometryEPKPNS_10PxMaterialEtNS_7PxFlagsINS_11PxShapeFlag4EnumEhEE
GNa:__Z18BuildScriptClassIdP14ScriptingClass
uH:_il2cpp_class_is_enum
aXe:_m_66956624_0
Qte:_m_1641248093_0_gshared
RQa:__ZN13ProxyTransfer10SetVersionEi
hnc:__ZN5physx11NpAggregate22removeActorAndReinsertERNS_7PxActorEb
$df:_m_451557350_0
n_d:__ZZL19ExtractHullPolygonsRjRN5physx2Gu9ContainerERKNS0_17ConvexHullBuilderEPS2_S3_EN5Local9FloodFillES3_PKNS0_11AdjTriangleEjPb
T4f:_m1218472467_0
vth:__Z70RuntimeInvoker_t1628762099_0_t_887538054_0_t1628762099_0_t1628762099_0PK10MethodInfoPvPS2_
xj:_emscripten_glVertexAttrib4f
J$f:_m_328658036_0
gt:__ZN17PackedFloatVector8TransferI13ProxyTransferEEvRT_
YId:__ZL28RegisterModuleICalls_Physicsv
oLa:__ZN15ResourceManager23VirtualRedirectTransferER18StreamedBinaryReadILb1EE
ep:FUNCTION_TABLE_vf
Fnc:__ZN5physx14NpArticulation26setMaxProjectionIterationsEj
Rlc:__ZN5physx3Cct15ObstacleContext14removeObstacleEj
Ajg:_m837283029_0
tVb:__ZN14SafeBinaryRead21TransferSTLStyleArrayINSt3__16vectorI11GradientNEW13stl_allocatorIS3_L18MemLabelIdentifier1ELi16EEEEEEvRT_17TransferMetaFlags
IIb:__ZN9GfxDevice18SetGlobalDepthBiasEff
dK:__ZN6il2cpp6icalls8mscorlib6System8MonoType12get_AssemblyEP20Il2CppReflectionType
S4d:__ZN5physx18RepXPropertyFilterINS_2Sn17RepXVisitorReaderINS_30PxVehicleAckermannGeometryDataEEEEclILj550ES3_ffEEvRKNS_14PxPropertyInfoIXT_ET0_T1_T2_EEj
$Xe:_m_832085344_0
CLd:__ZNK5physx15NpActorTemplateINS_14PxRigidDynamicEE13getActorFlagsEv
h7a:__Z46Playables_CUSTOM_INTERNAL_CALL_InternalDisposeR9HPlayable
sN:__ZN6il2cpp8metadata15GenericMetadata15GetGenericClassEP8TypeInfoPK17Il2CppGenericInst
VKh:__ZL5UnBoxP13t_887538054_0P8TypeInfo6
uYc:__ZN5physx24updateCellsSubpacketPairENS_16PxsSphUpdateTypeEPNS_6PxVec3ES2_PNS_16PxsFluidParticleES4_PKNS_15PxsParticleCellES7_PKjS9_jjbRKNS_26PxsFluidDynamicsParametersERNS_27PxsFluidDynamicsTempBuffersEb
I_e:_m1369616318_0
YYd:__ZN5physx7profile8ZoneImplINS_28PxProfileNameProviderForwardEE17handleBufferFlushEPKhj
XBf:_m1130850294_0
ezd:__ZN5physx5cloth21IterationStateFactoryC2INS0_7SwClothEEERT_f
JCe:_m110741546_0_gshared
tFg:_m_1766435359_0
mab:__ZN7ApiGLES26BindDispatchIndirectBufferEj
zMc:__ZN5physx2Sc5ActorC2ERNS0_16InteractionSceneEhNS0_14IslandNodeInfo4TypeE
TXf:_m1881278936_0
L4d:__ZN5physx18RepXPropertyFilterINS_2Sn17RepXVisitorReaderINS_23PxVehicleDriveSimData4WEEEEclILj657ENS_21PxVehicleDriveSimDataERKNS_18PxVehicleGearsDataES8_EEvRKNS_14PxPropertyInfoIXT_ET0_T1_T2_EEj
qhe:__ZN5physx15NpActorTemplateINS_7PxClothEED2Ev
QNc:__ZN5physx2Sc9ClothCore16setRestPositionsEPKNS_6PxVec4E
ARf:_m_732956720_0
EUf:_m_1013949666_0
wEb:__ZL13MotionHandleriPK27EmscriptenDeviceMotionEventPv
jjb:__ZNSt3__16vectorIP17Il2CppAsyncResultN6il2cpp2gc9AllocatorIS2_EEE21__push_back_slow_pathIKS2_EEvRT_
ZSh:_MUSL_vfscanf
jv:__ZN12AudioManager5ResetEv
QTf:_m1799621832_0
y9b:__ZN6prcoreL17RemapGenericFloatI17TexFormatRGBAHalf15TexFormatRGHalfEEvPKNS_9InnerInfoE
QJ:__ZN6il2cpp6icalls8mscorlib6System11Environment20GetWindowsFolderPathEi
y3e:_m_2129749625_0
JXh:__ZTv0_n12_NSt3__113basic_ostreamIcNS_11char_traitsIcEEED0Ev
EHd:__ZNK5physx2Gu15HeightFieldUtil12traceSegmentI24ConvexVsHeightfieldSweepLb0ELb0ELb1EEEvRKNS_6PxVec3ES6_PT_PS5_
xRd:__ZNK5physx12PxConvexMesh19getConcreteTypeNameEv
jXg:_m_1164524767_0_gshared
MWb:__Z16Transfer_BuiltinI10Matrix4x4f13ProxyTransferLb0EEvRK29SerializationCommandArgumentsR31RuntimeSerializationCommandInfo
NTf:_m_1797082051_0
eXd:__ZN5physx2Gu19gjkLocalPenetrationINS0_9TriangleVENS0_17ShrunkConvexHullVEEEjRKT_RKT0_RKNS_6shdfnd3aos6FloatVERNSB_5Vec3VESG_SG_RSC_PhSI_Rhb
zCh:__Z56RuntimeInvoker_t_818288618_0_t_818288618_0_t_393459662_0PK10MethodInfoPvPS2_
Dhd:__ZN5physx2Gu15GJKLocalRayCastERNS0_9TriangleVERNS0_4BoxVERKNS_6shdfnd3aos6FloatVERKNS6_5Vec3VESC_RS7_RSA_SE_fb
Y9c:__ZN5physx18AdjacenciesBuilderC2Ev
KJc:__ZN5physx2Sc13ShapeIterator4initERKNS0_8ActorSimE
udc:__ZNK20LightPropertyBinding9BindValueER6ObjectRKN11UnityEngine9Animation14GenericBindingERNS3_10BoundCurveE
rIh:__Z41RuntimeInvoker_t_19515315_0_t_224751869_0PK10MethodInfoPvPS2_
z7c:__Z31setPxVehicleAutoBoxData_LatencyPN5physx20PxVehicleAutoBoxDataEf
btf:_m1338949966_0
qPf:_m_1537009700_0
K4e:_m_854417918_0
xjc:__ZN17Physics2DSettings13StaticCleanupEPv
zze:_m_13032628_0_gshared
Kig:_m_216143954_0
f1b:__Z19TransferField_ArrayI19StreamedBinaryWriteILb0EE27Converter_SimpleNativeClassI8GUIStyleEEvRK23StaticTransferFieldInfoR31RuntimeSerializationCommandInfoRT0_
u3d:__ZN5physx18RepXPropertyFilterINS_2Sn17RepXVisitorReaderINS_21PxVehicleDriveDynDataEEEEclILj641ES3_jjEEvRKNS_14PxPropertyInfoIXT_ET0_T1_T2_EEj
x6c:__ZN5physx46solveTankInternaDynamicsEnginePlusDrivenWheelsERKNS_19ImplicitSolverInputEPKbPKfPNS_20ImplicitSolverOutputE
vnc:__ZN5physx14NpArticulationC2Ev
UBf:_m1053942860_0
eKb:__ZNK13ScreenManager12GetIsFocusedEv
d3e:_m527504827_0
bif:_m1095530856_0
uGe:_m_510886111_0_gshared
ECg:_m1303521840_0
xPf:_m1687836093_0
R0:__Z24RegisterClass_GameObjectv
x5g:__Z59t1621492670_0_CustomAttributesCacheGenerator_m_2091742463_0P21CustomAttributesCache
MBg:_m93095219_0
NY:__ZN33AssetBundleLoadFromAsyncOperation21InitializeAssetBundleERKNSt3__112basic_stringIcNS0_11char_traitsIcEENS0_9allocatorIcEEEE
szf:_m256067930_0
Uwf:_m958857238_0
tRc:__ZNK5physx5cloth11SwCollisionI8Scalar4fE12collideConesEPKS2_PS2_RNS3_18ImpulseAccumulatorE
Oud:__ZN5physx6shdfnd8PoolBaseINS_2Sc9ActorPairENS0_19ReflectionAllocatorIS3_EEE12allocateSlabEv
NT:__ZN6il2cpp2vm13MetadataCache38GetMethodInfoFromMethodDefinitionIndexEi
Knh:__Z88t27601876_0_CustomAttributesCacheGenerator_t27601876_0_m_1858684965_0_Arg0_ParameterInfoP21CustomAttributesCache
Sub:__ZNK4PPtrI9TransformEdeEv
e3h:__ZNSt3__16locale5__imp7installINS_9money_putIwNS_19ostreambuf_iteratorIwNS_11char_traitsIwEEEEEEEEvPT_
mNe:_m_558429376_0
FLg:_m1876674446_0
Q_a:__ZNK16MemoryFileSystem8FilenameERK13FileEntryData
Iqh:__Z44t2020741865_0_CustomAttributesCacheGeneratorP21CustomAttributesCache
VCd:__Z31getPxVehicleEngineDataMMaxOmegaPKN5physx19PxVehicleEngineDataE
sub:__ZN16LightmapSettings8TransferI13ProxyTransferEEvRT_
rse:_m491177976_0_gshared
aEe:_m_1239991823_0_gshared
Vuc:__ZN5physx7NpScene21setDominanceGroupPairEhhRKNS_20PxDominanceGroupPairE
b4d:__ZN5physx18RepXPropertyFilterINS_2Sn17RepXVisitorReaderINS_21PxVehicleDriveSimDataEEEEclILj659ES3_RKNS_20PxVehicleAutoBoxDataES7_EEvRKNS_14PxPropertyInfoIXT_ET0_T1_T2_EEj
rGh:__Z57RuntimeInvoker_t_19515315_0_t_1104556737_0_t_1104556737_0PK10MethodInfoPvPS2_
$Nd:__ZNK5physx15NpActorTemplateINS_16PxParticleSystemEE7getNameEv
AIb:__ZN9GfxDevice15GetNextCPUFenceEv
xNg:_m_1923185649_0
Bag:_m1690259617_0
lId:__ZN8Collider7PRODUCEE18MemLabelIdentifier18ObjectCreationMode
Iyg:_m1445478582_0
y9f:_m370255050_0
CVa:__ZN19ShaderPropertySheet22CopyVectorPropertyFromERKS_i
Pf:_emscripten_glShaderBinary
V0a:__ZNK20LocalFileSystemPosix6ExistsERK13FileEntryData
uDb:__Z16FlaggedAsSkippedINSt3__112basic_stringIcNS0_11char_traitsIcEENS0_9allocatorIcEEEEEbRK13FileEntryInfoRKT_19FileEnumerationFlag
Nu:__ZN13AudioListener23VirtualRedirectTransferER13ProxyTransfer
Roc:__ZN5physx35NpArticulationJointGetBodiesFromScbERNS_3Scb17ArticulationJointERPNS0_4BodyES5_
yPc:__ZNK5physx2Sc15ClothFabricCore16getTetherLengthsEPfj
Jvf:_m_327844020_0
qrb:__ZN4Mesh8TransferI13ProxyTransferEEvRT_
gwg:_m167131279_0
zCf:_m819189346_0
l1e:_m784073364_0
NG:_il2cpp_set_data_dir
SEc:__ZN5physx2Sc13ConstraintSim8getForceERNS_6PxVec3ES3_
p$:__ZN16LevelGameManager23VirtualRedirectTransferER19StreamedBinaryWriteILb0EE
DPb:__ZN13dynamic_arrayIcLj1EE6insertEPcPKcS3_
cnf:_m_1218856458_0
z7f:_m_1003009854_0
TUg:_pinvoke_delegate_wrapper_t_1680393766_0
vRa:__ZN18StreamedBinaryReadILb1EE21TransferResourceImageE19ActiveResourceImagePKcR13StreamingInfoPvj
Gdd:__ZN5physx15PxGeometryQuery18computePenetrationERNS_6PxVec3ERfRKNS_10PxGeometryERKNS_11PxTransformES6_S9_
hne:__ZN11UnityEngine15PlatformWrapper30GetGraphicsDriverLibraryStringEv
qpd:__ZN5Unity12PhysicsQueryC2Ev
uXc:__ZN5physx10PxsContext13updateIslandsEfPNS_10PxBaseTaskE
$Zf:_m233704309_0
g2d:__ZN5physx3Pvd17PvdPropertyFilterINS_2Sn17RepXVisitorWriterINS_21PxVehicleDriveDynDataEEEE14handleAccessorILj642ENS_22PxRepXPropertyAccessorILj642ES4_KffEEEEvRKT0_
Xsh:__Z70RuntimeInvoker_t_738719206_0_t_887538054_0_t1628762099_0_t_887538054_0PK10MethodInfoPvPS2_
Qzb:__ZN8Remapper25GetAllLoadedObjectsAtPathEiPNSt3__13setIiNS0_4lessIiEENS0_9allocatorIiEEEE
jRg:_m_394912059_0
w_e:_m711194034_0
Dsh:__Z112RuntimeInvoker_t_19515315_0_t_887538054_0_t1628762099_0_t_887538054_0_t1636693376_0_t_1425454125_0_t2034024306_0PK10MethodInfoPvPS2_
G$a:__ZN25MultiBlocksMemoryFileData9SetLengthEy
CEf:_m1335009039_0
Iu:__ZN13AudioListener16StaticInitializeEPv
nYb:__Z16Transfer_BuiltinIy17RemapPPtrTransferLb0EEvRK29SerializationCommandArgumentsR31RuntimeSerializationCommandInfo
TCa:__ZNK9Texture2D20GetRuntimeMemorySizeEv
I$c:__ZN5physx14solve1D4_BlockEPKNS_23PxcSolverConstraintDescEjRNS_16PxcSolverContextE
qn:_emscripten_glUniform2iv
pSd:__ZL33GeomMTDCallback_ConvexHeightFieldRN5physx6PxVec3ERfRKNS_10PxGeometryERKNS_11PxTransformES5_S8_
Veh:__Z44t1847759764_0_CustomAttributesCacheGeneratorP21CustomAttributesCache
I$d:__ZN5physx6shdfnd5ArrayINS_17PxVehicleTireDataENS0_15InlineAllocatorILj320ENS0_19ReflectionAllocatorIS2_EEEEE8recreateEj
zwf:_m_806461879_0
vNb:__ZN15UniformTFMethod13MapBoneBufferEj
DWh:__ZNSt3__112basic_stringIwNS_11char_traitsIwEENS_9allocatorIwEEED2Ev
H_:__ZN15EditorExtension13RegisterClassEv
h1c:__ZN5physx26PxcPCMContactCapsuleConvexERKNS_2Gu13GeometryUnionES3_RKNS_11PxTransformES6_RKfRNS_10PxcNpCacheERNS0_13ContactBufferE
s7c:__ZN5physx28PxVehicleComputeSprungMassesEjPKNS_6PxVec3ERS1_fjPf
R1a:__Z9SetupArgviPPKc
xKh:__ZN21InterfaceFuncInvoker0IiE6InvokeEjP8TypeInfoPv
ZOf:_m1920950519_0
Ybi:_glTexParameteri__wrapper
bXc:__ZN5physx10PxsContext17addParticleSystemEPNS_15PxsParticleDataERKNS_26PxvParticleSystemParameterEb
Jtd:__ZN5physx3Scb5Scene13addRigidNoSimINS0_4BodyELb1ELb1EEEvRT_RNS0_13ObjectTrackerE
xkb:__ZN12ImmediatePtrI10GameObjectE8TransferI19StreamedBinaryWriteILb0EEEEvRT_
Dwe:_m1336166329_0_gshared
JHf:_m1086915307_0
aCb:__ZN4PPtrI6ShaderE8TransferI18StreamedBinaryReadILb0EEEEvRT_
QFd:__ZL19sweepBoxVsTrianglesjPKN5physx10PxTriangleERKNS_2Gu3BoxERKNS_6PxVec3EfRNS_10PxSweepHitENS_7PxFlagsINS_9PxHitFlag4EnumEtEEbPKj
Q$f:_m1484911836_0
vte:_m641310834_0_gshared
Oxb:__ZN13ProxyTransfer8TransferI15ResourceManagerEEvRT_PKc17TransferMetaFlags
XHe:_m837755469_0
iZa:__ZN15ArchiveReadFile5WriteEyPKvPy
ewg:_m979045638_0
bKe:_pinvoke_delegate_wrapper_t1962200975_0
RDe:_m327676453_0_gshared
OGf:_m1950895881_0
PYf:_m463615156_0
Ghc:__ZN13RuntimeStaticI15ApplicationInfoE13StaticDestroyEPv
D:tempValue
rBb:__Z29StdTemplateConversionFunctionIaiEbPvR14SafeBinaryRead
Eub:__ZN15QualitySettings8TransferI18StreamedBinaryReadILb1EEEEvRT_
CNh:__ZN23InterfaceActionInvoker3IiiiE6InvokeEjP8TypeInfoPviii
Ygf:_m200424466_0
kva:__Z29scripting_class_from_fullnamePKcS0_S0_
H5e:_m_555040495_0
Jrg:_m1027414473_0
cjb:__ZNSt3__112__hash_tableINS_17__hash_value_typeINS_4pairIPK10MethodInfoP8TypeInfoEEP11Il2CppArrayEENS_22__unordered_map_hasherIS8_SB_17ReflectionMapHashIS8_ELb1EEENS_21__unordered_map_equalIS8_SB_19ReflectionMapEqualsIS8_ELb1EEEN6il2cpp2gc9AllocatorISB_EEE15__insert_uniqueERKSB_
tt:__ZN17AudioChorusFilter13StaticCleanupEPv
Wfd:__ZN5physx2Gu29ConvexVsMeshContactGeneration20generateLastContactsEv
sXd:__ZNK5physx2Gu22SupportMapRelativeImplINS0_4BoxVEE14doSupportSweepERKNS_6shdfnd3aos5Vec3VE
psf:_m_1379207899_0
Uve:_m1097371640_0_gshared
jVa:__ZN8keywords7CleanupEv
hMc:__ZN5physx2Sc17ParticleSystemSim16getParticleStateEv
e9d:__ZN5physx6shdfnd5ArrayINS_25PxsCompoundContactManagerENS0_19ReflectionAllocatorIS2_EEE8recreateEj
EZb:__Z46EmitSerializationCommandsForManagedObjectFieldI18StreamedBinaryReadILb0EEEvRK18TransferField_InfoR32SerializationCommandQueueBuilderRP20AllowNameConversions
o7c:__ZN5physx15PxVehicleWheels5setupEPNS_9PxPhysicsEPNS_14PxRigidDynamicERKNS_22PxVehicleWheelsSimDataEjj
qdi:_glValidateProgram__wrapper
kd:_glReadBuffer
gsb:__Z26TransformVerticesInnerLoopILb1ELb1ELb1EEvPhRK10Matrix4x4fRK10Matrix3x3fjPKhiiiS8_ii25GfxTransformVerticesFlags
tTc:__ZN5physx14PxsAABBManagerC2ERNS_2Cm13EventProfilerERNS_19PxcScratchAllocatorE
JDd:__Z48getPxVehicleTireLoadFilterDataMMinNormalisedLoadPKN5physx27PxVehicleTireLoadFilterDataE
aef:_m982385354_0
jca:__ZNK26RenderDeferredObjectSorterclERK16RenderObjectDataS2_
eac:__ZN12SafeIteratorI4ListI8ListNodeI9BehaviourEEE4NextEv
mYf:_m_625015375_0
KHf:_m204692013_0
Sxh:__Z126RuntimeInvoker_t_224166001_0_t_887538054_0_t1628762099_0_t1628762099_0_t1628762099_0_t1628762099_0_t1636693376_0_t1628762099_0PK10MethodInfoPvPS2_
Ad:___cxa_guard_abort
jog:_m1751158349_0
yIg:_m_1991151990_0
A1:__ZN14MessageHandler28MessageIDToMessageIdentifierEi
gJh:__Z27RuntimeInvoker_t742775054_0PK10MethodInfoPvPS2_
KW:__ZN6il2cpp2vm10WaitHandle19NewManualResetEventEb
W1e:_m_1912787051_0
uIf:_m941592214_0
Oya:__ZN15QualitySettings13RegisterClassEv
gp:FUNCTION_TABLE_iiiiiiiiiii
Msc:__ZN5physx14NpRigidDynamic6wakeUpEv
NWd:__ZN5physx2Gu29EPASupportMapPairRelativeImplINS0_9TriangleVENS0_11ConvexHullVEED0Ev
Nnb:__ZL10CleanUpJobP20CullingGroupsJobData
YOf:_m1881161056_0
Zde:__ZN13Simd4fFactoryIN6detail9FourTupleEEC2Effff
fSh:__ZN21InterfaceFuncInvoker1IyP13t_887538054_0E6InvokeEjP8TypeInfoPvS1_
jgd:__ZN5physx13BigConvexData4LoadERNS_13PxInputStreamE
A9:__ZN13RenderManager15BatchModeUpdateEv
O0g:_m1447397071_0_gshared
rsb:__ZN14SafeBinaryRead21TransferSTLStyleArrayI13dynamic_arrayI8Vector2fLj4EEEEvRT_17TransferMetaFlags
iSa:__ZN17PersistentManager51InstanceIDToLocalSerializedObjectIdentifierInternalEiR31LocalSerializedObjectIdentifier
pHe:_m_920412526_0
DBc:__ZN5physx2Sc8ActorSim24postDominanceGroupChangeEv
PEe:_m21984344_0_gshared
Y8:__Z30IsUsingLightProbesForRendering15LightProbeUsageRK15LightmapIndicesbbb
Sv:__Z26RegisterClass_AudioManagerv
ETf:_m_1971109681_0
rIf:_m_109089079_0
S4c:__ZN5physx27PxVehicleDifferentialNWData20setDrivenWheelStatusEj
Olc:__ZN5physx3Cct15ObstacleContext7releaseEv
d0c:__ZN5physx27solveFrictionBlockWriteBackEPKNS_23PxcSolverConstraintDescEjRNS_16PxcSolverContextEPNS_25PxcThresholdStreamElementEjPi
m8f:_m_859801141_0
uEg:_m_241353748_0
YDe:_m_944801192_0_gshared
N$d:__ZN5physx3Pvd17PvdPropertyFilterINS_2Sn17RepXVisitorWriterINS_18PxVehicleWheelDataEEEE14handleAccessorILj571ENS_22PxRepXPropertyAccessorILj571ES4_ffEEEEvRKT0_
PUg:_m_1738139128_0
jue:_m_1451217808_0_gshared
scd:__ZN5physx6shdfnd10Foundation19AlignCheckAllocator8allocateEjPKcS4_i
jCb:__ZN18StreamedBinaryReadILb1EE19TransferSTLStyleMapINSt3__13mapIN9ShaderLab16FastPropertyNameE10ColorRGBAfNS2_4lessIS5_EENS2_9allocatorINS2_4pairIKS5_S6_EEEEEEEEvRT_17TransferMetaFlags
BQh:__ZN23InterfaceActionInvoker3IP13t_887538054_0bbE6InvokeEjP8TypeInfoPvS1_bb
Wj:_JS_SystemInfo_GetMemory
Oif:_m218695993_0
d1d:__ZN5physx18RepXPropertyFilterINS_2Sn17RepXVisitorReaderINS_18PxVehicleWheelDataEEEEclILj570ES3_ffEEvRKNS_14PxPropertyInfoIXT_ET0_T1_T2_EEj
agb:__ZN18GfxFramebufferGLES13ReadbackImageER14ImageReferenceiiiiii
_Lg:_m1479384337_0
cic:__ZN13RuntimeStaticI11WindManagerE13StaticDestroyEPv
qne:__ZN23UnityPurchasingSettingsC2ER6Object
h8b:__ZN6prcoreL12RemapGenericI17TexFormatARGB888815TexFormatRGB565EEvPKNS_9InnerInfoE
eB:__ZN4FMOD7Channel19setReverbPropertiesEPK29FMOD_REVERB_CHANNELPROPERTIES
mNa:__ZN13MonoBehaviour22GetScriptFullClassNameEv
XH:_il2cpp_object_get_class
iWg:_m1038884163_0_gshared
$j:_emscripten_glGetVertexAttribfv
hIa:__ZN20SphericalHarmonicsL211AddWeightedERKS_f
iFc:__ZN5physx2Sc24ElementInteractionMarker12onDeactivateEj
oac:__ZN9DepthPassD2Ev
yZb:__Z19TransferField_ArrayI17RemapPPtrTransfer27Converter_SimpleNativeClassI8GUIStyleEEvRK23StaticTransferFieldInfoR31RuntimeSerializationCommandInfoRT0_
qhc:__ZL22StaticInitializeShaderPv
Bvh:__Z56RuntimeInvoker_t_224166001_0_t1628762099_0_t1628762099_0PK10MethodInfoPvPS2_
qYe:_m1101975172_0
uBh:__Z42RuntimeInvoker_t1628762041_0_t1636693376_0PK10MethodInfoPvPS2_
lpd:__ZN14PhysicsManager23VirtualRedirectTransferER19StreamedBinaryWriteILb0EE
P3h:__ZNSt13runtime_errorC2EPKc
w4a:__Z35Register_UnityEngine_Resources_Loadv
QVb:__Z19TransferField_ArrayI14SafeBinaryRead16Converter_StringEvRK23StaticTransferFieldInfoR31RuntimeSerializationCommandInfoRT0_
n5g:__Z59t1621492670_0_CustomAttributesCacheGenerator_m_1795390263_0P21CustomAttributesCache
ef:_rename
AG:_GC_exit_check
dPf:_m_1884372673_0
bid:__ZNK5physx2Gu15OBBTriangleTest10obbTriTestERKNS_6PxVec3ES4_S4_
AXg:_m_1583034920_0_gshared
mrb:__ZNSt3__16vectorI7SubMesh13stl_allocatorIS1_L18MemLabelIdentifier15ELi16EEE21__push_back_slow_pathIKS1_EEvRT_
xeg:_m_1831686630_0
pSg:_m_456553753_0
zZ:__Z20UnlockObjectCreationv
ich:__Z45t_1407250869_0_CustomAttributesCacheGeneratorP21CustomAttributesCache
Xpf:_m1136207264_0
G$d:__ZN5physx3Pvd17PvdPropertyFilterINS_2Sn17RepXVisitorWriterINS_17PxVehicleTireDataEEEE27extendedDualIndexedPropertyILj602ES4_jjfEEvjRKNS_33PxExtendedDualIndexedPropertyInfoIXT_ET0_T1_T2_T3_EEjj
Dob:__ZN4ListI8ListNodeI9BehaviourEE9push_backERS2_
g_h:__ZNKSt3__18time_getIwNS_19istreambuf_iteratorIwNS_11char_traitsIwEEEEE10__get_yearERiRS4_S4_RjRKNS_5ctypeIwEE
LPb:__ZN14SerializedFile4Type8ReadTypeILb0EEEbibiRPKhS3_
Dng:_m_284660901_0
yAe:_m1086436674_0_gshared
IRg:_m_1976759147_0
SXc:__ZN5physx18PxsDynamicsContext23atomIntegrationParallelEfPKPNS_11PxsBodyCoreEPKPNS_12PxsRigidBodyEjPKNS_2Cm13SpatialVectorEPNS_13PxcSolverBodyEPNS_17PxcSolverBodyDataEPSA_RjSI_RNS_10PxBaseTaskE
zGg:_m51663653_0
RWe:_m_1966744007_0
Bf:_emscripten_glStencilOpSeparate
cvf:_m_930644685_0
mlg:_m1113505532_0
YVa:__ZN19ShaderPropertySheet18AddTextureFromInfoERKN9ShaderLab16FastPropertyNameEPKNS0_21ParserTexturePropertyE
kba:__ZN15SkyboxGenerator28GetCubemapSkyboxVertexFormatEv
aDh:__Z70RuntimeInvoker_t_887538054_0_t_887538054_0_t1636693376_0_t_887538054_0PK10MethodInfoPvPS2_
YKe:_m1585739833_0
Zua:__Z36scripting_class_get_method_from_nameP14ScriptingClassPKci
RP:__ZN6il2cpp2os10ThreadImpl12QueueUserAPCEPFvPvES2_
dle:__ZN5physx12PxControllerD2Ev
uuh:__Z42RuntimeInvoker_t_224751869_0_t1458036598_0PK10MethodInfoPvPS2_
Vxe:_m1026780308_0_gshared
B2h:__ZNSt3__112__asprintf_lEPPcP15__locale_structPKcz
CHd:__ZNK5physx2Gu15HeightFieldUtil12traceSegmentI25CapsuleTraceSegmentReportLb0ELb0ELb1EEEvRKNS_6PxVec3ES6_PT_PS5_
h8g:__Z45t_1304731514_0_CustomAttributesCacheGeneratorP21CustomAttributesCache
ojf:_m_1608887232_0
Uja:__ZN9ShaderLab16ParserSubProgram6BindCBEPKci
mXc:__ZN5physx10PxsContext23prepareCMDiscreteUpdateEPNS_10PxBaseTaskE
cTa:__ZNK14SerializedFile12GetHighestIDEv
Dza:__ZN8RendererC2E12RendererType18MemLabelIdentifier18ObjectCreationMode
oH:_il2cpp_class_is_abstract
ag:_emscripten_glGetError
khf:_t1159094344_0_marshal_back
bNf:_m_136617167_0
pHf:_m_1452949496_0
JKg:_m_1712635496_0
ooe:_m_1635334042_0_gshared
OVd:__ZThn4_N16RayRTreeCallbackILi1ELb1EE14processResultsEjPj
Sed:__ZN5physx2Gu17RadixSortBuffered4SortEPKfj
ERf:_m_289120407_0
fWg:_m1833044272_0_gshared
Wob:__ZN6prcoreL18BlitIntegerToFloatERK14ImageReferenceRS0_
Fcf:_m2011642604_0
R2g:__Z44t1628762194_0_CustomAttributesCacheGeneratorP21CustomAttributesCache
stb:__Z14resize_trimmedINSt3__16vectorI4PPtrI9Texture2DENS0_9allocatorIS4_EEEEEvRT_j
vHd:__ZN27ConvexVsMeshOverlapCallbackC2ERKN5physx2Gu10ConvexMeshERKNS0_11PxMeshScaleERKNS0_2Cm23FastVertex2ShapeScalingERKNS0_11PxTransformESE_bRKNS1_3BoxE
LEf:_m2017636865_0
vAh:__Z69RuntimeInvoker_t_19515315_0_t1628762041_0_t1628762041_0_t1628762099_0PK10MethodInfoPvPS2_
xpe:_m147444170_0_gshared
jP:__ZN6il2cpp2os4File5CloseEPNS0_10FileHandleEPi
fUd:__ZN13PhysicsModule17SetRigidBodyStateER9RigidbodyRKN8IPhysics14RigidBodyStateE
kjg:_m1251902514_0
j4c:__ZN5physx2Sq12BucketPruner11shiftOriginERKNS_6PxVec3E
YGe:_m2080485974_0
Dvd:__ZN5physx6shdfnd5ArrayIPNS_2Sc16ArticulationCoreENS0_19ReflectionAllocatorIS4_EEE15growAndPushBackERKS4_
LQb:__Z16Transfer_BuiltinI11Quaternionf18StreamedBinaryReadILb1EELb0EEvRK29SerializationCommandArgumentsR31RuntimeSerializationCommandInfo
EXe:_m_788488374_0
wuh:__Z42RuntimeInvoker_t1628762041_0_t1458036598_0PK10MethodInfoPvPS2_
Sg:__setLetterbox
wph:__Z57t_867674284_0_CustomAttributesCacheGenerator_m936021879_0P21CustomAttributesCache
esa:__Z12SetGfxDeviceP9GfxDevice
wRe:_m_2047309318_0
MGa:__ZN11TimeManager11GetRealtimeEv
srd:__ZN5physx6shdfnd5ArrayIN12_GLOBAL__N_119VertexDistanceCountENS0_19ReflectionAllocatorIS3_EEE15growAndPushBackERKS3_
WMc:__ZN5physx2Sc16InteractionScene25removeFromActiveActorListERNS0_5ActorE
TJa:__Z15WeldVertexArrayR13dynamic_arrayI8Vector3fLj4EERS_I13BoneInfluenceLj16EERS_ItLj2EES7_
pke:__ZN5physx3Ext21InertiaTensorComputer6rotateERKNS_7PxMat33E
NKf:_m_551843356_0
LLa:__ZN15SerializeTraitsI31ArrayOfManagedObjectsTransfererE8TransferI13ProxyTransferEEvRS0_RT_
$uf:_m379800408_0
l$d:__ZN5physx3Pvd17PvdPropertyFilterINS_2Sn17RepXVisitorWriterINS_27PxVehicleTireLoadFilterDataEEEE14handleAccessorILj565ENS_22PxRepXPropertyAccessorILj565ES4_ffEEEEvRKT0_
Lmh:__Z67t1146479063_0_CustomAttributesCacheGenerator_U3CU3Ef__switchU24map8P21CustomAttributesCache
nY:_stbir_resize
Qob:__ZN13dynamic_arrayIN22RenderingCommandBuffer11TemporaryRTELj4EE7reserveEj
kbg:_m_1454083788_0
r5g:__Z58t1621492670_0_CustomAttributesCacheGenerator_m_495655309_0P21CustomAttributesCache
DTb:__ZNSt3__16vectorIs13stl_allocatorIsL18MemLabelIdentifier1ELi16EEE8__appendEj
Erb:__ZN4PPtrI4MeshE8TransferI14SafeBinaryReadEEvRT_
f1c:__ZN5physx23PxcPCMContactCapsuleBoxERKNS_2Gu13GeometryUnionES3_RKNS_11PxTransformES6_RKfRNS_10PxcNpCacheERNS0_13ContactBufferE
UZa:__Z37ReadDirectoryInfo_UnityWebAndUnityRawR12FileAccessorRKN20ArchiveStorageHeader6HeaderERNS1_13DirectoryInfoE
myh:__Z28RuntimeInvoker_t1762357312_0PK10MethodInfoPvPS2_
upg:_m_659102727_0
u0g:_m_1157537401_0_gshared
eua:__ZN16GeometryJobTasks20ScheduleGeometryJobsER9GfxDevicePFvP15GeometryJobDataEPK22GeometryJobInstructionjb
qLb:__ZN25PathNamePersistentManagerD2Ev
pSa:__ZN17PersistentManager48IntegrateObjectAndUnlockIntegrationMutexInternalEi
YKg:_m145640619_0
kTa:__Z12CollectPPtrsR6ObjectPNSt3__13setIiNS1_4lessIiEENS1_9allocatorIiEEEE
Qme:__ZN20UnityConnectSettings23VirtualRedirectTransferER13ProxyTransfer
Th:_glStencilFunc
h9:__ZN13RendererScene15InitializeUmbraEv
di:___ctype_toupper_loc
emg:_m_78610816_0
log:_m1660715632_0
SZc:__ZNK5physx15PxsParticleData15getWorldBoundsVEv
XX:_UNITY_png_write_sCAL_s
jia:__ZN9ShaderLab9IntShader8PostLoadEv
Cce:__ZThn4_N5physx5cloth9ClothImplINS0_7SwClothEE12setTrianglesENS0_5RangeIKNS_6PxVec3EEEjj
nWd:__ZN12_GLOBAL__N_124HfTrianglesEntityReport27onEventEjPj
WMa:__ZN13MonoBehaviour14StartCoroutineEPKcP15ScriptingObject
vqd:__GLOBAL__sub_I_ExtDefaultSimulationFilterShader_cpp
HOd:__ZN5physx22NpParticleBaseTemplateINS_16PxParticleSystemENS_16NpParticleSystemEE17setStaticFrictionEf
psh:__Z41RuntimeInvoker_t_19515315_0_t1628762194_0PK10MethodInfoPvPS2_
cFf:_m_1086299595_0
TSb:__ZNSt3__16vectorI8MonoPPtr13stl_allocatorIS1_L18MemLabelIdentifier1ELi16EEE6assignINS_11__wrap_iterIPS1_EEEENS_9enable_ifIXaasr21__is_forward_iteratorIT_EE5valuesr16is_constructibleIS1_NS_15iterator_traitsISB_E9referenceEEE5valueEvE4typeESB_SB_
Yz:__ZN4FMOD6SoundI7releaseEv
GTd:__ZN5physx20NpRigidActorTemplateINS_14PxRigidDynamicEE15setActorSimFlagEb
yDh:__Z56RuntimeInvoker_t_393459662_0_t_818288618_0_t_393459662_0PK10MethodInfoPvPS2_
zOf:_m_592116134_0
tMf:_m2144732407_0
cWe:_m_1036647695_0
dXe:_m_1610792880_0
u$a:__ZN10MemoryFile9SetLengthEy
elc:__ZNK5physx3Cct26CharacterControllerManager16getNbControllersEv
ri:_glTexStorage2D
Vug:_m1128336038_0
exf:_m_1234019922_0
Bjf:_m_417786546_0
Njb:__ZNSt3__16__treeINS_12__value_typeINS_12basic_stringIcNS_11char_traitsIcEE13stl_allocatorIcL18MemLabelIdentifier53ELi16EEEEP11AssetBundleEENS_19__map_value_compareIS8_SB_NS_4lessIS8_EELb1EEES5_ISB_LS6_53ELi16EEE4findIS8_EENS_15__tree_iteratorISB_PNS_11__tree_nodeISB_PvEEiEERKT_
R6d:__ZN5physx6shdfnd4sortIPvNS0_4LessIS2_EENS0_19ReflectionAllocatorIN17PxcPoolMallocData10PoolData16EEEEEvPT_jRKT0_RKT1_
bTe:_m_464598002_0
l_d:__ZN5physx7profile10DataBufferINS_6shdfnd6MutexTINS0_26WrapperReflectionAllocatorIhEEEENS0_14ScopedLockImplIS6_EEE17handleBufferFlushEPKhj
cmh:__Z68t1024680945_0_CustomAttributesCacheGenerator_U3CU3Ef__switchU24map10P21CustomAttributesCache
Uq:__ZNK16LevelGameManager7GetNameEv
HQc:__ZThn4_N5physx5cloth9ClothImplINS0_7SwClothEE23setSelfCollisionIndicesENS0_5RangeIKjEE
PBe:_m1326759648_0_gshared
Yg:_JS_SystemInfo_HasWebGL
FWc:__ZN5physx20PxsConstraintProjectEPKNS_13PxsConstraintEbf
twc:__ZN5physx7NpShape7setFlagENS_11PxShapeFlag4EnumEb
TFf:_m1880509270_0
y_g:_m1340009994_0_gshared
_1:__ZN10TagManager32RegisterDefaultTagsAndLayerMasksEv
OQc:__ZN5physx5cloth9ClothImplINS0_7SwClothEE19setVirtualParticlesENS0_5RangeIA4_KjEENS4_IKNS_6PxVec3EEE
NKc:__ZN5physx2Sc35ParticleElementRbElementInteraction12onDeactivateEj
A1d:__ZNK5physx27PxVehicleDriveGeneratedInfo23visitInstancePropertiesINS_18RepXPropertyFilterINS_2Sn17RepXVisitorWriterINS_16PxVehicleDriveNWEEEEEEEjT_j
xTf:_m_606116715_0
y9c:__Z36getPxVehicleDrive4W_ConcreteTypeNamePKN5physx16PxVehicleDrive4WE
$5c:__ZN5physx23PxVehicleWheels4SimData17setSuspensionDataEjRKNS_23PxVehicleSuspensionDataE
HUh:_fmodf
och:__Z44t_302864450_0_CustomAttributesCacheGeneratorP21CustomAttributesCache
Rfb:__ZN4gles8InitCapsEP7ApiGLESP12GraphicsCapsR16GfxDeviceLevelGL
GHe:_m_1547804374_0
ufa:__ZN6prcore14BlitImageFloatERK14ImageReferenceRS0_NS0_8BlitModeE
T7:__Z24CalculateVertexLightDataRK15SharedLightDataR14GfxVertexLight
shf:_m680239315_0
bj:_glEnable
NCb:__ZNK19ShaderPropertySheet15GetTypeEndIndexENS_12PropertyTypeE
E3c:__ZN5physx2Sq8AABBTreeC2Ev
OAh:__Z84RuntimeInvoker_t_224166001_0_t_887538054_0_t_887538054_0_t1628762099_0_t1636693376_0PK10MethodInfoPvPS2_
nch:__Z44t1529365628_0_CustomAttributesCacheGeneratorP21CustomAttributesCache
P1a:_LzmaDec_Allocate
x7e:_m1600048397_0
fye:_m218083500_0_gshared
Tmh:__Z68t_956935956_0_CustomAttributesCacheGenerator_U3CU3Ef__switchU24map13P21CustomAttributesCache
X4c:__ZN5physx21PxVehicleDriveDynDataC2Ev
LNh:__ZN23InterfaceActionInvoker4ItbbbE6InvokeEjP8TypeInfoPvtbbb
wAg:_m706721210_0
qgd:__ZN5physx2Gu10ConvexMeshD2Ev
Ggh:__Z58t638321161_0_CustomAttributesCacheGenerator_m_1260719746_0P21CustomAttributesCache
aVh:_atoi
bVh:_atol
IL:__ZN6il2cpp6icalls8mscorlib6System10Reflection9FieldInfo25internal_from_handle_typeE12Il2CppIntPtrS5_
$bg:_m_168076521_0
ZOh:__ZL15CastclassSealedP13t_887538054_0P8TypeInfo556
z9c:__ZN5physx29PxVehicleDrive4WGeneratedInfoC2Ev
$ic:__ZN16CircleCollider2D13StaticCleanupEPv
czh:__Z57RuntimeInvoker_t_224751869_0_t_1047952454_0_t1628762099_0PK10MethodInfoPvPS2_
jp:FUNCTION_TABLE_viifi
mp:FUNCTION_TABLE_viiff
p_h:__ZNKSt3__18time_getIwNS_19istreambuf_iteratorIwNS_11char_traitsIwEEEEE11__get_am_pmERiRS4_S4_RjRKNS_5ctypeIwEE
WJc:__ZNK5physx2Sc8ShapeSim10getBodySimEv
Ixh:__Z85RuntimeInvoker_t1628762099_0_t_887538054_0_t1628762099_0_t1628762099_0_t_1047982445_0PK10MethodInfoPvPS2_
gPe:_m_975431800_0
jW:__ZN6il2cpp2vm14TypeNameParser5ParseEb
_og:_m_386370033_0
yfe:__ZN5physx6shdfnd5ArrayIPvNS0_19ReflectionAllocatorINS_2Cm5BlockIhLj128EEEEEE15growAndPushBackERKS2_
GEa:__ZNK9Transform13GetWorldScaleEv
uXh:__ZNSt3__115basic_streambufIwNS_11char_traitsIwEEE8overflowEj
Wsg:_m511499327_0
wPd:__ZN5physx2Sc11Interaction10onActivateEj
EXd:__ZNK5physx2Gu29EPASupportMapPairRelativeImplINS0_4BoxVENS0_11ConvexHullVEE6getDirEv
Pwc:__ZN5physx14NpShapeManager15setupSceneQueryERNS_2Sq17SceneQueryManagerERKNS_12PxRigidActorERKNS_7NpShapeE
xlb:__ZL10RenderFaceR9GfxDeviceR18MaterialStateCacheP13RenderTextureiif
tfc:__ZL37stbir__resample_horizontal_downsampleP11stbir__infoiPf
B0:__ZNK5Unity9Component38MarkGameObjectAndComponentDependenciesER27GarbageCollectorThreadState
RQc:__ZNK5physx5cloth11SwClothData9reconcileERNS0_7SwClothE
HNc:__ZNK5physx2Sc9ClothCore23getExternalAccelerationEv
dne:__ZN11UnityEngine15PlatformWrapper13IsDebugDeviceEv
VD:__ZNK7Texture21GetShadowSamplingModeEv
Qr:__ZN8Animator16StaticInitializeEPv
GGd:__ZN5physx2Gu13coarseCullingERKNS_6PxVec3ES3_ffRKNS_10PxTriangleE
T6f:_m_567689765_0
cRc:__ZN5physx5cloth11SwCollisionI8Scalar4fE16collideTrianglesERKNS0_14IterationStateIS2_EE
uai:_emscripten_glVertexAttrib2fv__wrapper
hfh:__Z44t1157257435_0_CustomAttributesCacheGeneratorP21CustomAttributesCache
J0g:_m_1914799194_0_gshared
vHc:__ZN5physx2Sc5Scene29processNarrowPhaseTouchEventsEv
Cwa:__ZN4crnd12symbol_codec32decode_receive_static_data_modelERNS_25static_huffman_data_modelE
WOa:__ZN18ScriptingArguments8AddFloatEf
xq:__ZNSt3__16__treeIiNS_4lessIiEENS_9allocatorIiEEE7destroyEPNS_11__tree_nodeIiPvEE
bLf:_m1718232911_0
Jzb:__ZN8Remapper21GetOrGenerateMemoryIDERK26SerializedObjectIdentifier
D7a:__ZN13EmscriptenWWW10OnResponseEPviS0_jPc
f9c:__Z39getPxVehicleDriveDynData_GearSwitchTimePKN5physx21PxVehicleDriveDynDataE
Ulc:__ZNK5physx3Cct15ObstacleContext11getObstacleEj
gXe:_pinvoke_delegate_wrapper_t_1508760126_0
sRf:_m_845750158_0
j5e:_m1603574341_0
ZZe:_m1388175350_0
j5d:__ZN5physx2Sn21RepXVisitorReaderBaseINS_23PxVehicleDriveSimData4WEE15complexPropertyINS_22PxRepXPropertyAccessorILj657ENS_21PxVehicleDriveSimDataERKNS_18PxVehicleGearsDataES7_EEKNS_31PxVehicleGearsDataGeneratedInfoEEEvPjRKT_RT0_
OSb:__ZNSt3__16vectorINS_12basic_stringIcNS_11char_traitsIcEE13stl_allocatorIcL18MemLabelIdentifier1ELi16EEEES4_IS7_LS5_1ELi16EEE7reserveEj
z$h:__ZNKSt3__19money_getIcNS_19istreambuf_iteratorIcNS_11char_traitsIcEEEEE6do_getES4_S4_bRNS_8ios_baseERjRNS_12basic_stringIcS3_NS_9allocatorIcEEEE
pMb:__ZN20LocalFileSystemPosixD0Ev
h2a:__Z23GetGlobalBoolPreferencePKcb
OKf:_m827206706_0
K1g:_m876943730_0_gshared
fzh:__Z43RuntimeInvoker_t_224166001_0_t_1047952454_0PK10MethodInfoPvPS2_
oNe:_m_496041037_0
bMb:__ZN21AssetBundleFileSystem5WriteER13FileEntryDatayPvPy
YAd:__ZN5physx13IslandManager6resizeEj
nb:invoke_viidi
Awd:__ZN5physx6shdfnd8PoolBaseINS_2Cm5BlockIPvLj16EEENS0_19ReflectionAllocatorIS5_EEE17releaseEmptySlabsEv
Cfg:_m1820419926_0
Xt:__ZN9AudioClip7CleanupEv
Yoh:__Z59t1159094344_0_CustomAttributesCacheGenerator_m_2034532203_0P21CustomAttributesCache
_jc:__ZN5physx3Cct13BoxControllerD0Ev
Vlb:__ZNSt3__16vectorIN11HaloManager4HaloENS_9allocatorIS2_EEE21__push_back_slow_pathIKS2_EEvRT_
ADa:__ZN14Texture2DArray13RegisterClassEv
uV:__ZN6il2cpp2vm7Runtime17InvokeConvertArgsEPK10MethodInfoPvPP12Il2CppObjectiS8_
kdh:__Z60t_1674367126_0_CustomAttributesCacheGenerator_m_1250065047_0P21CustomAttributesCache
Crd:__ZL20updateMassAndInertiabRN5physx11PxRigidBodyEPKfjPKNS_6PxVec3Eb
g5d:__ZN5physx2Sn21RepXVisitorReaderBaseINS_27PxVehicleDifferential4WDataEE12readPropertyIfEEbRT_
Jve:_m1134937082_0_gshared
Un:FUNCTION_TABLE_viiiiiifiii
s8f:_m1161386136_0
rBg:_m_1941344604_0
qjg:_m_35471148_0
WQa:__ZN17RemapPPtrTransferC2E24TransferInstructionFlagsb
PBg:_m_313718005_0
ATa:__ZN8TypeTree8BlobReadERPKhS1_ib
Omh:__Z67t219648422_0_CustomAttributesCacheGenerator_U3CU3Ef__switchU24map10P21CustomAttributesCache
Kob:__ZNSt3__16vectorINS_4pairIiiEE13stl_allocatorIS2_L18MemLabelIdentifier1ELi16EEE21__push_back_slow_pathIKS2_EEvRT_
GOa:__ZN18LoadSceneOperation23GetAllowSceneActivationEv
z$f:_m_270869448_0
Jkb:__ZN15SerializeTraitsI14ConstantStringE8TransferI19StreamedBinaryWriteILb0EEEEvRS0_RT_
Dib:__ZN6il2cpp2vmL17SetupEventsLockedEP8TypeInfoRKNS_2os12FastAutoLockE
qGb:__ZN6CameraD0Ev
d6:__ZN31CanvasBatchIntermediateRenderer16StaticInitializeEPv
kTe:_m737020123_0
J$:__ZN10GameObjectC2E18MemLabelIdentifier18ObjectCreationMode
rka:__Z16realloc_internalPvji18MemLabelIdentifieriPKci
Jzg:_m_904225285_0
SMb:__ZL18ProgramUniform1uivPK7ApiGLESjiihPKv
tDa:__ZN14Texture2DArray13RebuildMipMapEv
Ww:__ZN24AudioScriptBufferManager15GetPCMReadArrayEjRP14ScriptingArray
V$h:__ZNSt3__18messagesIcED0Ev
cLd:__ZNK5physx19NpRigidBodyTemplateINS_18PxArticulationLinkEE27getMinCCDAdvanceCoefficientEv
tTe:_m_989285915_0
uei:_emscripten_glIsFramebuffer__wrapper
Xxd:__ZN12_GLOBAL__N_111storeBoundsI8Scalar4fEEvPfRKN5physx5cloth11BoundingBoxIT_EE
c5:__ZN9LensFlare13StaticCleanupEPv
Koe:_m1332789688_0_gshared
Fq:__ZN6Object23VirtualRedirectTransferER19StreamedBinaryWriteILb1EE
yBa:__ZN13ScreenManager18SetAllowCursorLockEb
rnd:__ZN5Unity10HingeJoint16StaticInitializeEPv
A2b:__ZN30RuntimeInitializeOnLoadManager15ClassMethodInfo8TransferI14SafeBinaryReadEEvRT_
RPd:__ZNK5physx2Sc10ClothShape8isActiveEv
dQa:__ZN9TextAsset8TransferI14SafeBinaryReadEEvRT_
NNe:_m_855244222_0
vD:__ZL22InitializeModule_Audiov
q4c:__ZN5physx2Sq11PruningPoolD0Ev
Gue:_m52259357_0_gshared
V_a:__ZN16MemoryFileSystem8IsLockedERK13FileEntryData
gVc:__ZN3MBP15removeBoxPrunerEj
oRb:__Z16Transfer_BuiltinIj18StreamedBinaryReadILb1EELb1EEvRK29SerializationCommandArgumentsR31RuntimeSerializationCommandInfo
sDb:__ZN13dynamic_arrayI13FileEntryInfoLj8EE7reserveEj
ysf:_m_1823716516_0
Mof:_m_9372226_0
Vl:_emscripten_glBindRenderbuffer
Xmf:_m1516136036_0
XEd:__Z39getPxVehicleDriveDynDataMGearSwitchTimePKN5physx21PxVehicleDriveDynDataE
HIf:_m_488869739_0
_S:__ZN6il2cpp2vm5Image33GetCachedMemoryMappedResourceFileEP24Il2CppReflectionAssembly
yS:__ZN6il2cpp2vm5Field14GetValueObjectEP9FieldInfoP12Il2CppObject
Y9d:__ZN5physx6shdfnd4sortIPvNS0_4LessIS2_EENS0_19ReflectionAllocatorINS_21PxsBodyTransformVault13PxsBody2WorldEEEEEvPT_jRKT0_RKT1_
Qah:__Z45t_1775593653_0_CustomAttributesCacheGeneratorP21CustomAttributesCache
Xke:__ZL15SweepBoxCapsulePKN5physx3Cct9SweepTestEPKNS0_11SweptVolumeEPKNS0_11TouchedGeomERKNS_14PxExtendedVec3ERKNS_6PxVec3ERNS0_12SweptContactE
O1c:__ZN5physx22getImpulseResponseSlowERKNS_9PxcFsDataEjRKNS_14PxcSIMDSpatialERS3_jS5_S6_
mZb:__Z16Transfer_BuiltinI8BitField17RemapPPtrTransferLb1EEvRK29SerializationCommandArgumentsR31RuntimeSerializationCommandInfo
FMa:__ZN13MonoBehaviour17RemoveFromManagerEv
Dxa:__ZN14GraphicsHelper5ClearEjRK10ColorRGBAffjR17ShaderPassContext
QKc:__ZN5physx2Sc19ParticlePacketShapeD2Ev
LXg:_m_234281445_0_gshared
VNb:__ZL11DecodeValuePPKcS0_
Vjb:__ZNSt3__16__treeIiNS_4lessIiEE13stl_allocatorIiL18MemLabelIdentifier49ELi16EEE7destroyEPNS_11__tree_nodeIiPvEE
bqa:__ZN12SkinMeshInfo10DeallocateEPS_
_Kg:_m1394183022_0
r_a:__ZN20ArchiveStorageReader28AcquireAndPrefillUnusedBlockEjPNS_11CacheResultE
hub:__Z12NHxRoughnessIA4_tEvP9Texture2DPT_iiii
Rle:__Z6simd4iiiii
AEa:__ZN9Transform5ResetEv
QPa:__ZN9TextAsset9SetScriptERK8UnityStr
B7a:__Z17MainLoopKeepalivePv
ztc:__ZN5physx7NpScene16addActorInternalERNS_7PxActorE
Udg:_m_1967386834_0
rba:__Z24ScheduleCullingAllGroupsR8JobFenceRK22SceneCullingParameters4PPtrI6CameraERK13CullingOutputRK13dynamic_arrayIP12CullingGroupLj4EERKS_
APg:_m1327587805_0
eQe:_m2125938125_0
Nea:__Z14CalcHullBoundsPK8Vector3fPKhhRK5PlaneRK10Matrix4x4fR10MinMaxAABB
Umf:_m1898052640_0
xcg:_m543692318_0
Pca:__Z19SetupLODFadeKeywordR17ShaderPassContexti
aFb:__ZL25CheckCopyTextureArgumentsRK7ApiGLESP11GLESTextureS3_
M2e:_m1262096688_0
Dtb:__ZN13dynamic_arrayI26EnlightenSystemInformationLj8EE6insertEPS0_PKS0_S4_
Vsb:__ZNSt3__16vectorIP14ScriptingField13stl_allocatorIS2_L18MemLabelIdentifier1ELi16EEE21__push_back_slow_pathIKS2_EEvRT_
wCf:_m_225056748_0
kpd:__ZN14PhysicsManager23VirtualRedirectTransferER18StreamedBinaryReadILb1EE
oA:__ZN4FMOD7SystemI9playSoundE17FMOD_CHANNELINDEXPNS_5SoundEbPPNS_7ChannelE
rAc:__ZNK5physx7NpCloth16getStretchConfigENS_22PxClothFabricPhaseType4EnumE
nP:__ZN6il2cpp2os4File4ReadEPNS0_10FileHandleEPciPi
hEd:__Z41getPxVehicleSuspensionDataMSpringStrengthPKN5physx23PxVehicleSuspensionDataE
hod:__ZN14PhysicMaterial16StaticInitializeEPv
x0c:__ZN5physx16solveExtFrictionERKNS_23PxcSolverConstraintDescERNS_16PxcSolverContextE
tVh:_realloc
xTg:_m_257713028_0
VKa:__ZN30RuntimeInitializeOnLoadManager23VirtualRedirectTransferER17RemapPPtrTransfer
qSg:_m_533434062_0
U5h:dynCall_viii
Gzf:_m_730564322_0
JKf:_m_1090220940_0
_Cg:_m330657435_0
Bqd:__GLOBAL__sub_I_PxsFluidDynamics_cpp
t1g:_m_277106954_0_gshared
eK:__ZN6il2cpp6icalls8mscorlib6System8MonoType14get_attributesEP20Il2CppReflectionType
FZ:__Z43DestroyWithoutLoadingButDontDestroyFromFilei
BDe:_m972351899_0_gshared
rCc:__ZN5physx2Sc21ArticulationJointCore28setSwingLimitContactDistanceEf
NKd:__ZNK5physx20NpRigidActorTemplateINS_18PxArticulationLinkEE14getConstraintsEPPNS_12PxConstraintEjj
CFh:__Z70RuntimeInvoker_t_224166001_0_t_887538054_0_t_224751869_0_t_224751869_0PK10MethodInfoPvPS2_
wc:_emscripten_glBlendFuncSeparate
iva:__Z20scripting_string_newPKc
AQe:_m1176188661_0
rJh:__Z28RuntimeInvoker_t_456977453_0PK10MethodInfoPvPS2_
wQh:__ZN23InterfaceActionInvoker1IbE6InvokeEjP8TypeInfoPvb
ikg:_m669680991_0
$ug:_m1782853785_0
v7f:_m_809423034_0
SMf:_m252748273_0
o:_stdin
eLd:__ZNK5physx19NpRigidBodyTemplateINS_18PxArticulationLinkEE27getMaxDepenetrationVelocityEv
pwe:_m375843822_0_gshared
Arh:__Z55RuntimeInvoker_t_19515315_0_t_887538054_0_t_887538054_0PK10MethodInfoPvPS2_
Fqf:_m_1887282980_0
kjd:__ZThn8_N5physx2Gu11HeightFieldD1Ev
$mf:_m1048565924_0
gje:__ZN5physx19NpRigidBodyTemplateINS_14PxRigidDynamicEED0Ev
mKd:__ZNK5physx19PxArticulationJoint19getConcreteTypeNameEv
Mw:__ZN17AudioCustomFilterD2Ev
t0h:__ZNSt3__16locale2id6__initEv
qcb:__ZN18GfxFramebufferGLES18ReleaseFramebufferEP17RenderSurfaceBaseP14GfxContextGLES
Mab:__ZNK7ApiGLES15GetDriverStringEN2gl11DriverQueryE
oy:__Z31GetParentSampleClipFromInstancePN11SoundHandle8InstanceE
Lke:__ZN5physx11PxHitBufferINS_12PxOverlapHitEE14processTouchesEPKS1_j
ulh:__Z44t_715562799_0_CustomAttributesCacheGeneratorP21CustomAttributesCache
Dhe:__ZL22addOrRemoveRigidObjectILb0ELb0ELb0ELb1EN5physx3Scb11RigidStaticEEvRNS0_2Sc5SceneERT3_b
DO:__ZN6il2cpp2os16ThreadLocalValue8GetValueEPPv
ZFg:_m869946971_0
ABe:_m410564889_0_gshared
Nn:FUNCTION_TABLE_iiiiifiif
yRf:_m_1990246666_0
Ks:__ZN17PackedFloatVector8TransferI18StreamedBinaryReadILb1EEEEvRT_
T5a:__Z52Object_CUSTOM_GetOffsetOfInstanceIDInCPlusPlusObjectv
rrc:__ZNK5physx9NpPhysics11getNbShapesEv
Vp:setThrew
pUe:_m_1806289154_0
Une:__ZN13RuntimeStaticI20HardwareInfoReporterE10InitializeEv
Cpg:_m2023182447_0
Nth:__Z42RuntimeInvoker_t1628762099_0_t_766435453_0PK10MethodInfoPvPS2_
Q8b:__ZN6prcoreL17RemapGenericFloatI17TexFormatRGBFloat15TexFormatRGHalfEEvPKNS_9InnerInfoE
dPh:__ZN23InterfaceActionInvoker2IP13t_756155572_0P13t_887538054_0E6InvokeEjP8TypeInfoPvS1_S3_
rXg:_m16325010_0_gshared
_hd:__ZN5physx2Gu20intersectTriangleBoxERKNS_6PxVec3ES3_S3_S3_S3_
oMf:_m1977035706_0
B8g:__Z43t871742054_0_CustomAttributesCacheGeneratorP21CustomAttributesCache
arc:__ZN5physx10NpMaterial8setFlagsENS_7PxFlagsINS_14PxMaterialFlag4EnumEtEE
Jka:__ZN13BaseAllocator13TryDeallocateEPv
JMe:_m1588393905_0
Qxg:_m_1671221127_0
dbe:__ZNK5physx5cloth9ClothImplINS0_7SwClothEE11getFrictionEv
K_a:__ZN16MemoryFileSystem5WriteER13FileEntryDatayPvPy
azf:_m_1925830754_0
T1a:__Z20GetFirstValueForARGVRKNSt3__112basic_stringIcNS_11char_traitsIcEENS_9allocatorIcEEEE
zu:__ZN13AudioListener17RemoveFromManagerEv
sd:_glAttachShader
xtg:_m382017683_0
lZf:_m_1862482154_0
W7d:__ZN5physx23PxsFluidDynamicsSphTaskD0Ev
X2:__ZNK6Camera19GetProjectionMatrixEv
Age:__ZNK5physx2Cm12DelegateTaskINS_2Sc5SceneEXadL_ZNS3_18clothPreprocessingEPNS_10PxBaseTaskEEEE7getNameEv
yvc:__ZNK5physx7NpScene24getWakeCounterResetValueEv
kMd:__ZN5physx20NpRigidActorTemplateINS_14PxRigidDynamicEE17resolveReferencesERNS_24PxDeserializationContextE
dOg:_m_1563762093_0
eDe:_m_1337900814_0_gshared
Cph:__Z59t_867674284_0_CustomAttributesCacheGenerator_m_1746599788_0P21CustomAttributesCache
gkd:__ZN5physx2Gu32PCMConvexVsMeshContactGeneration20generateLastContactsEv
EZ:__Z38PreallocateObjectFromPersistentManagerib
Jpg:_m611616238_0
Pqc:__ZThn12_N5physx10NpMaterialD0Ev
OCa:__ZNK9Texture2D20GetUnscaledTextureIDEv
Yig:_m_195663036_0
zbi:_glFenceSync__wrapper
zZf:_m_1336671979_0
Nvc:__ZN5physx7NpShape14onRefCountZeroEv
AHf:_m_844890916_0
xtd:__ZNK5physx13NpVolumeCache10multiQueryINS_10PxSweepHitEEEbRKNS_15MultiQueryInputERNS_13PxHitCallbackIT_EENS_7PxFlagsINS_9PxHitFlag4EnumEtEERKNS_17PxQueryFilterDataEPNS_21PxQueryFilterCallbackEf
hVb:__Z16Transfer_BuiltinI11Quaternionf14SafeBinaryReadLb1EEvRK29SerializationCommandArgumentsR31RuntimeSerializationCommandInfo
bEd:__Z40getPxVehicleWheelDataMMaxHandBrakeTorquePKN5physx18PxVehicleWheelDataE
uoh:__Z91t_322069712_0_CustomAttributesCacheGenerator_t_322069712_0_m1190453926_0_Arg3_ParameterInfoP21CustomAttributesCache
Bxe:_m1945534355_0_gshared
thb:__GLOBAL__sub_I_GUIEventManager_cpp
j_c:__ZN5physx20PxsParticleSystemSim18packetShapesUpdateEPNS_10PxBaseTaskE
Ash:__Z56RuntimeInvoker_t_19515315_0_t_887538054_0_t_1425457070_0PK10MethodInfoPvPS2_
hZe:_m1741929684_0
wQf:_m_611056002_0
qVd:__ZN27ConvexVsMeshOverlapCallbackD0Ev
QQg:_m_1323215244_0
v2a:__Z29ClearRepeatingLogMessageStatev
vjd:__ZN5physx2Gu11HeightField12loadFromDescERKNS_17PxHeightFieldDescEb
zub:__ZN15QualitySettings12CleanupClassEv
k0h:__ZNSt3__16locale5__imp11make_globalEv
i9a:__ZN7ApiGLESD2Ev
b2d:__ZN5physx2Sn21RepXVisitorWriterBaseINS_19PxVehicleEngineDataEE23extendedIndexedPropertyINS_3Pvd36PxPvdExtendedIndexedPropertyAccessorILj518ES2_jfEEKNS_18PxUnknownClassInfoEEEvPjRKT_RT0_
o6f:_m_1174914522_0
Ise:_m_1070043694_0_gshared
UYg:_m1819425504_0_gshared
lAd:__ZN5physx6shdfnd8PoolBaseINS_2Gu30LargePersistentContactManifoldENS0_19ReflectionAllocatorIS3_EEE12allocateSlabEv
Uqc:__ZNK5physx10NpMaterial17getReferenceCountEv
TMf:_m268374331_0
T2d:__ZN5physx2Sn21RepXVisitorReaderBaseINS_19PxVehicleClutchDataEE8pushNameEPKc
r4:__ZN6Camera23VirtualRedirectTransferER19StreamedBinaryWriteILb0EE
n6h:dynCall_fidi
F7d:__ZN5physx2Cm12DelegateTaskINS_20PxsParticleSystemSimEXadL_ZNS2_24packetShapesFinalizationEPNS_10PxBaseTaskEEEED0Ev
rvd:__ZN5physx6shdfnd5ArrayIPNS_2Sc8BodyCoreENS0_19ReflectionAllocatorIS4_EEE6resizeEjRKS4_
QSa:__ZN17PersistentManager14IsStreamLoadedERKNSt3__112basic_stringIcNS0_11char_traitsIcEENS0_9allocatorIcEEEE
fKd:__ZN5physx3Cct26CharacterControllerManager16createControllerERNS_9PxPhysicsEPNS_7PxSceneERKNS_16PxControllerDescE
NAb:__Z29StdTemplateConversionFunctionIjhEbPvR14SafeBinaryRead
dfa:__ZN22RenderingCommandBufferC2ERKS_
tNa:__ZNK13MonoBehaviour13GetScriptTypeEv
FAa:__ZN13RenderTexture12SetDimensionE16TextureDimension
IPf:_m_1733167991_0
Wl:_time
bJd:__ZNSt3__16vectorIN5physx12PxOverlapHitENS_9allocatorIS2_EEE8__appendEj
te:_SDL_FreeRW
qie:__ZN5physx6shdfnd8PoolBaseINS_2Cm5BlockIhLj128EEENS0_19ReflectionAllocatorIS4_EEE15disposeElementsEv
wdd:__ZN5physx2Gu5Debug9visualizeERKNS_21PxHeightFieldGeometryERNS_2Cm12RenderOutputERKNS5_8Matrix34ERKNS_9PxBounds3Eyfj
Txc:__ZN5physx3Scb14ParticleSystem14setRestOffsetsEjRKNS_16PxStrideIteratorIKjEERKNS2_IKfEE
And:__ZN12MeshCollider11CreateShapeEPvPK9RigidbodyRK8Vector3f
Bx:__ZN20SoundChannelInstance8getDelayE14FMOD_DELAYTYPEPjS1_
b0a:__ZN21AssetBundleFileSystemC2EPKc
lA:__ZN4FMOD7SystemI17getSoftwareFormatEPiP17FMOD_SOUND_FORMATS1_S1_P18FMOD_DSP_RESAMPLERS1_
Hwe:_m1667580923_0_gshared
Vgf:_m1276784656_0
x:tempBigInt
nsf:_m1500793453_0
Ee:_emscripten_glVertexAttrib1fv
q0a:__Z18ReadStringFromFilePNSt3__112basic_stringIcNS_11char_traitsIcEE13stl_allocatorIcL18MemLabelIdentifier1ELi16EEEERKNS0_IcS2_NS_9allocatorIcEEEE
OBg:_m_1105253351_0
ATh:__ZSt11__terminatePFvvE
Vwc:__ZN5physx13NpVolumeCacheC2EPNS_2Sq17SceneQueryManagerEjj
Sja:__ZN9ShaderLab16ParserSubProgram11SetKeywordsERKNSt3__16vectorINS1_12basic_stringIcNS1_11char_traitsIcEENS1_9allocatorIcEEEENS6_IS8_EEEE
xCc:__ZThn24_N5physx2Sc20ArticulationJointSimD1Ev
Yu:__ZN12AudioManager14systemCallbackEP11FMOD_SYSTEM24FMOD_SYSTEM_CALLBACKTYPEPvS3_
DSf:_m320831869_0
sFh:__Z42RuntimeInvoker_t_942303750_0_t1628762041_0PK10MethodInfoPvPS2_
SLc:__ZN5physx2Sc18ParticleSystemCore14setRestOffsetsEjRKNS_16PxStrideIteratorIKjEERKNS2_IKfEE
HGg:_m1841808901_0
I8:__ZN16ReflectionProbes16UpdateSampleDataEv
bZh:__ZNSt3__114__num_put_base12__format_intEPcPKcbj
cfe:__ZN5physx2Sc17ParticleSystemSimD0Ev
zPf:_m_1819416979_0
qDa:__ZN14Texture2DArray5ResetEv
Oka:__ZN14BatchAllocator6CommitE18MemLabelIdentifier
ZOe:_m_124167738_0
bJg:_m_2073656591_0
XY:__ZN39AssetBundleLoadFromStreamAsyncOperation24TryInitializeMemoryCacheEv
Rfh:__Z57t943011539_0_CustomAttributesCacheGenerator_m_561858030_0P21CustomAttributesCache
eSh:__ZN21InterfaceFuncInvoker1IjP13t_887538054_0E6InvokeEjP8TypeInfoPvS1_
kN:__ZN6il2cpp8metadata14SetupCastClassEP8TypeInfo
tWa:__ZN5Mutex7TryLockEv
Bug:_m_1991401322_0
L4e:_m_332405549_0
yrf:_m459616251_0
pBb:__Z29StdTemplateConversionFunctionIayEbPvR14SafeBinaryRead
HMd:__ZNK5physx20NpRigidActorTemplateINS_13PxRigidStaticEE14getConstraintsEPPNS_12PxConstraintEjj
uYd:__ZN25MeshMTDGenerationCallbackD0Ev
nwe:_m_1814008098_0_gshared
Ryb:__ZNSt3__16__treeI4PPtrI6ObjectENS_4lessIS3_EENS_9allocatorIS3_EEE7destroyEPNS_11__tree_nodeIS3_PvEE
P1g:_m966627989_0_gshared
Ekb:__ZN18StreamedBinaryReadILb0EE21TransferSTLStyleArrayI13dynamic_arrayINSt3__14pairIi12ImmediatePtrIN5Unity9ComponentEEEELj4EEEEvRT_17TransferMetaFlags
vmc:__ZN5physx25PxClothSimpleTetherCookerD2Ev
wlg:_m_1860120452_0
tmg:_m190056615_0
Rde:__ZNK13Simd4fFactoryIPKfEcv8Scalar4fEv
tlh:__Z45t_1743453549_0_CustomAttributesCacheGeneratorP21CustomAttributesCache
jFd:__ZN5physx18SetTorqueCurvePairEPNS_19PxVehicleEngineDataEjf
G7e:_m_1301030500_0
Mf:_atan2f
l5f:_m1633445577_0
DWb:__Z16Transfer_BuiltinIf13ProxyTransferLb0EEvRK29SerializationCommandArgumentsR31RuntimeSerializationCommandInfo
mIg:_m_103908157_0
kEa:__Z21HasAlphaTextureFormat13TextureFormat
Dv:__ZN12AudioManager6UpdateEv
Nxa:__ZN14ImageReference9BlitImageERKS_NS_8BlitModeE
mvb:__ZNK15dense_hashtableINSt3__14pairIKPK17RenderSurfaceBaseP13RenderTextureEES4_N16RenderTextureMap11HashFunctorEN14dense_hash_mapIS4_S7_SA_NS0_8equal_toIS4_EE13stl_allocatorIS8_L18MemLabelIdentifier64ELi16EEE9SelectKeyESD_SG_E13find_positionERS5_
hia:__ZNK9ShaderLab9IntShader6GetTagEib
lVe:_m1100072882_0
RLe:_m120874446_0
DYd:__ZNK5physx2Gu16SupportLocalImplINS0_11ConvexHullVEE9doSupportERKNS_6shdfnd3aos5Vec3VERNS5_6FloatVESA_
myb:__ZN23CachedSerializationDataD2Ev
rCh:__Z127RuntimeInvoker_t1628762099_0_t_887538054_0_t1628762099_0_t1628762099_0_t1628762099_0_t1636693376_0_t1636693376_0_t_1047982445_0PK10MethodInfoPvPS2_
nJd:__ZNK5physx3Cct13BoxController8getActorEv
laa:__ZN14RenderSettings23VirtualRedirectTransferER14SafeBinaryRead
Sdf:_t1492293113_0_marshal_cleanup
CTe:_m_1383057975_0
g$g:_m1592485808_0_gshared
LMg:_m717787228_0
hJf:_m921181836_0
I$:__ZN17GlobalGameManager8TransferI17RemapPPtrTransferEEvRT_
Goh:__Z58t_92453903_0_CustomAttributesCacheGenerator_m_1330063321_0P21CustomAttributesCache
qgc:__ZNSt3__112__hash_tableINS_17__hash_value_typeIPK22Il2CppGenericParameterP8TypeInfoEENS_22__unordered_map_hasherIS4_S7_NS_4hashIS4_EELb1EEENS_21__unordered_map_equalIS4_S7_NS_8equal_toIS4_EELb1EEENS_9allocatorIS7_EEE6rehashEj
z$:__ZN16LevelGameManager8TransferI18StreamedBinaryReadILb0EEEEvRT_
NIg:_m_1479883192_0
p_:__Z17IsObjectAvailablei
KKb:__ZN12InputManagerD0Ev
gGc:__ZN5physx2Sc9RigidCore20removeShapeFromSceneERNS0_9ShapeCoreEb
Qdc:__ZN14SafeBinaryRead8TransferI21BuiltinShaderSettingsEEvRT_PKc17TransferMetaFlags
Oj:___ctype_b_loc
bic:__ZN13RuntimeStaticI11WindManagerE16StaticInitializeEPv
rfa:__ZNK19RenderEventsContext21ExecuteCommandBuffersEiR17ShaderPassContextRK15RenderNodeQueueP19ProfilerInformationi
Fad:__ZN5physx11RTreeCooker18buildFromTrianglesERNS_2Gu5RTreeEPKNS_6PxVec3EjPKtPKjjRNS_6shdfnd5ArrayIjNSB_19ReflectionAllocatorIjEEEEPNS0_13RemapCallbackEfNS_17PxMeshCookingHint4EnumE
Qjb:__ZNK4PPtrI6ObjectE12ForceLoadPtrEv
Rua:__Z26scripting_class_get_parentP14ScriptingClass
UDa:__ZN9Texture3D13StaticCleanupEPv
kze:_m1011322802_0_gshared
XNa:__ZNK15MonoScriptCache7ReleaseEv
Abd:__ZN5physx9PxTaskMgrC2EPNS_15PxCpuDispatcherEPNS_15PxGpuDispatcherEPNS_15PxSpuDispatcherE
Gg:_glBindTexture
XUh:_snprintf
KVh:__ZNSt3__111__stdoutbufIwE4syncEv
z7:__ZN11LightProbes23VirtualRedirectTransferER18StreamedBinaryReadILb1EE
tai:_emscripten_glVertexAttrib1fv__wrapper
Fwe:_m374673841_0_gshared
jxg:_m_315101244_0
Ita:__ZN16UniformCacheGLES6CreateERK20GpuProgramParameters
dme:__GLOBAL__sub_I_Tree_cpp
T1f:_m_584317374_0
U8h:_emscripten_glGetProgramInfoLog__wrapper
vXh:__ZNSt3__113basic_istreamIcNS_11char_traitsIcEEED1Ev
ltg:_t1157257435_0_marshal
eSa:__ZN17PersistentManager23DestroyFromFileInternalEi
ftg:_m_726716431_0
iuh:__Z56RuntimeInvoker_t1458036598_0_t_887538054_0_t_887538054_0PK10MethodInfoPvPS2_
Ug:_recv
J9f:_m584685721_0
j$b:__Z19TransferField_ArrayI18StreamedBinaryReadILb0EE19Converter_PrimitiveIyEEvRK23StaticTransferFieldInfoR31RuntimeSerializationCommandInfoRT0_
HI:__Z34il2cpp_gc_change_weak_track_handleP12Il2CppObjectS0_j
uxe:_m_1685694223_0_gshared
gib:__ZNSt3__16vectorIN6il2cpp2os19SocketHandleWrapperENS_9allocatorIS3_EEE21__push_back_slow_pathIKS3_EEvRT_
zZc:__ZN5physx19PxsMaterialCombiner24combineIsotropicFrictionERKNS_15PxsMaterialDataES3_
$gh:__Z59t_2017966903_0_CustomAttributesCacheGenerator_m2088237919_0P21CustomAttributesCache
Lug:_m_2049107979_0
YM:__ZN6il2cpp6icalls8mscorlib6System9Threading6Thread11Thread_initEP12Il2CppThread
RZh:__ZNKSt3__18time_getIcNS_19istreambuf_iteratorIcNS_11char_traitsIcEEEEE17__get_white_spaceERS4_S4_RjRKNS_5ctypeIcEE
Zta:__ZN22CreateGpuProgramOutputC2Ev
ZRg:_m_850235322_0
Eqg:_m_1424962350_0
q5c:__ZN5physx15PxVehicleWheels15exportExtraDataERNS_22PxSerializationContextE
ead:__ZN5physx7Cooking16cookTriangleMeshERKNS_18PxTriangleMeshDescERNS_14PxOutputStreamE
Oba:__ZN8GUILayer12CleanupClassEv
OMc:__ZN5physx2Sc7ElementD0Ev
ncd:__ZN5physx6shdfnd10Foundation7releaseEv
A4d:__ZN5physx3Pvd17PvdPropertyFilterINS_2Sn17RepXVisitorWriterINS_27PxVehicleDifferential4WDataEEEE14handleAccessorILj542ENS_22PxRepXPropertyAccessorILj542ES4_ffEEEEvRKT0_
rc:invoke_vidi
nbe:__ZNK5physx5cloth9ClothImplINS0_7SwClothEE24getMotionConstraintScaleEv
Kqd:__ZN5physx6shdfnd5ArrayINS_10PxTriangleENS0_19ReflectionAllocatorIS2_EEE19resizeUninitializedEj
xQ:__ZN6il2cpp5utils11StringUtils15StringDuplicateEPKc
Oia:__ZNK9ShaderLab21ShaderRasterStateDesc16ToGfxRasterStateEPK19ShaderPropertySheetS3_R14GfxRasterState
Saa:__Z16RenderShadowMapsPK18ShadowMapJobHeaderR17ShaderPassContext
_O:__ZN6il2cpp2os9EventImplC2Ebb
ivf:_m_1059721325_0
E4e:_m1009743248_0
S$b:__Z16Transfer_BuiltinI11ColorRGBA3219StreamedBinaryWriteILb0EELb0EEvRK29SerializationCommandArgumentsR31RuntimeSerializationCommandInfo
VMh:__ZL9CastclassP13t_887538054_0P8TypeInfo98
Ira:__Z20IsMatrixBuiltinParamPKcPi
cnh:__Z69t_1563252634_0_CustomAttributesCacheGenerator_U3CU3Ef__switchU24map16P21CustomAttributesCache
Spf:_m592888001_0
uza:__ZN8Renderer19PostInitializeClassEv
s$h:__ZNKSt3__110moneypunctIwLb1EE13do_neg_formatEv
GJ:__ZN6il2cpp6icalls8mscorlib6System8Delegate23CreateDelegate_internalEP20Il2CppReflectionTypeP12Il2CppObjectP22Il2CppReflectionMethodb
T4e:_m_988058318_0
Ula:__ZN25ThreadsafeLinearAllocator10ReallocateEPvji
rKd:__ZNK5physx18PxArticulationLink8isKindOfEPKc
Vld:__ZN11BoxCollider13StaticCleanupEPv
AWg:_m1343964770_0_gshared
EG:_GC_disable
BUb:__ZN10Matrix4x4f8TransferI14SafeBinaryReadEEvRT_
Uo:FUNCTION_TABLE_vifiiiiiiiiiiiiiiiiii
wrh:__Z45t_1379563967_0_CustomAttributesCacheGeneratorP21CustomAttributesCache
$Ff:_m_1668042212_0
XSf:_m1989802200_0
_Ng:_m_709601159_0
j7:__ZN28LightProbeProxyVolumeManager17UpdateProxyVolumeEP21LightProbeProxyVolumej
dxg:_m1523593825_0
SId:__ZN14PhysicsManager7PRODUCEE18MemLabelIdentifier18ObjectCreationMode
zFf:_m2107793502_0
pxb:__ZL14OnWorldStoppedv
Vz:__ZN4FMOD6SoundI12getOpenStateEP14FMOD_OPENSTATEPjPbS4_
Hqh:__Z58t1411473443_0_CustomAttributesCacheGenerator_m2105533310_0P21CustomAttributesCache
Lxc:__ZN5physx3Scb14ParticleSystem12ForceUpdates7destroyEv
AUg:_m_1308312717_0
Aab:__ZN7ApiGLES18ClearBufferSubDataEjN2gl12BufferTargetEll
T4a:__Z37Camera_Get_Custom_PropAllCamerasCountv
Mvb:__ZN14Texture2DArray8TransferI18StreamedBinaryReadILb0EEEEvRT_
G2d:__ZN5physx18RepXPropertyFilterINS_2Sn17RepXVisitorReaderINS_23PxVehicleDriveSimDataNWEEEEclILj679ES3_RKNS_27PxVehicleDifferentialNWDataES7_EEvRKNS_14PxPropertyInfoIXT_ET0_T1_T2_EEj
Uje:__ZN5physx15NpActorTemplateINS_18PxArticulationLinkEED2Ev
XEe:_m_896092397_0_gshared
V3f:_m258676459_0
bb:invoke_fiiii
ebh:__Z44t1034885105_0_CustomAttributesCacheGeneratorP21CustomAttributesCache
wBg:_m_401533082_0
ond:__Z19ExtractDataFromMeshR4MeshR13dynamic_arrayI8Vector3fLj4EERS1_ItLj2EES6_
I0g:_m_1700794795_0_gshared
mse:_m_793020042_0_gshared
XP:__ZN6il2cpp2os10ThreadImpl22CreateForCurrentThreadEv
MBc:__ZN5physx2Sc16ArticulationCore26setMaxProjectionIterationsEj
zVd:__ZN26IntersectAnyVsMeshCallbackILi1ELb0EED2Ev
kwf:_m324613897_0
x2b:__ZN14SafeBinaryRead21TransferSTLStyleArrayINSt3__16vectorIN30RuntimeInitializeOnLoadManager9ClassInfoE13stl_allocatorIS4_L18MemLabelIdentifier11ELi16EEEEEEvRT_17TransferMetaFlags
s6h:dynCall_viiifi
veh:__Z44t1234727773_0_CustomAttributesCacheGeneratorP21CustomAttributesCache
yCh:__Z152RuntimeInvoker_t_19515315_0_t_887538054_0_t_887538054_0_t_887538054_0_t1628762099_0_t402856656_0_t1636693376_0_t_604974727_0_t1636693376_0_t2034024306_0PK10MethodInfoPvPS2_
ode:__ZThn4_N5physx5cloth9ClothImplINS0_7SwClothEE18setSleepAfterCountEj
Yjg:_m1841666540_0
Wxa:__ZN5Image13ReformatImageERK14ImageReferenceii13TextureFormatNS0_8BlitModeE
xu:__ZN19AudioHighPassFilter13StaticCleanupEPv
Fv:__ZN12AudioManager17RemoveAudioSourceEP11AudioSource
rbf:_m868186199_0
pmd:__ZN5Unity5Cloth19SetUpSkinnedBuffersEPvS1_S1_j
zgd:__ZNK5physx2Gu10ConvexMesh17getReferenceCountEv
Ccf:_m877019543_0
WHc:__ZN5physx2Sc5Scene22setNbContactDataBlocksEj
HBg:_m_1601386508_0
Q8c:__Z38getNbPxVehicleDriveDynData_AnalogInputPKN5physx21PxVehicleDriveDynDataE
jQd:__ZN5physx14PxLightCpuTask12addReferenceEv
_3b:__ZN21EnlightenSceneMapping8TransferI19StreamedBinaryWriteILb0EEEEvRT_
ici:_glFlushMappedBufferRange__wrapper
dHc:__ZN5physx2Sc5Scene10removeBodyERNS0_7BodySimE
nAe:_m_599979414_0_gshared
ave:_m_476237165_0_gshared
k_g:_m_1930077807_0_gshared
BHe:_m1364066239_0
Hea:__Z20CalculateSqrDistanceRK8Vector3fRK4AABB
Zod:__ZN14PhysicsManager15ProcessContactsEv
XUd:__ZN21BoxTraceSegmentReport7onEventEjPj
nCc:__ZN5physx2Sc21ArticulationJointCore13setSwingLimitEff
vx:__Z32AudioMixerDuckingProcessCallbackP21UnityAudioEffectStatePfS1_jii
BGd:__ZL20HullProjectionCB_BoxRKN5physx2Gu13PolygonalDataERKNS_6PxVec3ERKNS_2Cm8Matrix34ERKNS7_23FastVertex2ShapeScalingERfSE_
W2c:__ZN5physx17PxcNpMemBlockPool19releaseUnusedBlocksEv
XTc:__ZN5physx14PxsAABBManager21selfCollideAggregatesEPKNS_19AggregateSortedDataE
eEa:__Z25GetBytesFromTextureFormat13TextureFormat
RDa:__ZN9Texture3D19UnloadFromGfxDeviceEb
F9d:__ZN5physx12_GLOBAL__N_112innerProductERKNS_14Px1DConstraintERS1_RKNS0_9MassPropsE
IIh:__Z41RuntimeInvoker_t1628762099_0_t584480480_0PK10MethodInfoPvPS2_
F3f:_m763708021_0
l5h:dynCall_iifff
PEh:__Z98RuntimeInvoker_t_224166001_0_t_887538054_0_t1628762099_0_t1628762099_0_t_887538054_0_t1636693376_0PK10MethodInfoPvPS2_
Cj:_emscripten_webgl_init_context_attributes
DN:__ZNK6il2cpp8metadata24Il2CppGenericInstCompareclEPK17Il2CppGenericInstS4_
ASf:_m_1413989965_0
nQc:__ZThn4_NK5physx5cloth9ClothImplINS0_7SwClothEE5cloneERNS0_7FactoryE
r2c:__ZN5physx26PxcFrictionPatchStreamPairC2ERNS_17PxcNpMemBlockPoolE
f0f:_m_1991359273_0
IT:__ZN6il2cpp2vm13MetadataCache23GetInvokerMethodPointerEPK10MethodInfoPK20Il2CppGenericContext
Tsa:__ZN9GfxDevice21RegisterNativeTextureE9TextureIDi16TextureDimension
bAf:_m_495655309_0
fM:__ZN6il2cpp6icalls8mscorlib6System10Reflection4Emit11TypeBuilder20create_generic_classEP27Il2CppReflectionTypeBuilder
$4b:__ZNSt3__115__inplace_mergeIRN10vector_mapIijNS_4lessIiEENS_9allocatorINS_4pairIijEEEEE13value_compareENS_11__wrap_iterIPS6_EEEEvT0_SE_SE_T_NS_15iterator_traitsISE_E15difference_typeESI_PNSH_10value_typeEi
n3d:__ZN5physx2Sn21RepXVisitorReaderBaseINS_16PxVehicleDriveNWEE15complexPropertyINS_22PxRepXPropertyAccessorILj667ENS_14PxVehicleDriveENS_21PxVehicleDriveDynDataES7_EEKNS_34PxVehicleDriveDynDataGeneratedInfoEEEvPjRKT_RT0_
img:_m1992894345_0
J7e:_m_729545487_0
Mj:_emscripten_glUniformMatrix4fv
xLb:__ZN12ScriptMapperD2Ev
otg:_m_1383627010_0
U7e:_m1072877933_0
K$f:_m1181104909_0
Eme:__ZN21UnityAnalyticsManager13StaticCleanupEPv
Cgf:_m27692511_0
Fvc:__ZNK5physx14NpSceneQueries10multiQueryINS_12PxOverlapHitEEEbRKNS_15MultiQueryInputERNS_13PxHitCallbackIT_EENS_7PxFlagsINS_9PxHitFlag4EnumEtEEPKNS_12PxQueryCacheERKNS_17PxQueryFilterDataEPNS_21PxQueryFilterCallbackEPNS_20BatchQueryFilterDataE
D0h:__ZNKSt3__15ctypeIwE10do_tolowerEw
sId:__ZL21GetMeshLocationDetailR4Mesh
$fh:__Z45t_1679329286_0_CustomAttributesCacheGeneratorP21CustomAttributesCache
Bw:__ZNK11AudioSource14GetRolloffModeEv
m4f:_m_1452431578_0
PF:_GC_check_leaked
ob:invoke_fiiiiiiiifiiiif
VNf:_m_1063531280_0
Yrb:__Z18SkinGenericMathLibILi4ELb0ELb0EEvR12SkinMeshInfo
cEf:_m_1101026743_0
eFf:_m477142412_0
uQf:_m_550371510_0
hHg:_m310449511_0
oGh:__Z70RuntimeInvoker_t_887538054_0_t1628762099_0_t_887538054_0_t_887538054_0PK10MethodInfoPvPS2_
G6f:_m188013914_0
Pbe:__ZN5physx5cloth9ClothImplINS0_7SwClothEE11setUserDataEPv
Q_g:_m868128376_0_gshared
xbi:_glGetStringi__wrapper
Bqa:__ZN10VertexData8TransferI14SafeBinaryReadEEvRT_
joc:__ZN5physx19NpArticulationJointD0Ev
rz:__ZN4FMOD8ChannelI8setDelayE14FMOD_DELAYTYPEjj
nF:_GC_malloc_atomic
jrc:__ZN5physx9NpPhysics14createInstanceEjRNS_12PxFoundationERKNS_17PxTolerancesScaleEbPNS_20PxProfileZoneManagerE
rZf:_m1111852548_0
Fuc:__ZNK5physx7NpScene17getFilterCallbackEv
_kb:__ZNSt3__16__treeINS_12__value_typeINS_12basic_stringIcNS_11char_traitsIcEENS_9allocatorIcEEEEjEENS_19__map_value_compareIS7_S8_NS_4lessIS7_EELb1EEE13stl_allocatorIS8_L18MemLabelIdentifier6ELi16EEE4findIS7_EENS_15__tree_iteratorIS8_PNS_11__tree_nodeIS8_PvEEiEERKT_
FDh:__Z28RuntimeInvoker_t1922836948_0PK10MethodInfoPvPS2_
F1h:__ZNSt3__18numpunctIwED2Ev
XCd:__Z46getPxVehicleEngineDataMDampingRateFullThrottlePKN5physx19PxVehicleEngineDataE
L5b:__Z26SkinVerticesGenericMathLibILi1ELb1ELb1EEvPKhiiiiPhiPKvS4_
icc:__ZN20SphericalHarmonicsL28TransferI18StreamedBinaryReadILb1EEEEvRT_
h3f:_m1365484742_0
xIc:__ZNK5physx2Sc5Scene39getDefaultContactReportStreamBufferSizeEv
pwc:__ZN5physx7NpShape13setRestOffsetEf
JQ:__ZN6il2cpp2vm5Array4New2EP8TypeInfojj
FCf:_m1688588087_0
gAh:__Z128RuntimeInvoker_t_224166001_0_t_1425457070_0_t1628762099_0_t_1425457070_0_t1628762099_0_t1628762099_0_t1628762099_0_t1628762099_0PK10MethodInfoPvPS2_
kGh:__Z71RuntimeInvoker_t_887538054_0_t_887538054_0_t_1047952454_0_t1628762099_0PK10MethodInfoPvPS2_
Mwg:_m1987456872_0
Pxh:__Z28RuntimeInvoker_t_738719206_0PK10MethodInfoPvPS2_
Gkh:__Z44t_902893680_0_CustomAttributesCacheGeneratorP21CustomAttributesCache
yHd:__ZN5physxL11getTriangleERKNS_2Gu12TriangleMeshEjPNS_6PxVec3EPKS4_PKvRKNS_2Cm8Matrix34Eb
Hu:__ZN13AudioListener12CleanupClassEv
gSe:_m1807552551_0
Bbh:__Z60t_2028532359_0_CustomAttributesCacheGenerator_m_1599772275_0P21CustomAttributesCache
GLe:_m_1306507575_0
fig:_m_345707306_0
$Ga:__Z13GetIEnlightenv
DXf:_m944219619_0
Q3b:__ZNSt3__16vectorIN15QualitySettings14QualitySettingENS_9allocatorIS2_EEE7reserveEj
EAc:__ZNK5physx7NpCloth16lockParticleDataEv
o5f:_m_260242988_0
PKd:__ZN5physx19NpRigidBodyTemplateINS_18PxArticulationLinkEE7setMassEf
Ujf:_m_96660688_0
dZe:_m_813177101_0
d$:__ZN17GlobalGameManager13StaticCleanupEPv
R6e:_m_2068163007_0
rjf:_m2105533310_0
kne:__ZN11UnityEngine15PlatformWrapper27GetGraphicsCapsSupportFlagsEv
Lgh:__Z60t_1169133302_0_CustomAttributesCacheGenerator_m_1734039481_0P21CustomAttributesCache
_Rg:_m2015857610_0
gtc:__ZN5physx13NpRigidStatic9visualizeERNS_2Cm12RenderOutputEPNS_7NpSceneE
d1b:__ZN12NativeBufferI16Converter_StringE15SetupForWritingER9ArrayInfo
gWg:_m906768158_0_gshared
CIh:__Z43RuntimeInvoker_t1628762099_0_t_1564130246_0PK10MethodInfoPvPS2_
W7e:_m476497192_0
bk:_emscripten_glVertexAttrib3fv
QOd:__ZNK5physx22NpParticleBaseTemplateINS_16PxParticleSystemENS_16NpParticleSystemEE13getRestOffsetEv
vud:__ZN5physx6shdfnd8PoolBaseINS_2Sc35ParticleElementRbElementInteractionENS0_19ReflectionAllocatorIS3_EEE15disposeElementsEv
inb:__ZNK4PPtrI5LightEcvPS0_Ev
WKh:__ZN21InterfaceFuncInvoker1Ib13t_215297020_0E6InvokeEjP8TypeInfoPvS0_
oNa:__ZN13MonoBehaviour22DoScriptRebuildWarningEv
j$e:_m1893054627_0
dJ:__ZN6il2cpp6icalls8mscorlib6System5Array13ClearInternalEP11Il2CppArrayii
u5f:_m_11560853_0
hkg:_m_290408180_0
NXd:__ZN5physx2Gu26EPASupportMapPairLocalImplINS0_9TriangleVENS0_4BoxVEED0Ev
l4h:_llvm_cttz_i32
JFe:_m189582777_0_gshared
ech:__Z44t_612702075_0_CustomAttributesCacheGeneratorP21CustomAttributesCache
RTc:__ZN5physx14PxsAABBManager16processBPResultsERKNS_20PxsComputeAABBParamsE
m2e:_m_671292063_0
JVc:__ZN5physx23PxsBroadPhaseContextSapD2Ev
trg:_m_666395252_0
sFd:__ZN5physx12SubSortQuickC2EPjPKNS_10PxBounds3VEjf
wjc:__ZN17Physics2DSettings16StaticInitializeEPv
aqa:__Z20DeformSkinnedMeshJobP12SkinMeshInfo
o7b:__ZNK12ShaderErrors11ShaderErrorltERKS0_
K2e:_m_2033850686_0
u7b:__ZN9ShaderLab13ParserUsePassD2Ev
fOg:_m_1315718943_0
s2g:_m_2057025933_0_gshared
yyg:_m_614321210_0
R_f:_m1714447498_0
R0d:__ZN5physx2Sn21RepXVisitorReaderBaseINS_22PxVehicleWheelsSimDataEE23extendedIndexedPropertyINS_3Pvd36PxPvdExtendedIndexedPropertyAccessorILj616ES2_KjNS_6PxVec3EEEKNS_18PxUnknownClassInfoEEEvPjRKT_RT0_
Aa:invoke_iiiifiiii
HPb:__ZN14SerializedFile4Type8ReadTypeILb1EEEbibiRPKhS3_
GNc:__ZNK5physx2Sc9ClothCore16getRestPositionsEPNS_6PxVec4E
BEb:_block_split
F1c:__ZN5physx20PxcSweepConvexConvexERKNS_11PxsCCDShapeES2_PKNS_12PxsRigidBodyES5_RKNS_11PxTransformES8_S8_S8_fRNS_6PxVec3ESA_RNS_10PxcNpCacheERNS_18PxcNpThreadContextEf
U0b:__ZN12NativeBufferI19Converter_PrimitiveI10Matrix4x4fEE15SetupForWritingER9ArrayInfo
CZc:__ZN5physx15PxsParticleDataD0Ev
GEb:__ZL19BlitFramebufferImplRN4gles23BlitFramebufferDrawQuadER9GfxDevice9TextureIDRK8Vector4f
jTg:_m2106379807_0
S6d:__ZN5physx6shdfnd5ArrayIPvNS0_19ReflectionAllocatorIN17PxcPoolMallocData9PoolData8EEEE15growAndPushBackERKS2_
w5f:_m_1273290918_0
wWe:_m_1995520881_0
j5h:dynCall_viiiiiiiiiiiiii
k3b:__ZN14SafeBinaryRead21TransferSTLStyleArrayINSt3__16vectorI9InputAxisNS1_9allocatorIS3_EEEEEEvRT_17TransferMetaFlags
cma:__ZN18PlayableController12GetFrameDataEv
rDa:__ZN14Texture2DArray11InitTextureEiii13TextureFormatb
Fdd:__ZN5physx15PxGeometryQuery14getWorldBoundsERKNS_10PxGeometryERKNS_11PxTransformEf
vsg:_m865849837_0
Mzf:_m1053747690_0
KOc:__ZN5physx2Sc9ClothCore18setSolverFrequencyEf
Pwg:_m1877162132_0
FQf:_m330612341_0
cub:__Z17Generate3DTextureIhPFvPhiiiiiiEEvP9Texture3DRKT0_
vwb:__ZN9InputAxis8TransferI18StreamedBinaryReadILb0EEEEvRT_
dTd:__ZN5physx2Gu11HeightField8requiresERNS_23PxProcessPxBaseCallbackE
W2h:__ZNSt3__16locale5__imp7installINS_7num_getIwNS_19istreambuf_iteratorIwNS_11char_traitsIwEEEEEEEEvPT_
jBh:__Z42RuntimeInvoker_t_818288618_0_t1628762041_0PK10MethodInfoPvPS2_
ukd:__ZN5physx2Gu16buildPartialHullERKNS0_13PolygonalDataEPNS0_12SupportLocalERNS0_14SeparatingAxesERKNS_6shdfnd3aos5Vec3VESC_
Gyf:_m_276128289_0
y5b:__ZN9TextureOpI11TextureDataE22ExtractCompressedImageEPS0_Phiii
yLa:__Z38VerifyNothingIsPersistentInLoadedSceneRKNSt3__112basic_stringIcNS_11char_traitsIcEENS_9allocatorIcEEEE
aw:__ZN17AudioReverbFilter16StaticInitializeEPv
aCc:__ZNK5physx2Sc16ArticulationCore17releaseDriveCacheERNS_9PxcFsDataE
Z4e:_m_630982423_0
Jgb:__GLOBAL__sub_I_Profiler_cpp
enc:__ZN5physx11NpAggregate7releaseEv
OZe:_m40272365_0
K4:__Z20SyncFenceCullResultsR11CullResults
kNb:__ZN15TextureTFMethod20IsBoneCountSupportedEi
n3f:_m952653568_0
P1f:_m1097527344_0
zKh:__ZN18VirtActionInvoker06InvokeEjPv
olb:__ZN13dynamic_arrayI12LODDataArrayLj4EE7reserveEj
fPf:_m_1093443202_0
oUe:_m1458533341_0
Xae:__ZN5physx5cloth9ClothImplINS0_7SwClothEE12setTrianglesENS0_5RangeIKNS_6PxVec3EEEjj
jwc:__ZN5physx7NpShape12setMaterialsEPKPNS_10PxMaterialEt
c0e:_m334858790_0
Hwb:__ZNK17AnimationCurveTplIfE20EvaluateWithoutCacheEfRf
DIe:_m570537577_0
a1f:_m_65545138_0
zWb:__Z16Transfer_BuiltinIi13ProxyTransferLb0EEvRK29SerializationCommandArgumentsR31RuntimeSerializationCommandInfo
cLb:__ZN10MonoScriptD0Ev
yOg:_m_2065477323_0
RVf:_m1048758548_0
Xs:__ZN17AnimationCurveTplIfE8TransferI14SafeBinaryReadEEvRT_
guf:_m_1200811822_0
nAa:__Z40CleanupRendererAnimationBindingInterfacev
Ugc:__ZNSt3__118basic_stringstreamIcNS_11char_traitsIcEENS_9allocatorIcEEED0Ev
zkg:_m856823045_0
Jed:__ZN5physx2Gu9RadixSortD2Ev
bkg:_m76287740_0
H9c:__Z36getPxVehicleDriveNW_ConcreteTypeNamePKN5physx16PxVehicleDriveNWE
Hng:_m_388594990_0
kOb:__ZNSt3__112basic_stringIcNS_11char_traitsIcEE13stl_allocatorIcL18MemLabelIdentifier53ELi16EEE9push_backEc
eFb:__ZN14DrawBufferGLESI12VertexBuffer27VertexBufferUsageMapperGLESE8EndWriteEj
bNd:__ZNK5physx15NpActorTemplateINS_15PxParticleFluidEE14getOwnerClientEv
YNe:_m_796690312_0
lxc:__ZN5physx13NpVolumeCache13onOriginShiftERKNS_6PxVec3E
vH:_il2cpp_class_get_image
E3a:__Z16AsyncReadRequestP16AsyncReadCommand
$8d:__ZNK5physx34PxsSolverConstraintPostProcessTask7getNameEv
$7d:__ZN5physx2Cm12DelegateTaskINS_16PxsFluidDynamicsEXadL_ZNS2_10mergeForceEPNS_10PxBaseTaskEEEE11runInternalEv
Lqg:_m1675538459_0
Kgd:__ZN5physx2Gu23distancePointBoxSquaredERKNS_6PxVec3ES3_S3_RKNS_7PxMat33EPS1_
qje:__ZN5physx9NpPhysics20MeshDeletionListener28onGuMeshFactoryBufferReleaseEPKNS_6PxBaseEtb
IZh:__ZNKSt3__18time_getIcNS_19istreambuf_iteratorIcNS_11char_traitsIcEEEEE11do_get_yearES4_S4_RNS_8ios_baseERjP2tm
l3b:__ZN9InputAxis8TransferI14SafeBinaryReadEEvRT_
Utc:__ZNK5physx7NpScene9getActorsENS_7PxFlagsINS_15PxActorTypeFlag4EnumEtEEPPNS_7PxActorEjj
Wme:__Z27RegisterModule_UnityConnectv
Wp:copyTempFloat
tZg:_m818406549_0_gshared
Vhe:__ZN5physx15PxParticleFluidD0Ev
V7d:__ZN5physx11NodeManagerD0Ev
Vuh:__Z43RuntimeInvoker_t_1425427079_0_t1628762099_0PK10MethodInfoPvPS2_
Ekh:__Z45t_1825655911_0_CustomAttributesCacheGeneratorP21CustomAttributesCache
uPe:_m_1258592344_0
Jog:_m_281987648_0
vXe:_m455424824_0
wse:_m_561343435_0_gshared
Ljf:_m_1514208761_0
WCc:__ZNK5physx2Sc8BodyCore6getSimEv
SNb:__ZN26VertexDeclarationCacheGLESD0Ev
oOe:_m658209606_0
v5c:__ZN5physx16PxVehicleDriveNW12createObjectERPhRNS_24PxDeserializationContextE
zD:__ZN10ObjectPoolIN4FMOD12ChannelGroupENS0_13ChannelGroupIEE7SetSizeEi
A3a:__Z5SplitRKNSt3__112basic_stringIcNS_11char_traitsIcEENS_9allocatorIcEEEEcRNS_6vectorIS5_NS3_IS5_EEEEi
jsa:__ZN9GfxDevice8OnDeleteEv
sOb:__ZN15dense_hashtableINSt3__14pairIKNS0_12basic_stringIcNS0_11char_traitsIcEE13stl_allocatorIcL18MemLabelIdentifier53ELi16EEEEP20ArchiveStorageReaderEES8_11djb2_hash_tIS8_EN14dense_hash_mapIS8_SB_SE_NS0_8equal_toIS8_EES5_ISC_LS6_53ELi16EEE9SelectKeyESH_SI_E5clearEv
tZe:_m_1290395075_0
Yka:__Z22ValidateTlsfAllocationPvjiS_
Pbc:__ZL13RenderCastersiRK10MinMaxAABBRK8Vector3fS4_RK14ShadowCullDataR17ShaderPassContextRKNSt3__16vectorI16ShadowCasterData13stl_allocatorISC_L18MemLabelIdentifier2ELi16EEEERKNSB_I20ShadowCasterPartDataSD_ISJ_LSE_2ELi16EEEERK15RenderNodeQueueb
Wqf:_m102415980_0
wje:__ZN5physx2Cm12RefCountable14onRefCountZeroEv
oth:__Z84RuntimeInvoker_t1628762099_0_t1628762099_0_t1628762099_0_t1628762099_0_t_887538054_0PK10MethodInfoPvPS2_
eqg:_m_666843777_0
azc:__ZNK5physx7NpCloth25getMotionConstraintConfigEv
pZg:_m1097083561_0_gshared
Ueg:_m_560215815_0
glb:__ZN13dynamic_arrayIN15RenderNodeQueue4NodeELj4EE7reserveEj
Tye:_m_1168573824_0_gshared
LJ:__ZN6il2cpp6icalls8mscorlib6System4Enum12get_hashcodeEP12Il2CppObject
$x:__ZN11SoundHandleC2ERKS_
eFc:__ZThn8_N5physx2Sc24ElementInteractionMarker7destroyEv
cFg:_m_2113255269_0
vVa:__ZN12ScriptMapper23VirtualRedirectTransferER18StreamedBinaryReadILb1EE
voe:_m_1060412608_0_gshared
RAb:__Z29StdTemplateConversionFunctionItxEbPvR14SafeBinaryRead
dka:__ZN9ShaderLab18ParserBindChannelsC2Ev
QY:__ZN39AssetBundleLoadFromStreamAsyncOperationC2ERKNSt3__112basic_stringIcNS0_11char_traitsIcEENS0_9allocatorIcEEEE
vRc:__ZN5physx5cloth11SwCollisionI8Scalar4fE16collideTrianglesEPKNS0_12TriangleDataEPS2_RNS3_18ImpulseAccumulatorE
Yzd:__ZN5physx6shdfnd4sortIPNS_10PxsCCDPairENS_16IslandPtrCompareENS0_19ReflectionAllocatorIS3_EEEEvPT_jRKT0_RKT1_
hbf:_m193937285_0
slc:__ZN5physx3Cct26CharacterControllerManager24setOverlapRecoveryModuleEb
xEe:_m_318121211_0_gshared
wRf:_m1066475641_0
qcc:__ZN14RenderSettings18TransferDeprecatedI14SafeBinaryReadEEvRT_
$Ud:__ZN24ConvexVsHeightfieldSweepD0Ev
vKf:_m_1699705005_0
SDg:_m634688613_0
Yye:_m_1814556777_0_gshared
cpf:_m1660193143_0
zla:__ZN12TLSAllocatorI14StackAllocatorE8AllocateEji
EPa:__ZN16ScriptingManager18GetMonoScriptCacheEj
TZa:__ZN20ArchiveStorageHeader13GetDataOffsetERKNS_6HeaderE
Q_h:__ZNKSt3__110moneypunctIcLb1EE16do_decimal_pointEv
G2f:_m950073389_0
RXf:_m_1506942427_0
Xka:__ZNK21UnityDefaultAllocatorI17LowLevelAllocatorE17ValidateIntegrityEPKv
vRh:__ZL10SZArrayNewP8TypeInfoj1037
cqh:__Z90t_184308134_0_CustomAttributesCacheGenerator_t_184308134_0_m305836803_0_Arg1_ParameterInfoP21CustomAttributesCache
g4g:__Z60t_1047952454_0_CustomAttributesCacheGenerator_m_1599712637_0P21CustomAttributesCache
wgg:_m_1547984630_0
Gia:__ZN9ShaderLab7Program22ComputeSupportsShadowsEv
goa:__ZN10DynamicVBO9DrawChunkERK21DynamicVBOChunkHandleRK14ChannelAssignsjP17VertexDeclarationPKNS_10DrawParamsE
dAc:__ZN5physx7NpCloth25setSelfCollisionStiffnessEf
d9b:__ZN6prcoreL17RemapGenericFloatI18TexFormatARGBFloat17TexFormatRGBAHalfEEvPKNS_9InnerInfoE
Wxb:__ZN17RemapPPtrTransfer8TransferINSt3__18multimapI8UnityStr4PPtrI6ObjectENS1_4lessIS3_EENS1_9allocatorINS1_4pairIKS3_S6_EEEEEEEEvRT_PKc17TransferMetaFlags
Tle:__ZN13Simd4iFactoryIN6detail9FourTupleEEC2Eiiii
Szg:_m_1884996598_0
W4a:__Z40Camera_CUSTOM_INTERNAL_CALL_RaycastTry2DP15ScriptingObjectRK3Rayfi
V1d:__ZN5physx3Pvd17PvdPropertyFilterINS_2Sn17RepXVisitorWriterINS_18PxVehicleGearsDataEEEE14handleAccessorILj529ENS_22PxRepXPropertyAccessorILj529ES4_jjEEEEvjRKT0_
Agh:__Z58t1479351635_0_CustomAttributesCacheGenerator_m_807433200_0P21CustomAttributesCache
K4b:__ZN15SerializeTraitsI33EnlightenTerrainChunksInformationE8TransferI14SafeBinaryReadEEvRS0_RT_
cEc:__ZN5physx2Sc14ConstraintCoreD2Ev
MTb:__ZNSt3__16vectorIa13stl_allocatorIaL18MemLabelIdentifier1ELi16EEE8__appendEj
D3b:__ZNK32RendererMaterialAnimationBinding9BindValueER6ObjectRKN11UnityEngine9Animation14GenericBindingERNS3_10BoundCurveE
o5c:__ZN5physx15PxVehicleWheels17getBinaryMetaDataERNS_14PxOutputStreamE
Xje:__ZN5physx15NpActorTemplateINS_18PxArticulationLinkEE13setActorFlagsENS_7PxFlagsINS_11PxActorFlag4EnumEtEE
ZGa:__Z13GetIAnimationv
zfc:__ZL18stbir__support_onef
Vrd:__ZN5physx6shdfnd8internal8HashBaseIPNS_11PxAggregateES4_NS0_4HashIS4_EENS1_11HashSetBaseIS4_S6_NS0_9AllocatorELb0EE6GetKeyES8_Lb0EE15reserveInternalEj
wyh:__Z84RuntimeInvoker_t_887538054_0_t_887538054_0_t1628762099_0_t1636693376_0_t_887538054_0PK10MethodInfoPvPS2_
ACb:__ZN15NameToObjectMapI6ShaderNSt3__13mapI4PPtrIS0_E8UnityStrNS1_4lessIS4_EENS1_9allocatorINS1_4pairIKS4_S5_EEEEEENS1_8multimapIS5_S4_NS6_IS5_EENS8_INS9_IKS5_S4_EEEEEEE4FindERKNS1_12basic_stringIcNS1_11char_traitsIcEENS8_IcEEEE
iHf:_m_395616370_0
Vmb:__ZN13dynamic_arrayIP15ReflectionProbeLj4EE7reserveEj
rqe:_m_188788987_0_gshared
gLf:_m_317199452_0
H_e:_m1176433114_0
Ia:invoke_vdd
so:FUNCTION_TABLE_fiii
$Nf:_m383644411_0
M5e:_m1021969427_0
cAh:__Z56RuntimeInvoker_t_738719148_0_t1628762099_0_t1628762099_0PK10MethodInfoPvPS2_
o0e:_m865125231_0
D8:__ZNK15ReflectionProbe15GetGlobalCenterEv
ESc:__ZN5physx5cloth16SwInterCollisionI8Scalar4fEclEv
Ptb:__Z14RandomRotationP9Texture2DPhiiii
Cdi:_emscripten_glLinkProgram__wrapper
RZd:__ZThn132_N5physx7profile8ZoneImplINS_28PxProfileNameProviderForwardEED1Ev
h6e:_m875969832_0
i2b:__ZNSt3__16vectorIN30RuntimeInitializeOnLoadManager15ClassMethodInfoE13stl_allocatorIS2_L18MemLabelIdentifier11ELi16EEE6assignINS_11__wrap_iterIPS2_EEEENS_9enable_ifIXaasr21__is_forward_iteratorIT_EE5valuesr16is_constructibleIS2_NS_15iterator_traitsISC_E9referenceEEE5valueEvE4typeESC_SC_
i2d:__ZN5physx3Pvd17PvdPropertyFilterINS_2Sn17RepXVisitorWriterINS_21PxVehicleDriveDynDataEEEE14handleAccessorILj644ENS_22PxRepXPropertyAccessorILj644ES4_KffEEEEvRKT0_
nNh:__ZN21InterfaceFuncInvoker0IP13t_816028754_0E6InvokeEjP8TypeInfoPv
quc:__ZN5physx7NpScene27setCCDContactModifyCallbackEPNS_26PxCCDContactModifyCallbackE
PIf:_m1527592312_0
Wad:__ZNK5physx17ConvexHullBuilder17ComputeGeomCenterERNS_6PxVec3E
uRg:_m958950318_0
oFe:_m_11418586_0_gshared
bVc:__ZN3MBPD0Ev
Kve:_m_1124126489_0_gshared
YKh:__ZN21InterfaceFuncInvoker1I13t_215297020_0iE6InvokeEjP8TypeInfoPvi
K7a:__ZNK13EmscriptenWWW14GetPartialDataEv
gdi:_glDeleteProgram__wrapper
$4a:__Z50Register_UnityEngine_Camera_INTERNAL_get_pixelRectv
Dga:__ZN19RuntimeSceneManager14LoadSceneAsyncERK8UnityStrS2_S2_RK9UnityGUIDiNS_11LoadingModeEbRP10UnityScene
Yob:__ZN6prcoreL18BlitFloatToIntegerERK14ImageReferenceRS0_
SEg:_m_1030611542_0
kkg:_m1924122290_0
XWc:__ZNK5physx10PxsContext18getBounceThresholdEv
qzg:_m504713301_0
bHa:__Z13GetIPhysics2Dv
LSe:_m_623907389_0
CDa:__ZN14Texture2DArray23VirtualRedirectTransferER13ProxyTransfer
r9d:__ZN5physx6shdfnd5ArrayIPvNS0_15InlineAllocatorILj256ENS0_19ReflectionAllocatorINS_2Gu31SpherePersistentContactManifoldEEEEEE15growAndPushBackERKS2_
tge:__ZN5physx2Cm18DelegateFanoutTaskINS_2Sc5SceneEXadL_ZNS3_17finalizationPhaseEPNS_10PxBaseTaskEEEE11runInternalEv
dRd:__ZN5physx20PxsParticleSystemSim32flushBufferedInteractionUpdatesVEv
j2f:_m1311381250_0
Ua:invoke_vifff
SNd:__ZN5physx15NpParticleFluid15exportExtraDataERNS_22PxSerializationContextE
Ubi:_glGetVertexAttribiv__wrapper
jld:__ZN5physx6shdfnd15atomicDecrementEPVi
bf:_emscripten_request_fullscreen
mfe:__ZN5physx2Cm12DelegateTaskINS_2Sc5SceneEXadL_ZNS3_11postCCDPassEPNS_10PxBaseTaskEEEED0Ev
axg:_m1345715454_0
o1a:__ZN20LocalFileSystemWebGL6DeleteER13FileEntryDatab
ff:_emscripten_glDisableVertexAttribArray
X9e:_m_1199255399_0
Wn:FUNCTION_TABLE_iiiifiiii
Vdc:__Z32TransferEnumWithNameForceIntSizeI14SafeBinaryReadN21BuiltinShaderSettings17BuiltinShaderModeEEvRT_RT0_PKc
Lse:_m757075567_0_gshared
Cfb:__ZN4gles23ClearCurrentFramebufferEP7ApiGLESbbbRK10ColorRGBAffi
nDg:_m_2140939147_0
ICf:_m_908821150_0
RKe:_m1083541051_0
jjd:__ZN5physx2Gu11HeightField13releaseMemoryEb
tf:_emscripten_glDeleteObjectARB
Nl:_IMG_Load
pE:__ZNK8WWWAudio6IsDoneEv
mpb:__ZN9ShaderLab16ParserSubProgramC2Ev
w9b:__ZN6prcoreL17RemapGenericFloatI17TexFormatRGBAHalf18TexFormatARGBFloatEEvPKNS_9InnerInfoE
rFe:_m1757195039_0_gshared
DLa:__ZN10systeminfo21SupportsAccelerometerEv
jIe:_m_1585498112_0
iGg:_m190732574_0
em:_JS_SystemInfo_GetBrowserVersionString
c1g:_m_2142002736_0_gshared
Pjc:__ZN18BuoyancyEffector2D13StaticCleanupEPv
Ruc:__ZN5physx7NpScene17flushQueryUpdatesEv
Vwb:__ZNSt3__16__treeIiNS_4lessIiEENS_9allocatorIiEEE12__find_equalIiEERPNS_16__tree_node_baseIPvEENS_21__tree_const_iteratorIiPNS_11__tree_nodeIiS8_EEiEESB_RKT_
ora:__ZN18AsyncUploadManager19AsyncResourceUploadER9GfxDeviceii
Ogg:_m_789677846_0
F6h:dynCall_viiifiiiii
TLe:_m_379956383_0
FSa:__ZN17PersistentManagerC2Eii
upd:__ZN12PhysXRaycast15InitializeClassEv
vvc:__ZN5physx7NpScene10unlockReadEv
zv:__ZN12AudioManager16SetListenerPauseEb
XFg:_m_1477438995_0
w7b:__ZNSt3__16vectorIN9ShaderLab14ParserPropertyENS_9allocatorIS2_EEE10deallocateEv
dQf:_m_1536489139_0
uIh:__Z43RuntimeInvoker_t_1968926924_0_t1628762099_0PK10MethodInfoPvPS2_
VIe:_m794340270_0
L_h:__ZNKSt3__110moneypunctIcLb0EE14do_frac_digitsEv
na:invoke_viiiiiiiiiii
aPg:_m_50123736_0
BKa:__ZN14PlayerSettings23VirtualRedirectTransferER13ProxyTransfer
uTb:__Z14resize_trimmedINSt3__16vectorIj13stl_allocatorIjL18MemLabelIdentifier1ELi16EEEEEvRT_j
lsb:__ZN11ChannelInfo8TransferI19StreamedBinaryWriteILb0EEEEvRT_
Mxf:_m2146376156_0
Yif:_m1851666322_0
xZa:__ZN23ArchiveStorageConverter24ReadHeaderFromMemoryFileEv
Ae:_munmap
wOc:__ZN5physx2Sc9ClothCore22setFrictionCoefficientEf
PWh:__ZNSt3__18ios_base16__call_callbacksENS0_5eventE
Orc:__ZNK5physx9NpPhysics17getNbConvexMeshesEv
rvc:__ZNK5physx7NpScene29getContactCorrelationDistanceEv
C1f:_m703590456_0
o4a:__Z34Register_UnityEngine_Gradient_Initv
Gzg:_m_1829599597_0
csb:__Z26TransformVerticesInnerLoopILb1ELb1ELb0EEvPhRK10Matrix4x4fRK10Matrix3x3fjPKhiiiS8_ii25GfxTransformVerticesFlags
mqe:_m487232819_0_gshared
T2g:__Z58t_738719148_0_CustomAttributesCacheGenerator_m1670428837_0P21CustomAttributesCache
zBa:__ZN13ScreenManager23SetIsOrientationEnabledE18EnabledOrientationb
R2f:_m_293017366_0
xwb:__ZN9InputAxis8TransferI19StreamedBinaryWriteILb0EEEEvRT_
Okg:_m_1861744604_0
Beh:__Z45t_1808233787_0_CustomAttributesCacheGeneratorP21CustomAttributesCache
DVf:_m1091470146_0
Nld:__ZN5physx6shdfnd8SyncImpl4waitEj
CPh:__ZL15CastclassSealedP13t_887538054_0P8TypeInfo648
F6a:__Z33Component_CUSTOM_BroadcastMessageP15ScriptingObjectP15ScriptingStringS0_i
cJe:_m705764065_0
Qqa:__Z28BuildSingleStreamChannelInfojRK20VertexChannelsLayoutjS1_P11ChannelInfo
Hag:_m539791979_0
F0:__ZN10GameObject23VirtualRedirectTransferER18StreamedBinaryReadILb0EE
pTe:_m459420051_0
Vg:_glFrontFace
rza:__Z22RegisterClass_Rendererv
iag:_m1007555531_0
cee:__ZNK5physx5cloth12LerpIteratorI8Scalar4fNS0_17UnalignedIteratorIS2_Lj3EEEEixEj
$If:_m1151008543_0
aMe:_m_2012861547_0
$Xc:__ZN5physx17PxsFluidCollisionC2ERNS_20PxsParticleSystemSimE
N1c:__ZN5physx21PxcArticulationHelper13applyImpulsesERKNS_9PxcFsDataEPNS_14PxcSIMDSpatialES5_
t7:__Z25RegisterClass_LightProbesv
PAh:__Z56RuntimeInvoker_t_224166001_0_t1636693376_0_t1628762099_0PK10MethodInfoPvPS2_
S2:__ZNK6Camera28CalculateNeedsToRenderIntoRTEv
Nwb:__ZN13BuildSettings8TransferI18StreamedBinaryReadILb1EEEEvRT_
WGe:_m1952926483_0
_Nh:__ZN16VirtFuncInvoker2IP13t1774424924_0P13t_224215755_0bE6InvokeEjPvS3_b
G2g:__Z58t_887538054_0_CustomAttributesCacheGenerator_m_599837054_0P21CustomAttributesCache
U9h:_glUniform1i__wrapper
Tfg:_m190268221_0
bOf:_m1220667072_0
lh:_strftime_l
N$g:_m_1368939582_0_gshared
N8b:__ZN6prcoreL17RemapGenericFloatI17TexFormatRGBFloat18TexFormatRGBAFloatEEvPKNS_9InnerInfoE
LGc:__ZN5physx2Sc5Scene15getRenderBufferEv
hUf:_m_1296609534_0
WZf:_t1074450346_0_marshal_cleanup
F8d:__ZN5physx23PxsSolverSetupSolveTaskD0Ev
Hsf:_m1825781833_0
kX:_UNITY_png_malloc_warn
OBh:__Z42RuntimeInvoker_t_766435453_0_t1628762194_0PK10MethodInfoPvPS2_
_Bg:_m1402598209_0
ILe:_m_1438596977_0
qMa:__ZN13MonoBehaviour23VirtualRedirectTransferER19StreamedBinaryWriteILb0EE
Yt:__ZN9AudioClip11CreateSoundEv
fhg:_m630697764_0
pEb:__ZN13dynamic_arrayIfLj4EE6insertEPfPKfS3_
_ld:__ZN15CapsuleCollider16StaticInitializeEPv
Ax:__ZN20SoundChannelInstance23ApplyBufferedParametersEv
x2d:__ZN5physx18RepXPropertyFilterINS_2Sn17RepXVisitorReaderINS_16PxVehicleDriveNWEEEEclILj633ENS_15PxVehicleWheelsENS_22PxVehicleWheelsDynDataES8_EEvRKNS_14PxPropertyInfoIXT_ET0_T1_T2_EEj
elf:_m_508433564_0
fac:__ZNK4PPtrI9BehaviourEcvPS0_Ev
wCh:__Z180RuntimeInvoker_t_19515315_0_t_887538054_0_t_887538054_0_t_887538054_0_t1636693376_0_t402856656_0_t1402517757_0_t_887538054_0_t1628762099_0_t1636693376_0_t_604974727_0_t_604974727_0PK10MethodInfoPvPS2_
AHd:__ZNK5physx2Gu11HeightField17getHeightInternalEff
duc:__ZNK5physx7NpScene22getClientBehaviorFlagsEh
hJh:__Z27RuntimeInvoker_t976230437_0PK10MethodInfoPvPS2_
Cqc:__ZN5physx9NpFactory14createMaterialEfff
CJd:__ZNK5physx3Cct13BoxController8getStatsERNS_17PxControllerStatsE
eQc:__ZN5physx5cloth11PhaseConfigC2Et
Ofb:__Z22GetShaderCachePathGLESv
Yjc:__ZN5physx3Cct13BoxControllerD2Ev
Cug:_m_1186425292_0
Egh:__Z55t638321161_0_CustomAttributesCacheGenerator_m85066652_0P21CustomAttributesCache
KPd:__ZThn8_N5physx2Sc19ShapeInstancePairLLD0Ev
X0c:__ZN5physx19PxcContactSphereBoxERKNS_2Gu13GeometryUnionES3_RKNS_11PxTransformES6_RKfRNS_10PxcNpCacheERNS0_13ContactBufferE
aGg:_m_75081854_0
tuc:__ZNK5physx7NpScene21getBroadPhaseCallbackEh
Krd:__ZN5physx6shdfnd5ArrayIPNS_12PxConstraintENS0_19ReflectionAllocatorIS3_EEE15growAndPushBackERKS3_
JCc:__ZNK5physx2Sc15ArticulationSim11checkResizeEv
gIe:_m415255588_0
hQh:__ZN16VirtFuncInvoker0IaE6InvokeEjPv
ZOg:_m1131084014_0
kVa:__ZN8keywords6CreateEPKc
$Gd:__ZN5physx2Gu11gjkRelativeINS0_8CapsuleVENS0_11ConvexHullVEEEjRKT_RKT0_RKNS_6shdfnd3aos15PsMatTransformVERNSB_5Vec3VESG_SG_RNSB_6FloatVE
H5c:__ZN5physx16PxVehicleNoDrive14setDriveTorqueEjf
S8e:_m1842037937_0
ba:Math_imul
Lfh:__Z44t_454816744_0_CustomAttributesCacheGeneratorP21CustomAttributesCache
ERg:_m_553576967_0
$Mf:_m109922817_0
qgh:__Z56t453909881_0_CustomAttributesCacheGenerator_m957110328_0P21CustomAttributesCache
tla:__ZN14StackAllocator16FrameMaintenanceEb
kPb:__ZN14SafeBinaryRead19TransferSTLStyleMapINSt3__13mapIN9ShaderLab16FastPropertyNameEN18UnityPropertySheet11UnityTexEnvENS1_4lessIS4_EENS1_9allocatorINS1_4pairIKS4_S6_EEEEEEEEvRT_17TransferMetaFlags
bmh:__Z67t_194939595_0_CustomAttributesCacheGenerator_U3CU3Ef__switchU24mapAP21CustomAttributesCache
I3f:_m2055705555_0
K7g:__Z58t_2004451924_0_CustomAttributesCacheGenerator_m346689243_0P21CustomAttributesCache
nmg:_m241052615_0
wNf:_m678734312_0
Kug:_m2004423182_0
k8:__ZN13ProbeRenderer8ConvolveEbijjb
koa:__ZN17GenericDynamicVBOC2ER9GfxDevice13GfxBufferModejj
cS:__ZN6il2cpp2vm9Exception11FromNameMsgEP11Il2CppImagePKcS5_S5_
KIc:__ZNK5physx2Sc5Scene7isValidEv
BCb:__ZN12ScriptMapper7PRODUCEE18MemLabelIdentifier18ObjectCreationMode
wea:__ZN18DelayedCallManager13StaticCleanupEPv
y4c:__ZN5physx2Sq17SceneQueryManager29setDynamicTreeRebuildRateHintEj
GAf:_m910236790_0
E2d:__ZN5physx18RepXPropertyFilterINS_2Sn17RepXVisitorReaderINS_23PxVehicleDriveSimDataNWEEEEclILj658ENS_21PxVehicleDriveSimDataERKNS_19PxVehicleClutchDataES8_EEvRKNS_14PxPropertyInfoIXT_ET0_T1_T2_EEj
mxd:__ZN5physx6shdfnd5ArrayINS_6PxVec4ENS0_16AlignedAllocatorILj16ENS0_9AllocatorEEEE15growAndPushBackERKS2_
Msa:__ZN9GfxDevice20DeallocRenderSurfaceEP17RenderSurfaceBase
D9f:_m_2087803245_0
Jlc:__ZNK5physx3Cct10Controller12getKineShapeEv
isf:_m434357900_0
Bja:__Z5yylexv
hIf:_m_1793162448_0
oUa:__ZN8Material16StaticInitializeEPv
lGb:__ZN12BaseRenderer23RendererBecameInvisibleEv
kDc:__ZNK5physx2Sc8BodyCore14getMaxAngVelSqEv
aEg:_m_999404298_0
eBf:_m_962546322_0
hDg:_m_319980326_0
ILg:_m_1542007379_0
oAe:_m1445350893_0_gshared
Qwe:_m_1817005945_0_gshared
gqa:__ZN16MeshVertexFormat23CreateVertexDeclarationEjPKS_
LPh:__ZN16VirtFuncInvoker4IP12t553742458_0iP13t_429439652_0P13t_722972841_0P12t836130010_0E6InvokeEjPviS3_S5_S7_
hIb:__ZN9GfxDevice9SkinOnGPUERK18VertexStreamSourceP9GfxBufferP17GPUSkinPoseBufferS4_iijb
mpe:_m767389920_0_gshared
eDh:__Z70RuntimeInvoker_t_887538054_0_t_887538054_0_t_766435453_0_t_887538054_0PK10MethodInfoPvPS2_
FPb:__ZN18IDCollectorFunctorD0Ev
hkd:__ZN5physx2Gu32PCMConvexVsMeshContactGeneration15processTriangleEPKNS_6PxVec3EjhPKj
knb:__ZN14RenderSettings7PRODUCEE18MemLabelIdentifier18ObjectCreationMode
ZTa:__ZN8Material16CachedShaderPass9FindEntryERK16ShaderKeywordSet
Uwd:__ZN5physx6shdfnd5ArrayINS_2Cm8Matrix34ENS0_19ReflectionAllocatorIS3_EEE15growAndPushBackERKS3_
Okd:__ZN5physx2Gu32PCMConvexVsMeshContactGeneration31generatePolyDataContactManifoldERNS0_9TriangleVEjjhPNS0_21MeshPersistentContactERjRKNS_6shdfnd3aos6FloatVERNS8_5Vec3VE
B5f:_m_1966906654_0
r_d:__ZN5physx10SubSortSAH5splitEPjj
iEd:__Z41setPxVehicleSuspensionDataMSpringStrengthPN5physx23PxVehicleSuspensionDataEf
mGg:_m1988595087_0
Lnd:__ZN12MeshCollider13StaticCleanupEPv
h5g:__Z59t1621492670_0_CustomAttributesCacheGenerator_m_1989763075_0P21CustomAttributesCache
yTb:__ZNSt3__16vectorIi13stl_allocatorIiL18MemLabelIdentifier1ELi16EEE6assignINS_11__wrap_iterIPiEEEENS_9enable_ifIXaasr21__is_forward_iteratorIT_EE5valuesr16is_constructibleIiNS_15iterator_traitsISA_E9referenceEEE5valueEvE4typeESA_SA_
Gkf:_m_1359487367_0
hhd:__ZN5physx2Gu3EPA8addFacetEjjjRKNS_6shdfnd3aos6FloatVES6_
fZb:__Z16Transfer_BuiltinI8Vector4f17RemapPPtrTransferLb1EEvRK29SerializationCommandArgumentsR31RuntimeSerializationCommandInfo
zEh:__Z84RuntimeInvoker_t_224166001_0_t1628762099_0_t1628762099_0_t_887538054_0_t_887538054_0PK10MethodInfoPvPS2_
ETb:__Z19TransferField_ArrayI18StreamedBinaryReadILb1EE19Converter_PrimitiveIhEEvRK23StaticTransferFieldInfoR31RuntimeSerializationCommandInfoRT0_
nig:_m833942208_0
al:_cos
rac:__ZN14qsort_internal8_QSortMTIP15RODataDepthPassi17ROSorterDepthPassE10CleanupJobEPS4_
Dkc:__ZN5physx3Cct9CCTParamsC2Ev
Ghg:_m_631857093_0
nAc:__ZN5physx7NpCloth21setStiffnessFrequencyEf
J0a:__ZNK20LocalFileSystemPosix8IsHiddenERK13FileEntryData
E1c:__ZN5physx17PxcSweepBoxConvexERKNS_11PxsCCDShapeES2_PKNS_12PxsRigidBodyES5_RKNS_11PxTransformES8_S8_S8_fRNS_6PxVec3ESA_RNS_10PxcNpCacheERNS_18PxcNpThreadContextEf
ojd:__ZThn8_N5physx2Gu11HeightField14onRefCountZeroEv
Ytf:_m_324497146_0
FMc:__ZN5physx2Sc5Actor9setActiveEbj
bYd:__ZN12_GLOBAL__N_127SphereMeshContactGeneration15processTriangleEjRKN5physx6PxVec3ES4_S4_PKj
Vwa:__ZN7Cubemap23VirtualRedirectTransferER18StreamedBinaryReadILb0EE
XFc:__ZN5physx2Sc10NPhaseCore28reserveContactReportPairDataEjjRj
oXa:__ZN12FileAccessor4SeekEx10FileOrigin
yFd:__ZL18TestUnifiedNormalsjPKN5physx6PxVec3EjPNS_2Gu9TriangleTIjEEb
p3g:__Z44t_224738991_0_CustomAttributesCacheGeneratorP21CustomAttributesCache
_w:__ZN10AudioMixer11SetupGroupsEv
tDb:__ZNSt3__112basic_stringIcNS_11char_traitsIcEE13stl_allocatorIcL18MemLabelIdentifier1ELi16EEE9__grow_byEjjjjjj
sR:__ZN6il2cpp2vm5Class10IsNullableEPK8TypeInfo
gX:_UNITY_png_free
hca:__ZN13BatchRenderer12RenderSingleEjiPK14ChannelAssigns
RDh:__Z29RuntimeInvoker_t_1806863197_0PK10MethodInfoPvPS2_
ied:__ZNK5physx13GuMeshFactory17getNbConvexMeshesEv
oXh:__ZNSt3__115basic_streambufIwNS_11char_traitsIwEEE9showmanycEv
y7d:__ZN5physx2Cm12DelegateTaskINS_20PxsParticleSystemSimEXadL_ZNS2_21collisionFinalizationEPNS_10PxBaseTaskEEEE11runInternalEv
DG:_GC_enable
T7f:_m1921984537_0
nDe:_m_1160987357_0_gshared
LFg:_m1913895325_0
Zk:_glStencilOp
UQa:__ZN13ProxyTransfer20TransferTypelessDataEjPvi
$ag:_m_2074559827_0
iUf:_m332238777_0
TUe:_m2030445923_0
EDa:__ZN14Texture2DArray23VirtualRedirectTransferER18StreamedBinaryReadILb0EE
Amf:_m_1595513072_0
cZf:_m_474761373_0
Xlb:__ZL27GetDestRenderTargetSurfacesP13RenderTextureR12ObjectHandleI17RenderSurface_TagP17RenderSurfaceBaseES6_
E8d:__ZN5physx23PxsSolverSetupSolveTaskD2Ev
d6c:__ZN5physx23PxVehicleWheels4SimData26setSuspForceAppPointOffsetEjRKNS_6PxVec3E
DEf:_m_1511100601_0
MCg:_m_2123951158_0
jvg:_m_2021091927_0
fs:__ZNK4PPtrI8RendererEcvPS0_Ev
bVa:__ZN6Shader23VirtualRedirectTransferER13ProxyTransfer
T1c:__ZN5physx26PxcFsComputeJointLoadsSimdERKNS_9PxcFsDataEPKNS_12PxcFsInertiaEPNS_6shdfnd3aos6Mat33VEPKfjjNS_21PxcFsScratchAllocatorE
itd:__ZN18MultiQueryCallbackIN5physx12PxOverlapHitEE6invokeERfPKNS0_2Sq13PrunerPayloadEj
Nof:_m439236702_0
wQb:__Z22Transfer_Builtin_AlignIh18StreamedBinaryReadILb1EELb0EEvRK29SerializationCommandArgumentsR31RuntimeSerializationCommandInfo
_6e:_m_2030071082_0
El:_glGetStringi
lkf:_m1636785090_0
gZb:__Z16Transfer_BuiltinI5RectTIfE17RemapPPtrTransferLb1EEvRK29SerializationCommandArgumentsR31RuntimeSerializationCommandInfo
kWh:__ZNSt3__112basic_stringIcNS_11char_traitsIcEENS_9allocatorIcEEE6assignEPKc
xNd:__ZN5physx22NpParticleBaseTemplateINS_15PxParticleFluidENS_15NpParticleFluidEE14setRestitutionEf
tgd:__ZThn8_N5physx2Gu10ConvexMeshD0Ev
_Re:_m1199829305_0
Mlf:_m_1635236747_0
dRb:__ZN6HelperI18StreamedBinaryReadILb1EE23TransferArrayField_InfoLb1EE24SerializationFunctionForERKS2_R23StaticTransferFieldInfoPb
WBg:_m_1356289594_0
pva:__Z20scripting_gc_collecti
cof:_m_1553389407_0
Dnf:_m_738813179_0
dKb:__ZN13ScreenManager16SetScreenTimeoutEi
cIg:_m_374918432_0
fgg:_m1743955147_0
bSb:__Z19TransferField_ArrayI18StreamedBinaryReadILb1EE19Converter_PrimitiveI11ColorRGBA32EEvRK23StaticTransferFieldInfoR31RuntimeSerializationCommandInfoRT0_
qjc:__ZN13TargetJoint2D16StaticInitializeEPv
afa:__Z35IntersectSpherePlaneBoundsOptimizedRKN4math7_float4EPS1_i
Smg:_m334223851_0
gJd:__ZN13dynamic_arrayIN5physx12PxOverlapHitELj4EE7reserveEj
Pqh:__Z58t1236822669_0_CustomAttributesCacheGenerator_m_190832963_0P21CustomAttributesCache
RYg:_m_1072810544_0_gshared
Ozc:__ZNK5physx7NpCloth22getAngularInertiaScaleEv
Z6g:__Z59t_1019836496_0_CustomAttributesCacheGenerator_m_777581289_0P21CustomAttributesCache
BVd:__ZN26IntersectAnyVsMeshCallbackILi1ELb1EE10processHitERKN5physx12PxRaycastHitERKNS1_6PxVec3ES7_S7_RfPKj
Lag:_m2098380648_0
Xah:__Z44t_156336807_0_CustomAttributesCacheGeneratorP21CustomAttributesCache
Jfa:__Z22CleanupLODGroupManagerPv
vvd:__ZN5physx6shdfnd5ArrayINS_2Sc5Scene14SimpleBodyPairENS0_19ReflectionAllocatorIS4_EEE8recreateEj
km:_glUniform3fv
Gtg:_m_954775955_0
y0g:_m1395834125_0_gshared
ZKh:__ZN23InterfaceActionInvoker2IP13t_742003098_0iE6InvokeEjP8TypeInfoPvS1_i
Uwb:__ZNSt3__16__treeINS_12__value_typeIi10vector_setIiNS_4lessIiEENS_9allocatorIiEEEEENS_19__map_value_compareIiS8_S4_Lb1EEENS5_IS8_EEE7destroyEPNS_11__tree_nodeIS8_PvEE
wKg:_m353901888_0
qya:__ZNK16LightmapSettings31GetRealtimeLightmapDecodeValuesEv
lx:__ZN5audio5mixer12SetSuspendedERNS0_16AudioMixerMemoryEb
MSa:__ZN17PersistentManager21UnloadNonDirtyStreamsEv
Ueh:__Z44t1340577394_0_CustomAttributesCacheGeneratorP21CustomAttributesCache
Hya:__ZN15LightProbeGroup13StaticCleanupEPv
srh:__Z59t1085125273_0_CustomAttributesCacheGenerator_m_1050251129_0P21CustomAttributesCache
Xne:_m_1678325533_0_gshared
_of:_m926863599_0
G0g:_m1037663921_0_gshared
vgg:_m381258499_0
EHc:__ZN5physx2Sc5Scene13ccdBroadPhaseEPNS_10PxBaseTaskE
r0:__Z20CheckMessageDataTypeiR11MessageData
Dm:_emscripten_glDepthMask
_0d:__ZN5physx18RepXPropertyFilterINS_2Sn17RepXVisitorReaderINS_17PxVehicleTireDataEEEEclILj601ES3_jjEEvRKNS_14PxPropertyInfoIXT_ET0_T1_T2_EEj
NHd:__ZN5physx2Gu24PCMMeshContactGeneration15processContactsEhb
Bwa:__ZN4crnd25static_huffman_data_model22prepare_decoder_tablesEv
eDa:__ZN9Texture2D23VirtualRedirectTransferER17RemapPPtrTransfer
RYd:__ZN5physx7profile8ZoneImplINS_28PxProfileNameProviderForwardEE9doAddNameEPKctb
Upf:_m1176065097_0
_gc:__ZL22CleanupUnityWebStreamsPv
tTh:__Znaj
Gdi:_emscripten_glEnableClientState__wrapper
e5c:__ZN5physx16PxVehicleDrive4W5setupEPNS_9PxPhysicsEPNS_14PxRigidDynamicERKNS_22PxVehicleWheelsSimDataERKNS_23PxVehicleDriveSimData4WEj
Oyd:__ZN5simdi8allEqualERK8Scalar4fS2_
Q_:__ZN11GameManager15ThreadedCleanupEv
lBd:__ZN5physxL26solveFriction4_StaticBlockEPKNS_23PxcSolverConstraintDescERNS_16PxcSolverContextE
Gyh:__Z58RuntimeInvoker_t_887538054_0_t_1047952454_0_t_1047952454_0PK10MethodInfoPvPS2_
t2c:__ZN5physx30PxcGetMaterialShapeHeightFieldEPKNS_12PxsShapeCoreES2_RNS_18PxcNpThreadContextEPNS_15PxsMaterialInfoE
q3:__ZNK6Camera16GetStereoEnabledEv
yph:__Z59t_867674284_0_CustomAttributesCacheGenerator_m_1792052752_0P21CustomAttributesCache
JHe:_m_1699100506_0
T6:__ZN12LightManager15InitializeClassEv
jwd:__ZN5physx6shdfnd8PoolBaseINS_2Sc19ParticlePacketShapeENS0_19ReflectionAllocatorIS3_EEE12allocateSlabEv
TOa:__ZN18ScriptingArgumentsC2Ev
DSc:__ZN5physx5cloth16SwInterCollisionI8Scalar4fED2Ev
o_g:_m894641912_0_gshared
mob:__ZN10MinMaxAABB11EncapsulateERK4AABB
r8e:_m_1846673690_0
f9h:_emscripten_glBlendFuncSeparate__wrapper
J_d:__ZN5physx25PxVehicleConstraintShader15getSerializableEv
PRh:__ZN18VirtActionInvoker1I14t_1047952454_0E6InvokeEjPvS0_
qxh:__Z29RuntimeInvoker_t_1842557272_0PK10MethodInfoPvPS2_
cr:__ZN8Vector3f8TransferI14SafeBinaryReadEEvRT_
hp:FUNCTION_TABLE_ii
clb:__ZN10TagManager8TransferI18StreamedBinaryReadILb0EEEEvRT_
M2d:__ZN5physx18RepXPropertyFilterINS_2Sn17RepXVisitorReaderINS_20PxVehicleAutoBoxDataEEEEclILj533ES3_KffEEvRKNS_14PxPropertyInfoIXT_ET0_T1_T2_EEj
Lz:__ZN4FMOD4DSPI6removeEv
Kqe:_m_821541234_0_gshared
hbg:_m962921011_0
uqf:_m2003432292_0
rb:invoke_diiii
cle:__ZL17sweepVolumeVsMeshPKN5physx3Cct9SweepTestEPKNS0_11TouchedMeshERNS0_12SweptContactERKNS_6PxVec3ERKNS_10PxGeometryERKNS_11PxTransformEjPKNS_10PxTriangleEj
Bpc:__ZNK5physx12NpBatchQuery19getFilterShaderDataEv
Tjd:__ZN5physx2Gu31checkOverlapOBB_heightFieldGeomERKNS_10PxGeometryERKNS_11PxTransformERKNS0_3BoxE
aAf:_m583019867_0
K7h:b40
$fd:__ZN5physx2Gu23findRotationMatrixFromZERKNS_6PxVec3E
sga:__Z9EndJobSetR8JobFence11JobPriority
R7h:b43
Xif:_m218260925_0
Uvb:__ZN9Texture3D8TransferI19StreamedBinaryWriteILb0EEEEvRT_
tnf:_m1403037425_0
d5h:dynCall_iiiiiiiiiiiiii
Ywc:__ZN5physx13NpVolumeCache10invalidateEv
Myh:__Z56RuntimeInvoker_t_224166001_0_t_887538054_0_t1532043049_0PK10MethodInfoPvPS2_
ysb:__ZL30RenderStaticBatchCmdDrawRangesRKN15RenderNodeQueue4NodeERK17MeshRenderingDataR14SharedMeshDataRK11MeshBuffersPK17BatchInstanceDatajRK14ChannelAssigns
u_g:_m_2078904856_0_gshared
$Xb:__ZL12InvokeMethodI17RemapPPtrTransferEvRK29SerializationCommandArgumentsR31RuntimeSerializationCommandInfo
SJh:__Z28RuntimeInvoker_t1910164791_0PK10MethodInfoPvPS2_
h8h:b49
oEa:__Z14IsHalfRTFormat19RenderTextureFormat
MZf:_m_345810354_0
cwa:__ZN11MonoManager25GetAssemblyIndexFromImageEP14ScriptingImage
DIg:_m_528262600_0
kNd:__ZN5physx22NpParticleBaseTemplateINS_15PxParticleFluidENS_15NpParticleFluidEE12setPositionsEjRKNS_16PxStrideIteratorIKjEERKNS4_IKNS_6PxVec3EEE
VHe:_m1709618143_0
eFd:__Z34setPxVehicleDriveTankMDriveSimDataPN5physx18PxVehicleDriveTankENS_21PxVehicleDriveSimDataE
z1a:__ZNK15Lz4Decompressor16DecompressMemoryEPKvPjPvS2_
l8c:__Z51getNbPxVehicleWheelsSimData_SuspForceAppPointOffsetPKN5physx22PxVehicleWheelsSimDataE
Sib:__ZNSt3__112__hash_tableINS_17__hash_value_typeIPK19Il2CppGenericMethodPK26Il2CppGenericMethodIndicesEENS_22__unordered_map_hasherIS4_S8_N6il2cpp8metadata23Il2CppGenericMethodHashELb1EEENS_21__unordered_map_equalIS4_S8_NSB_26Il2CppGenericMethodCompareELb1EEENS_9allocatorIS8_EEE15__insert_uniqueERKS8_
_De:_m202302354_0_gshared
T$h:__ZNKSt3__19money_putIwNS_19ostreambuf_iteratorIwNS_11char_traitsIwEEEEE6do_putES4_bRNS_8ios_baseEwRKNS_12basic_stringIwS3_NS_9allocatorIwEEEE
Gjf:_m295158192_0
B5c:__ZN5physx23PxVehicleWheels4DynData17getBinaryMetaDataERNS_14PxOutputStreamE
nmf:_m_513818104_0
SUe:_m_637609129_0
dib:__ZN6il2cpp6icalls8mscorlib6System9ThreadingL11ThreadStartEPv
dT:__ZN6il2cpp2vm9LastError31InitializeLastErrorThreadStaticEv
bIb:__ZN9GfxDevice12DeleteBufferEP9GfxBuffer
$_a:__ZNK16MemoryFileSystem30GetRelativeCaseInsensitivePathEPKcRNSt3__112basic_stringIcNS2_11char_traitsIcEE13stl_allocatorIcL18MemLabelIdentifier53ELi16EEEE
vac:__ZN14qsort_internal31_FindAndMovePivotToLastPositionIP15RODataDepthPassi17ROSorterDepthPassEEvT_S4_T0_T1_
nD:__ZNK4PPtrI10AudioMixerEptEv
$Ze:_m_1959378763_0
mha:__ZN12CachedReader10Align4ReadEv
EQe:_m_142128844_0
fQ:__ZN6il2cpp5utils5MatchENSt3__112basic_stringIcNS1_11char_traitsIcEENS1_9allocatorIcEEEERKS7_
Ctf:_m_776621468_0
Ish:__Z56RuntimeInvoker_t_224751869_0_t_887538054_0_t_887538054_0PK10MethodInfoPvPS2_
y6e:_m992741850_0
hEc:__ZN5physx2Sc14ConstraintCore13setBreakForceEff
D7c:__Z34setPxVehicleAutoBoxData_DownRatiosPN5physx20PxVehicleAutoBoxDataENS_18PxVehicleGearsData4EnumEf
cQ:__ZN6il2cpp2os8TimeZone15GetTimeZoneDataEiPxPNSt3__112basic_stringIcNS3_11char_traitsIcEENS3_9allocatorIcEEEE
N5:__ZN11HaloManager17RenderGeometryJobEP22HaloManagerGeometryJob
mcg:_m551956177_0
$wh:__Z84RuntimeInvoker_t_887538054_0_t_887538054_0_t1636693376_0_t_887538054_0_t1636693376_0PK10MethodInfoPvPS2_
sLg:_m1268589345_0
Ptc:__ZN5physx7NpScene15removeAggregateERNS_11PxAggregateEb
g1e:_m158196497_0
pTf:_m_1157074899_0
Loe:_m_1695864196_0_gshared
bHg:_m_292704362_0
dra:__ZN18AsyncUploadManagerC2Ev
M_d:__ZNK5physx14PxVehicleDrive19getConcreteTypeNameEv
ijb:__ZNSt3__16vectorI6pollfdNS_9allocatorIS1_EEE21__push_back_slow_pathIKS1_EEvRT_
qqe:_m982040097_0_gshared
nLh:__ZN18VirtActionInvoker1I13t_456977453_0E6InvokeEjPvS0_
Vyg:_m1586655803_0
i1g:_m_1306888509_0_gshared
NLb:__ZN17FileSystemHandler4CopyER13FileEntryDataS1_
Kyh:__Z43RuntimeInvoker_t_887538054_0_t_1216992900_0PK10MethodInfoPvPS2_
Glg:_m1539585932_0
h7h:_emscripten_glUniform4f__wrapper
Vzd:__ZN5physx6shdfnd5ArrayINS_25PxcThresholdStreamElementENS0_19ReflectionAllocatorIS2_EEE8recreateEj
Djg:_m469120675_0
a3:__ZNK6Camera16GetProjectionFarEv
p3b:__Z24InverseTransformRotationRK23TransformAccessReadOnlyRKN4math7_float4E
H$b:__ZL26Transfer_SimpleNativeClassI19StreamedBinaryWriteILb0EE8GUIStyleLb0EEvRK29SerializationCommandArgumentsR31RuntimeSerializationCommandInfo
ONh:__ZN23InterfaceActionInvoker5IttbbbE6InvokeEjP8TypeInfoPvttbbb
Img:_m1043791595_0
yIb:__ZN9GfxDevice21ResetDynamicResourcesEv
$zc:__ZN5physx7NpCloth21setCollisionMassScaleEf
una:__ZNK3WWW17GetSecurityPolicyEv
gUd:__ZN13PhysicsModule17GetRigidBodyStateERK9RigidbodyPN8IPhysics14RigidBodyStateE
sXh:__ZNSt3__115basic_streambufIwNS_11char_traitsIwEEE9pbackfailEj
Tme:__ZN20UnityConnectSettings23VirtualRedirectTransferER18StreamedBinaryReadILb1EE
EXg:_m2059168284_0_gshared
t$:__ZN17GlobalGameManager23VirtualRedirectTransferER18StreamedBinaryReadILb0EE
mHe:_m1050530395_0
oSc:__ZNK5physx5cloth9SwFactory20extractCollisionDataERKNS0_5ClothENS0_5RangeINS_6PxVec4EEENS5_IjEES7_S8_NS5_INS_6PxVec3EEE
jhh:__Z58t_702325573_0_CustomAttributesCacheGenerator_m1683588744_0P21CustomAttributesCache
mbb:__ZNK13TranslateGLES6EnableEN2gl10EnabledCapE
Sxe:_m_640929560_0_gshared
iya:__ZNK16LightmapSettings23HasLightProbeTetrahedraEv
u4g:__Z44t_674203774_0_CustomAttributesCacheGeneratorP21CustomAttributesCache
fHg:_m263198464_0
zO:__ZN6il2cpp2os6Thread15CurrentThreadIdEv
c3f:_m1219556799_0
oe:_emscripten_glVertexPointer
Mea:__Z17GetFrustumPortionPK8Vector3fffPS_
qXd:__ZNK5physx2Gu22SupportMapRelativeImplINS0_4BoxVEE18doWarmStartSupportEiRNS_6shdfnd3aos5Vec3VE
H9f:_m_926012804_0
_Kf:_m1145471883_0
u6:__ZN5Light13AwakeFromLoadE17AwakeFromLoadMode
kUb:__Z16Transfer_BuiltinI8Vector4f14SafeBinaryReadLb0EEvRK29SerializationCommandArgumentsR31RuntimeSerializationCommandInfo
Ufh:__Z44t_588131725_0_CustomAttributesCacheGeneratorP21CustomAttributesCache
l5b:__ZNK27OverridingParameterPreparer14OnPrepareFloatER12PartialArrayIfERKN20GpuProgramParameters14ValueParameterEj
_hf:_m856668951_0
C8e:_m_1757548966_0
agf:_m_713832599_0
dYe:_m_1705058593_0
Ora:__ZN14ChannelAssigns4BindE13ShaderChannel15VertexComponent
Vmd:__ZN8Collider16StaticInitializeEPv
HYg:_m1470814565_0_gshared
KXe:_m975601255_0
XPe:_m64683956_0
Nme:__Z34RegisterClass_UnityConnectSettingsv
Pzb:__ZNSt3__16__sortIRNS_4lessIiEEPiEEvT0_S5_T_
Dlc:__ZN5physx3Cct10Controller13onOriginShiftERKNS_6PxVec3E
CHa:__ZN10Matrix3x3f15InvertTransposeEv
DWe:_m910174041_0
dCe:_m111087899_0_gshared
cYf:_m_1976456132_0
U1a:__Z11IsBatchmodev
Qlf:_m_242056837_0
H7g:__Z59t_2004451924_0_CustomAttributesCacheGenerator_m2095001914_0P21CustomAttributesCache
LWd:__ZN5physx2Gu19_gjkRelativeRayCastINS0_9TriangleVENS0_11ConvexHullVEEEbRT_RT0_RKNS_6shdfnd3aos15PsMatTransformVERKNS9_6FloatVERKNS9_5Vec3VESI_RSD_RSG_SK_f
C0e:_m1897551102_0
ssd:__ZN12_GLOBAL__N_118createArticulationEv
vhc:__ZN13RuntimeStaticINSt3__13mapINS0_4pairIPcS3_EEPFbPvR14SafeBinaryReadE20smaller_cstring_pairNS0_9allocatorINS2_IKS4_S9_EEEEEEE13StaticDestroyES5_
Zrg:_m1945676962_0
vQd:__ZNK5physx19ActorAABBUpdateTask7getNameEv
M8c:__Z30getPxVehicleWheels_VehicleTypePKN5physx15PxVehicleWheelsE
h_f:_m_465507590_0
nOh:__ZL10SZArrayNewP8TypeInfoj405
HH:_il2cpp_gc_collect
Dwf:_m_1877971893_0
Ecg:_m1308606215_0
V5b:__ZN7SubMesh8TransferI18StreamedBinaryReadILb1EEEEvRT_
Huc:__ZN5physx7NpScene14resetFilteringERNS_12PxRigidActorEPKPNS_7PxShapeEj
x7b:__ZNSt3__114__split_bufferIPPN9ShaderLab17ParserShaderStateENS_9allocatorIS4_EEE10push_frontERKS4_
P$h:__ZNSt3__19money_putIwNS_19ostreambuf_iteratorIwNS_11char_traitsIwEEEEED0Ev
jeh:__Z44t_634726754_0_CustomAttributesCacheGeneratorP21CustomAttributesCache
UHe:_m_251158110_0
wPf:_m_789747052_0
cTg:_m98757386_0
EOa:__ZN18LoadSceneOperation7PerformEv
wGc:__ZN5physx2Sc5Scene26setSimulationEventCallbackEPNS_25PxSimulationEventCallbackEh
ySa:__ZN17PersistentManager22HasPreallocatedObjectsEv
YCh:__Z115RuntimeInvoker_t_224166001_0_t_1239404753_0_t1872282735_0_t_1225804211_0_t_1225804211_0_t1872374030_0_t1872282735_0PK10MethodInfoPvPS2_
eSd:__ZL30GeomMTDCallback_CapsuleCapsuleRN5physx6PxVec3ERfRKNS_10PxGeometryERKNS_11PxTransformES5_S8_
$uc:__ZN5physx7NpScene23forceDynamicTreeRebuildEbb
sHd:__ZL18intersectAnyVsMeshILi0EEbPKN5physx2Gu6SphereEPKNS1_7CapsuleEPKNS1_3BoxERKNS1_13RTreeMidphaseERKNS0_11PxTransformERKNS0_11PxMeshScaleEP14LimitedResults
koe:_m_1486545050_0_gshared
aNg:_m1431331290_0
g9e:_m_1217298873_0
v3b:__ZN15dense_hashtableINSt3__14pairIKPK17RenderSurfaceBaseP13RenderTextureEES4_N16RenderTextureMap11HashFunctorEN14dense_hash_mapIS4_S7_SA_NS0_8equal_toIS4_EE13stl_allocatorIS8_L18MemLabelIdentifier64ELi16EEE9SelectKeyESD_SG_E9copy_fromERKSJ_j
Xwb:__ZL23AddConflictingClassIMPL11ClassIDTypeS_
vih:__Z56t867363288_0_CustomAttributesCacheGenerator_m330942855_0P21CustomAttributesCache
KCe:_m925763058_0_gshared
yZg:_m_1865254080_0_gshared
R3d:__ZN5physx3Pvd17PvdPropertyFilterINS_2Sn17RepXVisitorWriterINS_18PxVehicleDriveTankEEEE14handleAccessorILj633ENS_22PxRepXPropertyAccessorILj633ENS_15PxVehicleWheelsENS_22PxVehicleWheelsDynDataESA_EEEEvRKT0_
iua:__ZN22VertexDeclarationCache5ClearEv
aA:__ZN4FMOD7SystemI18createChannelGroupEPKcPPNS_12ChannelGroupE
pPh:__ZN16VirtFuncInvoker0IP14t_2100355234_0E6InvokeEjPv
Kqh:__Z44t2114767076_0_CustomAttributesCacheGeneratorP21CustomAttributesCache
phh:__Z44t1704563080_0_CustomAttributesCacheGeneratorP21CustomAttributesCache
rYb:__Z26Transfer_UnityEngineObjectI17RemapPPtrTransferLb0EEvRK29SerializationCommandArgumentsR31RuntimeSerializationCommandInfo
g3a:__ZN17WeakPtrSharedDataD0Ev
zTc:__ZN5physx14PxsAABBManager21freeDestroyedOverlapsEv
Pfc:__ZNSt3__16vectorINS_12basic_stringIcNS_11char_traitsIcEENS_9allocatorIcEEEENS4_IS6_EEEC2ERKS8_
Gwg:_m1163560590_0
zSb:__Z19TransferField_ArrayI18StreamedBinaryReadILb1EE19Converter_PrimitiveI8Vector4fEEvRK23StaticTransferFieldInfoR31RuntimeSerializationCommandInfoRT0_
q$f:_m887391883_0
Cyh:__Z98RuntimeInvoker_t_887538054_0_t1628762099_0_t_887538054_0_t_887538054_0_t_887538054_0_t_887538054_0PK10MethodInfoPvPS2_
kid:__ZN5physx20InternalTriangleMesh16allocateVerticesEj
YXb:__Z13TransferFieldI13ProxyTransferLb1E19Converter_PrimitiveIaEEvRK23StaticTransferFieldInfoR31RuntimeSerializationCommandInfoRT1_
D2d:__ZN5physx18RepXPropertyFilterINS_2Sn17RepXVisitorReaderINS_23PxVehicleDriveSimDataNWEEEEclILj657ENS_21PxVehicleDriveSimDataERKNS_18PxVehicleGearsDataES8_EEvRKNS_14PxPropertyInfoIXT_ET0_T1_T2_EEj
RJh:__Z27RuntimeInvoker_t760203687_0PK10MethodInfoPvPS2_
blh:__Z45t_1938407861_0_CustomAttributesCacheGeneratorP21CustomAttributesCache
Ezd:__ZN5physx6shdfnd5ArrayINS_17PxcBroadPhasePairENS0_19ReflectionAllocatorIS2_EEE8recreateEj
OSc:__ZThn4_N5physx5cloth8SwSolverD1Ev
iAf:_m_2091742463_0
pde:__ZThn4_NK5physx5cloth9ClothImplINS0_7SwClothEE18getSleepAfterCountEv
wNg:_m_1798116989_0
lfh:__Z44t1522004308_0_CustomAttributesCacheGeneratorP21CustomAttributesCache
dWd:__ZThn4_N16RayRTreeCallbackILi1ELb0EED1Ev
v2d:__ZN5physx3Pvd17PvdPropertyFilterINS_2Sn17RepXVisitorWriterINS_16PxVehicleDriveNWEEEE14handleAccessorILj633ENS_22PxRepXPropertyAccessorILj633ENS_15PxVehicleWheelsENS_22PxVehicleWheelsDynDataESA_EEEEvRKT0_
V3g:__Z58t1458036598_0_CustomAttributesCacheGenerator_m1178707977_0P21CustomAttributesCache
kIa:__ZN20SphericalHarmonicsL219AddDirectionalLightERKN4math7_float3ERKNS0_7_float4E
ggd:__ZN5physx13BigConvexDataD2Ev
Zwb:__ZL30CollectComponentsWithoutAddingR10GameObjectiP14ScriptingClassR13dynamic_arrayI16AddComponentDataLj4EES6_PNSt3__112basic_stringIcNS7_11char_traitsIcEENS7_9allocatorIcEEEE
xFh:__Z84RuntimeInvoker_t_887538054_0_t_224751869_0_t_887538054_0_t1628762099_0_t1628762099_0PK10MethodInfoPvPS2_
oga:__Z26ScheduleJobForEachInternalR8JobFencePFvPvjES1_iPFvS1_E11JobPriority
pua:__ZN9Scripting18RaiseMonoExceptionEPKcz
jDa:__ZN9Texture2D8TransferI19StreamedBinaryWriteILb0EEEEvRT_
M$a:__ZN24RingBufferMemoryFileData6UnlockEPv
P1d:__ZN5physx18RepXPropertyFilterINS_2Sn17RepXVisitorWriterINS_19PxVehicleClutchDataEEEEclILj558ES3_jjEEvRKNS_14PxPropertyInfoIXT_ET0_T1_T2_EEj
Wha:__ZN9ShaderLab16FastPropertyName15InitBy28BitHashEj
oyb:__ZN13MonoBehaviour18TransferEngineDataI18StreamedBinaryReadILb0EEEE4PPtrI10MonoScriptERT_
n6b:__ZN18StreamedBinaryReadILb0EE21TransferSTLStyleArrayI13dynamic_arrayI10BlendShapeLj4EEEEvRT_17TransferMetaFlags
nNd:__ZN5physx22NpParticleBaseTemplateINS_15PxParticleFluidENS_15NpParticleFluidEE9addForcesEjRKNS_16PxStrideIteratorIKjEERKNS4_IKNS_6PxVec3EEENS_11PxForceMode4EnumE
BQe:_m_795306425_0
SGg:_m849533587_0
Hme:__ZN20UnityConnectSettings15InitializeClassEv
CWe:_m887802922_0
Xna:__ZN17PackedFloatVector12UnpackFloatsEPfiiii
nfb:__ZN13GfxDeviceGLES21DestroyComputeProgramER12ObjectHandleI18ComputeProgram_TagPvE
gYe:_m_1025094110_0
Kxd:__Z5recipRK8Scalar4f
a3a:__ZN17UniqueIDGenerator16DestroyPureIndexEj
A2f:_m_461513643_0
NFf:_m_421637375_0
UGb:__ZNK13BaseAllocator10IsAssignedEv
eOb:__ZN15dense_hashtableINSt3__14pairIKNS0_12basic_stringIcNS0_11char_traitsIcEENS0_9allocatorIcEEEES7_EES7_11djb2_hash_tIS7_EN14dense_hash_mapIS7_S7_SB_NS0_8equal_toIS7_EE13stl_allocatorIS9_L18MemLabelIdentifier53ELi16EEE9SelectKeyESE_SH_E5clearEv
ozc:__ZN5physx7NpCloth22removeCollisionCapsuleEj
rnf:_m904380337_0
vKe:_m405383205_0
H9b:__ZN6prcoreL26RemapGenericIntegerToFloatI17TexFormatARGB888815TexFormatRFloatEEvPKNS_9InnerInfoE
sWa:__ZN5Mutex6UnlockEv
fW:__ZN6il2cpp2vm10ThreadPool10InitializeEv
MWg:_m_378630305_0_gshared
tW:__ZN6il2cpp2vm17TypeNameParseInfoD2Ev
U8d:__ZN5physx18PxsSolverStartTask16articulationTaskEv
ZEf:_m_20329384_0
Thf:_m1912331399_0
Mza:__ZNK8Renderer8GetLayerEv
OJd:__ZN5physx3Cct17CapsuleController18setNonWalkableModeENS_27PxControllerNonWalkableMode4EnumE
Ree:__ZN5physx2Sc11InteractionD2Ev
FUe:_m2110079385_0
V4:__ZN12FlareManager11DeleteFlareEi
z5g:__Z59t1621492670_0_CustomAttributesCacheGenerator_m_1230872802_0P21CustomAttributesCache
htd:__ZN18MultiQueryCallbackIN5physx12PxRaycastHitEE6invokeERfPKNS0_2Sq13PrunerPayloadEj
pfc:__ZL23stbir__calculate_memoryP11stbir__info
iWa:__Z36UnityPropertySheet_MakeSortedTexEnvsRKNSt3__13mapIN9ShaderLab16FastPropertyNameEN18UnityPropertySheet11UnityTexEnvENS_4lessIS2_EENS_9allocatorINS_4pairIKS2_S4_EEEEEER10vector_mapIS2_S4_S6_NS7_INS8_IS2_S4_EEEEE
EKf:_m1604686507_0
qde:__ZThn4_NK5physx5cloth9ClothImplINS0_7SwClothEE17getSleepPassCountEv
Jie:__ZN5physx15NpActorTemplateINS_13PxRigidStaticEE13setActorFlagsENS_7PxFlagsINS_11PxActorFlag4EnumEtEE
Fie:__ZN5physx15NpActorTemplateINS_13PxRigidStaticEE7releaseEv
k3c:__ZN5physx18PxcNpThreadContextD2Ev
MLd:__ZN5physx19NpRigidBodyTemplateINS_14PxRigidDynamicEE11attachShapeERNS_7PxShapeE
PHe:_m_1085683130_0
Amg:_m_1484653693_0
Dfe:__ZN5physx6shdfnd4sortIPvNS0_4LessIS2_EENS0_19ReflectionAllocatorINS_2Sc13ConstraintSimEEEEEvPT_jRKT0_RKT1_
rmd:__ZN5Unity5Cloth16StaticInitializeEPv
nFg:_m_1163165577_0
skf:_m623077387_0
Ffd:__ZN5physx2Gu21SweepCapsuleTrianglesEjPKNS_10PxTriangleERKNS_17PxCapsuleGeometryERKNS_11PxTransformERKNS_6PxVec3EfPKjRSA_SF_RfRjfNS_7PxFlagsINS_9PxHitFlag4EnumEtEE
gqf:_m_934068487_0
_Ag:_m_2105741735_0
_Ub:__Z16Transfer_BuiltinIf14SafeBinaryReadLb1EEvRK29SerializationCommandArgumentsR31RuntimeSerializationCommandInfo
Add:__ZN5physx2Gu27computeBoundsAroundVerticesERNS_9PxBounds3EjPKNS_6PxVec3E
vtc:__ZNK5physx7NpScene9getLimitsEv
mGc:__ZN5physx2Sc8RigidSim25notifyShapeTranformChangeEv
VWd:__ZNK5physx2Gu29EPASupportMapPairRelativeImplINS0_9TriangleVENS0_8CapsuleVEE9doSupportERKNS_6shdfnd3aos5Vec3VERS7_SA_SA_
Gtb:__ZN13dynamic_arrayI10SceneRangeLj4EE7reserveEj
Ybf:_m294200959_0
k6h:dynCall_iifiiiii
sPg:_m_910939574_0
eVc:__ZN3MBP12updateObjectEjRK5IAABB
_Rh:__ZN21InterfaceFuncInvoker1ItP13t_887538054_0E6InvokeEjP8TypeInfoPvS1_
Grd:__ZN5physx6shdfnd5ArrayINS_6PxVec3ENS0_19ReflectionAllocatorIS2_EEE15growAndPushBackERKS2_
J3g:__Z58t_766435453_0_CustomAttributesCacheGenerator_m2036953453_0P21CustomAttributesCache
gO:__ZN6il2cpp2os19ReleaseSocketHandleEj
YGc:__ZN5physx2Sc5Scene20fireTriggerCallbacksEv
lUh:___cxa_can_catch
qvh:__Z70RuntimeInvoker_t1628762099_0_t_887538054_0_t_887538054_0_t_887538054_0PK10MethodInfoPvPS2_
W3d:__ZN5physx2Sn21RepXVisitorReaderBaseINS_18PxVehicleDriveTankEE8pushNameEPKc
Lhd:__ZN5physx2Gu18GJKRelativeRayCastERNS0_8CapsuleVERNS0_4BoxVERKNS_6shdfnd3aos15PsMatTransformVERKNS6_6FloatVERKNS6_5Vec3VESF_RSA_RSD_SH_fb
oae:__ZN5physx5cloth9ClothImplINS0_7SwClothEE14setTranslationERKNS_6PxVec3E
lqg:_m_2046586375_0
ax:__ZN10AudioMixer6UpdateEf
Kjf:_m743662351_0
GR:__ZN6il2cpp2vm5Class7GetTypeEP8TypeInfo
AP:__ZN6il2cpp2os5posix15PosixWaitObjectC2ENS2_4TypeE
KNb:__ZN14DrawBufferGLESI11IndexBuffer26IndexBufferUsageMapperGLESED0Ev
GUc:__ZN5physx15PxsArticulationD2Ev
p$d:__ZN5physx2Sn21RepXVisitorWriterBaseINS_22PxVehicleWheelsSimDataEE23extendedIndexedPropertyINS_3Pvd36PxPvdExtendedIndexedPropertyAccessorILj617ES2_KjiEEKNS_18PxUnknownClassInfoEEEvPjRKT_RT0_
Y8h:_emscripten_glVertexPointer__wrapper
Qha:__ZN23ShaderVariantCollection13WarmupShadersEv
Sob:__ZNK4PPtrI8MaterialEptEv
EHe:_m_1817383603_0
S7:__Z20SetupForwardAddLightRK15SharedLightDatafR17ShaderPassContextP9Texture2D
kOf:_m1660065334_0
Tzf:_m_1535220340_0
yAf:_m_1261208138_0
GLc:__ZN5physx2Sc18ParticleSystemCore13setRestOffsetEf
FCh:__Z41RuntimeInvoker_t_19515315_0_t2123452489_0PK10MethodInfoPvPS2_
dE:__ZN11AudioModule20SuspendVideoTexturesEv
LOf:_m_2140117505_0
nSf:_m894370686_0
Vqb:__ZZN15DirectorManager15InitializeClassEvEN38PostLateUpdateDirectorLateUpdatestruct7ForwardEv
Wsc:__ZN5physx13NpRigidStaticC2ERKNS_11PxTransformE
auh:__Z56RuntimeInvoker_t1458036598_0_t1458036598_0_t1458036598_0PK10MethodInfoPvPS2_
qTh:___cxa_get_globals_fast
$6d:__ZN5physxL20PxcSweepBoxTrianglesERKNS_11PxsCCDShapeES2_RKNS_11PxTransformES5_S5_S5_fRNS_6PxVec3ES7_RNS_10PxcNpCacheERNS_18PxcNpThreadContextERKNS_2Cm23FastVertex2ShapeScalingERNS_2Gu9TriangleVEf
ft:__ZN15PackedIntVector8TransferI13ProxyTransferEEvRT_
Nlc:__ZN5physx3Cct15ObstacleContextD0Ev
_aa:__ZN15SharedLightData7PrecalcEv
HHa:__ZN10Matrix4x4fmLERKS_
xr:__ZN4PPtrI9TransformE8TransferI18StreamedBinaryReadILb0EEEEvRT_
ngc:__ZNSt3__112__hash_tableINS_17__hash_value_typeINS_4pairIPKcS4_EEiEENS_22__unordered_map_hasherIS5_S6_24NamespaceAndNamePairHashLb1EEENS_21__unordered_map_equalIS5_S6_26NamespaceAndNamePairEqualsLb1EEENS_9allocatorIS6_EEE6rehashEj
KFa:__ZN17TransformInternal12InitLocalTRSE15TransformAccessRKN4math7_float3ERKNS1_7_float4ES4_
M_b:__Z16Transfer_BuiltinI10ColorRGBAf18StreamedBinaryReadILb0EELb1EEvRK29SerializationCommandArgumentsR31RuntimeSerializationCommandInfo
oSb:__Z14resize_trimmedINSt3__16vectorI10Matrix4x4f13stl_allocatorIS2_L18MemLabelIdentifier1ELi16EEEEEvRT_j
m6:__ZN5Light16TransformChangedEv
zJg:_m459230503_0
hob:__ZNK4PPtrI4MeshEdeEv
dZa:__ZN15ArchiveReadFileD0Ev
NXa:__ZNK12HandlerChain6ExistsERK13FileEntryData
usb:__ZN18ConcurrentFreeListI28FileTextureUploadInstructionE7CleanUpEv
mlf:_m_555239343_0
Xme:__ZN11UnityEngine15PlatformWrapper18GetOperatingSystemEv
Fgf:_m1201424140_0
MJh:__Z43RuntimeInvoker_t_1968926924_0_t_887538054_0PK10MethodInfoPvPS2_
Std:__ZN5physx3Scb9Aggregate9syncStateERNS0_5SceneE
lGf:_m_1583932608_0
PTh:__ZNSt8bad_castD0Ev
SYh:__ZNSt3__19__num_getIwE17__stage2_int_loopEwiPcRS2_RjwRKNS_12basic_stringIcNS_11char_traitsIcEENS_9allocatorIcEEEEPjRSD_Pw
fbi:_emscripten_glReadPixels__wrapper
SI:__ZN6il2cpp6icalls8mscorlib4Mono8Security12Cryptography18KeyPairPersistence10_CanSecureEP12Il2CppString
Omc:__ZN5physx7NpActor17resolveReferencesERNS_24PxDeserializationContextE
UFa:__ZN9InputAxisC2ERKNSt3__112basic_stringIcNS0_11char_traitsIcEENS0_9allocatorIcEEEE
p2f:_m263974265_0
N7f:_m_1494955134_0
T5g:__Z58t1621492670_0_CustomAttributesCacheGenerator_m1578426497_0P21CustomAttributesCache
Ofa:__ZN15LODGroupManager26CalculateAnimatedCrossFadeENS_11LODFadeDataEhfPhPf
mdb:__ZN13GfxDeviceGLES14SetRasterStateEPK17DeviceRasterState
Ysf:_m_1089704395_0
abb:__ZNK13TranslateGLES11BlendFactorE9BlendMode
NUb:__Z30TransferField_LinearCollectionI14SafeBinaryReadEvRK29SerializationCommandArgumentsR31RuntimeSerializationCommandInfo
tzd:__ZN5physx5Elems17setStaticAABBDataEjRKNS_17PxcAABBDataStaticE
gRa:__ZN14SafeBinaryRead11EndTransferEv
GSf:_m_1648485953_0
tHb:__ZNK3WWW12GetAudioClipEv
EUb:__ZN14SafeBinaryRead8TransferI8MonoPPtrEEvRT_PKc17TransferMetaFlags
eGg:_m_1089215715_0
Vfa:__ZN18ProceduralMaterial16StaticInitializeEPv
oNb:__ZN21UniformBufferTFMethod13MapBoneBufferEj
Ioh:__Z58t_92453903_0_CustomAttributesCacheGenerator_m_2022183655_0P21CustomAttributesCache
Ld:_cosf
HAa:__ZN13RenderTexture15SetAntiAliasingEi
CWf:_m265055480_0
NPa:__ZN9TextAsset15ThreadedCleanupEv
TIf:_m213320097_0
XSa:__ZN14SerializedFileD2Ev
eCb:__ZN18StreamedBinaryReadILb0EE19TransferSTLStyleMapINSt3__13mapIN9ShaderLab16FastPropertyNameE10ColorRGBAfNS2_4lessIS5_EENS2_9allocatorINS2_4pairIKS5_S6_EEEEEEEEvRT_17TransferMetaFlags
jga:__Z21CompleteFenceInternalR8JobFence
r7d:__ZN5physx6shdfnd5ArrayIPvNS0_16AlignedAllocatorILj64ENS0_9AllocatorEEEE15growAndPushBackERKS2_
adg:_m1711077603_0
Nuf:_m_1433565292_0
mra:__ZN18AsyncUploadManager17DoScaledPaddedJobEP28FileTextureUploadInstruction
_sa:__ZN9GfxDevice8EndEyeVREj
bmc:__ZN5physx3Cct12SweptCapsuleC2Ev
PUa:__ZN6Shader21AwakeFromLoadThreadedEv
hOb:__ZNK15dense_hashtableINSt3__14pairIKNS0_12basic_stringIcNS0_11char_traitsIcEENS0_9allocatorIcEEEES7_EES7_11djb2_hash_tIS7_EN14dense_hash_mapIS7_S7_SB_NS0_8equal_toIS7_EE13stl_allocatorIS9_L18MemLabelIdentifier53ELi16EEE9SelectKeyESE_SH_E10test_emptyERK30dense_hashtable_const_iteratorIS9_S7_SB_SJ_SE_SH_E
lKh:__ZN16VirtFuncInvoker0IiE6InvokeEjPv
Uig:_m_2102600458_0
K1b:__ZNSt3__118__insertion_sort_3IRN15ResourceManager10Dependency6SorterEPS2_EEvT0_S6_T_
R8b:__ZN6prcoreL17RemapGenericFloatI17TexFormatRGBFloat17TexFormatRGBAHalfEEvPKNS_9InnerInfoE
IA:__ZN10ObjectPoolIN4FMOD12ChannelGroupENS0_13ChannelGroupIEE5CheckEv
CSg:_m858705010_0
Z8e:_m_255251050_0
I0c:__ZN5physx24PxcContactBoxHeightFieldERKNS_2Gu13GeometryUnionES3_RKNS_11PxTransformES6_RKfRNS_10PxcNpCacheERNS0_13ContactBufferE
aO:__ZN6il2cpp2os9SemaphoreC2Eii
Sjh:__Z43t788385872_0_CustomAttributesCacheGeneratorP21CustomAttributesCache
obg:_m_2068482599_0
FSg:_m571210567_0
zNb:__ZN15UniformTFMethod20IsBoneCountSupportedEi
xQd:__ZNK5physx23AggregateAABBUpdateTask7getNameEv
$Fe:_m_1477380103_0_gshared
t_e:_m_726577449_0
C5h:dynCall_viidi
dyg:_m_1033196944_0
HRc:__ZNK5physx5cloth8SwFabric10getNumSetsEv
pHg:_m_1796546730_0
_nf:_m2117963023_0
mBc:__ZN5physx13NpClothFabric16scaleRestlengthsEf
D5f:_m1519815265_0
m8a:__ZN18ScreenManagerWebGL13SetLockCursorE14CursorLockMode
$ib:__ZNSt3__112__hash_tableINS_17__hash_value_typeINS_4pairIPK12PropertyInfoP8TypeInfoEEP24Il2CppReflectionPropertyEENS_22__unordered_map_hasherIS8_SB_17ReflectionMapHashIS8_ELb1EEENS_21__unordered_map_equalIS8_SB_19ReflectionMapEqualsIS8_ELb1EEEN6il2cpp2gc9AllocatorISB_EEE15__insert_uniqueERKSB_
HLh:__ZL9CastclassP13t_887538054_0P8TypeInfo16
Yth:__Z42RuntimeInvoker_t_224166001_0_t1628762194_0PK10MethodInfoPvPS2_
jvd:__ZN5physx6shdfnd5ArrayIPNS_2Sc17ParticleSystemSimENS0_19ReflectionAllocatorIS4_EEE8recreateEj
nMd:__ZNK5physx13NpRigidStatic7getTypeEv
Pwa:__ZN7Cubemap13StaticCleanupEPv
N9f:_m_417517142_0
lYh:__ZNSt3__17collateIwED2Ev
Mai:b58
Nai:b59
t$f:_m1929719251_0
k8h:b52
l8h:b53
i8h:b50
j8h:b51
Dbd:__ZN5physx9PxTaskMgrD0Ev
mwe:_m_2027004910_0_gshared
i9h:b54
C2d:__ZN5physx18RepXPropertyFilterINS_2Sn17RepXVisitorReaderINS_23PxVehicleDriveSimDataNWEEEEclILj656ENS_21PxVehicleDriveSimDataERKNS_19PxVehicleEngineDataES8_EEvRKNS_14PxPropertyInfoIXT_ET0_T1_T2_EEj
LEh:__Z70RuntimeInvoker_t_224166001_0_t1628762099_0_t1628762099_0_t1636693376_0PK10MethodInfoPvPS2_
WRh:__ZN16VirtFuncInvoker0IP12t442966370_0E6InvokeEjPv
K9c:__Z33getNbPxVehicleNoDrive_BrakeTorquePKN5physx16PxVehicleNoDriveE
KE:__ZNSt3__115basic_stringbufIcNS_11char_traitsIcEENS_9allocatorIcEEE9pbackfailEi
Jgf:_m176400816_0
D7f:_m_482636400_0
j5g:__Z57t1621492670_0_CustomAttributesCacheGenerator_m183313925_0P21CustomAttributesCache
p0:__ZN10GameObject12CleanupClassEv
YDh:__Z112RuntimeInvoker_t_887538054_0_t_887538054_0_t_887538054_0_t_887538054_0_t1628762099_0_t1628762099_0_t1636693376_0PK10MethodInfoPvPS2_
SCh:__Z41RuntimeInvoker_t_19515315_0_t_224607100_0PK10MethodInfoPvPS2_
Ftd:__ZN5physx3Scb5Scene13addRigidNoSimINS0_11RigidStaticELb0ELb1EEEvRT_RNS0_13ObjectTrackerE
WHb:__ZN9GfxDevice25SetShaderPropertiesSharedERK19ShaderPropertySheet
mmf:_m1005514726_0
rRa:__ZN18StreamedBinaryReadILb1EE20TransferTypelessDataEjPvi
yNa:__ZN10MonoScript17MainThreadCleanupEv
qAa:__ZN13RenderTexture9SetActiveEiP12ObjectHandleI17RenderSurface_TagP17RenderSurfaceBaseES4_PPS_i11CubemapFaceij
AZa:__ZN21ArchiveStorageCreatorD2Ev
UVg:_pinvoke_delegate_wrapper_t1645375671_0
SGh:__Z42RuntimeInvoker_t_224166001_0_t1942381821_0PK10MethodInfoPvPS2_
Bqb:__ZNSt3__16vectorIN9ShaderLab14ParserPropertyENS_9allocatorIS2_EEE21__push_back_slow_pathIKS2_EEvRT_
zLb:__ZN19FileAccessorHandlerD2Ev
nod:__Z14UpdateVehiclesf
xFf:_m_437129739_0
Jgh:__Z56t638321161_0_CustomAttributesCacheGenerator_m138259962_0P21CustomAttributesCache
k5g:__Z59t1621492670_0_CustomAttributesCacheGenerator_m_1163442461_0P21CustomAttributesCache
aId:__ZN13dynamic_arrayIN5Unity5Cloth26ClothConstrainCoefficientsELj4EE7reserveEj
sBa:__ZN13ScreenManager17RequestResolutionEiibi
IVd:__ZN26IntersectAnyVsMeshCallbackILi0ELb1EED2Ev
OH:_il2cpp_unity_liveness_calculation_from_statics
R1h:__ZNSt3__114__num_get_base10__get_baseERNS_8ios_baseE
cmg:_m_352879069_0
lAa:__ZN8Renderer8TransferI17RemapPPtrTransferEEvRT_
eGf:_m_1079571119_0
Tpb:__ZNSt3__15dequeIPN9ShaderLab17ParserShaderStateENS_9allocatorIS3_EEE19__add_back_capacityEv
Hca:__Z25DoForwardShaderRenderLoopR17RenderLoopContextR13dynamic_arrayI16RenderObjectDataLj4EEbbbi
kFg:_m_760439933_0
KGd:__ZN5physx2Gu20PointOutsideOfPlane4ERKNS_6shdfnd3aos5Vec3VES5_S5_S5_
VYg:_m1737013017_0_gshared
BNc:__ZNK5physx2Sc9ClothCore16getCollisionDataEPNS_22PxClothCollisionSphereEPjPNS_21PxClothCollisionPlaneES4_PNS_24PxClothCollisionTriangleE
Xuh:__Z84RuntimeInvoker_t_887538054_0_t_887538054_0_t_887538054_0_t_887538054_0_t1636693376_0PK10MethodInfoPvPS2_
eIa:__Z24LookRotationToQuaternionRK8Vector3fS1_P11Quaternionf
N8:__ZN16ReflectionProbes9GetCameraEv
DLc:__ZNK5physx2Sc18ParticleSystemCore20getMaxMotionDistanceEv
qY:__ZNK11AssetBundle25GetClassIDVirtualInternalEv
ejb:__ZN6il2cpp2vm11MethodStack23CleanupForCurrentThreadEv
JXb:__ZN13ProxyTransfer8TransferINSt3__16vectorI4AABB13stl_allocatorIS3_L18MemLabelIdentifier1ELi16EEEEEEvRT_PKc17TransferMetaFlags
rch:__Z43t928933779_0_CustomAttributesCacheGeneratorP21CustomAttributesCache
i6f:_m_988951572_0
yQd:__ZN5physx10BPWorkTaskD0Ev
mCb:__ZN18UnityPropertySheet8TransferI19StreamedBinaryWriteILb0EEEEvRT_
a4g:__Z43t_19515315_0_CustomAttributesCacheGeneratorP21CustomAttributesCache
fDh:__Z71RuntimeInvoker_t_887538054_0_t_887538054_0_t_1190127860_0_t_887538054_0PK10MethodInfoPvPS2_
Gpb:__ZN13dynamic_arrayIPN9ShaderLab10SubProgramELj4EE7reserveEj
r3b:__Z32TransferEnumWithNameForceIntSizeI14SafeBinaryRead13TextureFormatEvRT_RT0_PKc
qId:__ZN4PPtrI14PhysicMaterialE8TransferI18StreamedBinaryReadILb1EEEEvRT_
yId:__ZN12MeshCollider8TransferI13ProxyTransferEEvRT_
Vsd:__ZN5physx20NpRigidActorTemplateINS_13PxRigidStaticEE14resetFilteringERNS_3Scb11RigidObjectEPKPNS_7PxShapeEj
SUb:__Z22Transfer_Builtin_AlignIt14SafeBinaryReadLb1EEvRK29SerializationCommandArgumentsR31RuntimeSerializationCommandInfo
fre:_m_613289205_0_gshared
TB:__ZN4FMOD3DSP12setParameterEif
Ska:__ZN21UnityDefaultAllocatorI17LowLevelAllocatorE10DeallocateEPv
vka:__ZN13MemoryManager16StaticInitializeEv
$De:_m1003414509_0_gshared
t3b:__ZN17SharedTextureDataD0Ev
Koc:__ZNK5physx19NpArticulationJoint20getTangentialDampingEv
Cu:__ZN13AudioListener8DoUpdateEv
zlc:__ZN5physx3Cct10Controller22setUpDirectionInternalERKNS_6PxVec3E
Nm:_emscripten_glGenFramebuffers
wZ:__ZN17BaseObjectManager16StaticInitializeEPv
UHf:_m635426682_0
mXb:__Z22Transfer_Builtin_AlignIs13ProxyTransferLb1EEvRK29SerializationCommandArgumentsR31RuntimeSerializationCommandInfo
qxd:__ZN8Scalar4fC2ERKS_
yUe:_m_1892543281_0
Tda:__ZN9Behaviour23VirtualRedirectTransferER17RemapPPtrTransfer
H1e:_m623123084_0
npe:_m_1630119744_0_gshared
rLe:_m_415864211_0
Wfa:__ZN18ProceduralMaterial13StaticCleanupEPv
yNc:__ZNK5physx2Sc9ClothCore23getNbCollisionTrianglesEv
gog:_m_246931343_0
swc:__ZN5physx7NpShape16setFlagsInternalENS_7PxFlagsINS_11PxShapeFlag4EnumEhEE
rZg:_m_2029774735_0_gshared
W7c:__Z54getPxVehicleTireData_FrictionVsSlipGraphRecipx1Minusx0PKN5physx17PxVehicleTireDataE
xre:_m1746187054_0_gshared
Xfa:__ZN18ProceduralMaterial9ReloadAllEbb
Tgd:__ZN5physx2Gu30distanceSegmentTriangleSquaredERKNS_6shdfnd3aos5Vec3VES5_S5_S5_S5_RS3_S6_
KBb:__ZN13dynamic_arrayI12TypeTreeNodeLj4EE7reserveEj
e_:__ZN6Object15StringToClassIDEPKc
YBg:_m456868025_0
Hwa:__Z16DecompressCrunchPKhRjR13TextureFormatiiii18MemLabelIdentifier
Zqg:_m812009789_0
zn:_sqrt
_Ig:_m485985674_0
B6f:_m_1792361991_0
lN:__ZN6il2cpp8metadata13ArrayMetadata20SetupArrayInterfacesEP8TypeInfoRKNS_2os12FastAutoLockE
fqh:__Z57t_184308134_0_CustomAttributesCacheGenerator_m211612200_0P21CustomAttributesCache
wzc:__ZN5physx7NpCloth18setCollisionPlanesEPKNS_21PxClothCollisionPlaneEj
moh:__Z57t814710830_0_CustomAttributesCacheGenerator_m_110375958_0P21CustomAttributesCache
UTe:_m1493836693_0
qja:__ZN9ShaderLab9SubShader19CreateFromSubShaderERKS0_
yca:__Z29RenderForwardObjectsIntoDepthRK17RenderLoopContextP13RenderTextureP13dynamic_arrayI16RenderObjectDataLj4EE12ObjectHandleI17RenderSurface_TagP17RenderSurfaceBaseESC_iib
WUf:_m_892814168_0
sDd:__Z39setPxVehicleDifferential4WDataMRearBiasPN5physx27PxVehicleDifferential4WDataEf
_Hh:__Z70RuntimeInvoker_t_224166001_0_t1231116369_0_t1628762099_0_t1628762099_0PK10MethodInfoPvPS2_
Fa:invoke_iiiiiiiiii
Rse:_m_822620052_0_gshared
pif:_m_1582021970_0
JOa:__ZN18LoadSceneOperation19IntegrateTimeSlicedEi
eA:__ZN4FMOD7SystemI11createSoundEPKcjP22FMOD_CREATESOUNDEXINFOPPNS_5SoundE
GPa:__ZN16ScriptingManager24NotifyScriptCacheReleaseEj
c4a:__Z47Register_UnityEngine_Coroutine_ReleaseCoroutinev
Dtd:__ZN10ScSceneFnsIN5physx3Scb11RigidStaticEE6insertERNS0_2Sc5SceneERS2_
ew:__ZN15AudioReverbZone13SetFMODValuesEv
rhc:__ZL19StaticDestroyShaderPv
Jc:_glRenderbufferStorageMultisample
tjg:_m_1523068280_0
tzh:__Z71RuntimeInvoker_t_19515315_0_t_887538054_0_t_1965986214_0_t_1965986214_0PK10MethodInfoPvPS2_
$Ne:_m1333120384_0
dA:__ZN4FMOD7SystemI12createReverbEPPNS_6ReverbE
cQf:_m647232606_0
mY:_zcfree
aid:__ZN5physx2Gu15OBBTriangleTestC2ERKNS0_3BoxE
IGe:_m_786650998_0_gshared
XRa:__ZN17PersistentManager38InstanceIDToSerializedObjectIdentifierEiR26SerializedObjectIdentifier
Udd:__ZN5physx2Gu21computeMTD_SphereMeshERNS_6PxVec3ERfRKNS0_6SphereERKNS_22PxTriangleMeshGeometryERKNS_11PxTransformE
yGf:_m_1398923436_0
awb:__Z18TransformDirection23TransformAccessReadOnlyRKN4math7_float3E
d8f:_m1332311411_0
FFc:__ZN5physx2Sc10NPhaseCore15fetchFilterPairEPv
_xd:__ZN5physx5cloth11BoundingBoxI8Scalar4fEaSERKS3_
tFd:__ZN5physx12SubSortQuick5sort4EPjjRNS_6shdfnd5ArrayINS_11RTreeNodeNQENS2_19ReflectionAllocatorIS4_EEEERjRNS_10PxBounds3VEj
baf:_m_28560349_0
$vd:__ZN5physx6shdfnd5ArrayIPNS_2Sc8BodyCoreENS0_19ReflectionAllocatorIS4_EEE15growAndPushBackERKS4_
xxd:__ZN12_GLOBAL__N_113generateConesEPN5physx5cloth8ConeDataEPKNS1_10SphereDataEPKNS1_9IndexPairEj
sKf:_m_1691322551_0
W9b:__ZN22BlockMemoryCacheWriter11GetPathNameEv
ipd:__ZN14PhysicsManager23VirtualRedirectTransferER14SafeBinaryRead
w9g:__Z45t_1298773593_0_CustomAttributesCacheGeneratorP21CustomAttributesCache
B_d:__ZN5physx25PxVehicleConstraintShader36vehicleSuspLimitConstraintSolverPrepEPNS_14Px1DConstraintERNS_6PxVec3EjRNS_24PxConstraintInvMassScaleEPKvRKNS_11PxTransformESB_
Tx:__ZN11SoundHandle8Instance22ReleaseIfNotReferencedEv
HIg:_m1053332613_0
LRh:__ZN16VirtFuncInvoker3IP14t_1225802637_0P14t_1238178395_0iiE6InvokeEjPvS3_ii
anc:__ZN5physx7NpActor14onActorReleaseEPNS_7PxActorE
wlc:__ZN5physx3Cct26CharacterControllerManager19computeInteractionsEfPNS_26PxControllerFilterCallbackE
bde:__ZThn4_N5physx5cloth9ClothImplINS0_7SwClothEE24setSelfCollisionDistanceEf
Rp:stackAlloc
Fvd:__ZN5physx6shdfnd8PoolBaseINS_2Cm5BlockIhLj256EEENS0_19ReflectionAllocatorIS4_EEE12allocateSlabEv
X$a:__ZN25SingleBlockMemoryFileData4LockEPPv
ULb:__ZN12HandlerChain5TouchER13FileEntryData
bOh:__ZN16VirtFuncInvoker0IP14t_1161824911_0E6InvokeEjPv
uwe:_m1811681607_0_gshared
Hpf:_m_710193602_0
Dxe:_m780457938_0_gshared
xve:_m_1335825548_0_gshared
rd:_stat
mlh:__Z43t818823972_0_CustomAttributesCacheGeneratorP21CustomAttributesCache
qWf:_m1445269293_0
HEe:_m_1297127133_0_gshared
_sf:_m_892135183_0
LYe:_m_2017797701_0
pGb:__ZN6CameraD2Ev
ngd:__ZN5physx2Gu21findUniqueConvexEdgesEjPNS0_10ConvexEdgeEjPKNS0_15HullPolygonDataEPKh
lje:__ZN5physx20NpRigidActorTemplateINS_14PxRigidDynamicEED0Ev
ta:invoke_iiiiiiiiiiii
Smb:__ZN13dynamic_arrayIP13ProbeRendererLj4EE7reserveEj
R$c:__ZN5physx43solveContactCoulombPreBlock_WriteBackStaticEPKNS_23PxcSolverConstraintDescEjRNS_16PxcSolverContextEPNS_25PxcThresholdStreamElementEjPi
m8h:___assert_fail__wrapper
eUd:__ZN10CastFilterD0Ev
LQf:_m830409911_0
nHc:__ZN5physx2Sc5Scene23allocateConstraintBlockEj
jjf:_m_754568866_0
a7a:__Z43Register_UnityEngine_GameObject_SendMessagev
v3e:_m406388795_0
IIc:__ZN5physx2Sc5Scene11onBodySleepEPNS0_7BodySimE
JMc:__ZN5physx2Sc5Actor15onElementDetachERNS0_7ElementE
WFe:_m_1875685790_0_gshared
Elf:_m_445082829_0
N_b:__Z16Transfer_BuiltinI11ColorRGBA3218StreamedBinaryReadILb0EELb1EEvRK29SerializationCommandArgumentsR31RuntimeSerializationCommandInfo
P6d:__ZN5physx6shdfnd4sortIPvNS0_4LessIS2_EENS0_19ReflectionAllocatorIN17PxcPoolMallocData10PoolData32EEEEEvPT_jRKT0_RKT1_
_Gh:__Z55RuntimeInvoker_t_224166001_0_t1628762099_0_t742775054_0PK10MethodInfoPvPS2_
YFd:__ZN5physx6shdfnd5ArrayIPNS_2Gu10ConvexMeshENS0_19ReflectionAllocatorIS4_EEE15growAndPushBackERKS4_
yw:__ZN11AudioSource16UpdateParametersE12SoundChannel
gkc:__ZN5physx3Cct13BoxController13setHalfHeightEf
MNe:_m1416151043_0
Jof:_m_1159375266_0
Yxc:__ZN5physx3Scb13ObjectTracker5clearEv
QFe:_m_1511126038_0_gshared
pPa:__Z42ScriptingGetComponentsOfTypeFromGameObjectRK26ScriptingGetComponentsArgs
lSd:__ZL23GeomMTDCallback_BoxMeshRN5physx6PxVec3ERfRKNS_10PxGeometryERKNS_11PxTransformES5_S8_
$2e:_m_1493583311_0
fog:_m_1115060815_0
xMe:_m1090073055_0
x3h:__ZNSt3__114__split_bufferIPNS_6locale5facetERNS_15__sso_allocatorIS3_Lj28EEEEC2EjjS6_
NFa:__ZN17TransformInternal22CopyTransformHierarchyER18TransformHierarchyjjS1_j
pzc:__ZNK5physx7NpCloth22getNbCollisionCapsulesEv
kzg:_m540069098_0
x0f:_m69203352_0
re:_emscripten_glBufferSubData
mBh:__Z42RuntimeInvoker_t_818288618_0_t_766435453_0PK10MethodInfoPvPS2_
Eqe:_m1794290832_0_gshared
ZFe:_m2019036153_0_gshared
N5f:_m_412574293_0
P6a:__Z30GameObject_CUSTOM_GetComponentP15ScriptingObjectS0_
Nyd:__ZlsRK8Scalar4fi
$7b:__ZN6prcoreL12RemapGenericI15TexFormatRGB88817TexFormatARGB8888EEvPKNS_9InnerInfoE
q3b:__Z17CalculateGlobalRS23TransformAccessReadOnly
PMd:__ZN5physx22NpParticleBaseTemplateINS_15PxParticleFluidENS_15NpParticleFluidEE7releaseEv
AXd:__ZNK5physx2Gu29EPASupportMapPairRelativeImplINS0_11ConvexHullVES2_E6getDirEv
dY:_unity_z_deflateReset
Yud:__ZN5physx2Sc19ContactReportBuffer23reallocateNotThreadSafeEjRjjj
pLf:_m_1454087326_0
hsf:_m902083627_0
ZVg:_m404059207_0_gshared
GMc:__ZN5physx2Sc5Actor19registerInteractionEPNS0_11InteractionE
WWe:_m_1602157703_0
M1a:_LzmaDec_DecodeToDic
Kha:__ZN22MemoryCacherReadBlocks14LockCacheBlockEjPPhS1_
nAg:_m1891261276_0
Lue:_m_1328482889_0_gshared
xLg:_m1238653738_0
rUd:__ZN13PhysicsModule19CreateNxHeightFieldEPv
emd:__ZN19CharacterController13StaticCleanupEPv
r7e:_t_497485311_0_marshal_cleanup
pbi:_emscripten_glTexSubImage2D__wrapper
FKe:_m_1649352259_0
YHh:__Z56RuntimeInvoker_t1628762099_0_t_887538054_0_t_215297020_0PK10MethodInfoPvPS2_
sxc:__ZN5physx15NpParticleFluid2isENS_11PxActorType4EnumE
p_b:__Z65EmitSerializationCommandsForLinearCollectionOfManagedOjbectsFieldI18StreamedBinaryReadILb0EEEvRK23TransferArrayField_InfoR20SerializationCommandR32SerializationCommandQueueBuilderRP20AllowNameConversions
WKf:_m711165077_0
u9c:__Z48setPxVehicleDriveSimData4W_AckermannGeometryDataPN5physx23PxVehicleDriveSimData4WERKNS_30PxVehicleAckermannGeometryDataE
VOd:__ZN5physx22NpParticleBaseTemplateINS_16PxParticleSystemENS_16NpParticleSystemEE11setGridSizeEf
LAh:__Z140RuntimeInvoker_t_224166001_0_t_887538054_0_t_373034138_0_t271175457_0_t_887538054_0_t1628762194_0_t1628762099_0_t_887538054_0_t_1047982445_0PK10MethodInfoPvPS2_
gFg:_m290133299_0
TY:__ZN39AssetBundleLoadFromStreamAsyncOperation11GetProgressEv
gf:_TTF_RenderText_Solid
prb:__ZN4Mesh7PRODUCEE18MemLabelIdentifier18ObjectCreationMode
vag:_m_854359587_0
GHh:__Z42RuntimeInvoker_t1310356942_0_t1628762099_0PK10MethodInfoPvPS2_
Rmb:__ZN17RemapPPtrTransfer8TransferI4PPtrI8MaterialEEEvRT_PKc17TransferMetaFlags
u1g:_m1211202023_0_gshared
jQb:__ZN7Hash1288TransferI18StreamedBinaryReadILb1EEEEvRT_
T_g:_m356273829_0_gshared
vaf:_m_487016219_0
wZb:__Z19TransferField_ArrayI17RemapPPtrTransfer27Converter_UnityEngineObjectEvRK23StaticTransferFieldInfoR31RuntimeSerializationCommandInfoRT0_
_Dc:__ZNK5physx2Sc7BodySim13isConnectedToERKNS0_8RigidSimERb
nnb:__ZN14RenderSettings8TransferI18StreamedBinaryReadILb0EEEEvRT_
AWe:_m1271550057_0
mpd:__ZN14PhysicsManager23VirtualRedirectTransferER17RemapPPtrTransfer
Ozf:_m_642296788_0
L2b:__ZN15dense_hashtableINSt3__14pairIKiiEEi21InstanceIDHashFunctorN14dense_hash_mapIiiS4_NS0_8equal_toIiEE13stl_allocatorIS3_L18MemLabelIdentifier1ELi16EEE9SelectKeyES7_SA_E9copy_fromERKSD_j
m1h:__ZNKSt3__17codecvtIDsc11__mbstate_tE10do_unshiftERS1_PcS4_RS4_
H1h:__ZNKSt3__18numpunctIcE16do_decimal_pointEv
A9e:_m417255288_0
Nrc:__ZN5physx9NpPhysics16createConvexMeshERNS_13PxInputStreamE
Of:_JS_SystemInfo_HasCursorLock
NSf:_m332508078_0
Iy:__ZN4FMOD8ChannelI11EndCallbackEv
PNh:__ZN23InterfaceActionInvoker3ItbbE6InvokeEjP8TypeInfoPvtbb
Mkd:__ZN5physx2Gu32PCMConvexVsMeshContactGeneration35generateTriangleFullContactManifoldERNS0_9TriangleVEjPKjhRKNS0_13PolygonalDataEPNS0_16SupportLocalImplIS2_EEPNS0_12SupportLocalEPNS0_21MeshPersistentContactERjRKNS_6shdfnd3aos6FloatVERNSI_5Vec3VE
x5a:__Z59Register_UnityEngine_MonoBehaviour_Internal_CancelInvokeAllv
Gag:_m1169623126_0
M6d:__ZNK16OBBAABBTest_SIMDclERKN5physx2Sq9BucketBoxE
sZg:_m1161245650_0_gshared
v$c:__ZN5physx15solveConclude1DERKNS_23PxcSolverConstraintDescERNS_16PxcSolverContextE
YL:__ZN6il2cpp6icalls8mscorlib6System10Reflection10MonoMethod29get_IsGenericMethodDefinitionEP22Il2CppReflectionMethod
_V:__ZN6il2cpp2vm6Thread21AllocThreadStaticDataEi
_Wh:__ZNSt3__115basic_streambufIcNS_11char_traitsIcEEE4syncEv
Vma:__ZN8Playable11DerivesFromEP14ScriptingClass
Dpb:__ZN13dynamic_arrayIhLj4EE7reserveEj
EAf:_m_921374745_0
Y0h:__ZNKSt3__17codecvtIcc11__mbstate_tE11do_encodingEv
rWd:__ZN5physx2Gu19_gjkRelativeRayCastINS0_8CapsuleVENS0_11ConvexHullVEEEbRT_RT0_RKNS_6shdfnd3aos15PsMatTransformVERKNS9_6FloatVERKNS9_5Vec3VESI_RSD_RSG_SK_f
sg:_emscripten_glUniform4i
Rrf:_m_634724972_0
LAd:__ZNK5physx27PxsFluidParticleOpcodeCache4readERtRjPjRKNS_9PxBounds3ERKNS0_18QuantizationParamsEPKNS_2Gu13GeometryUnionEb
ONd:__ZNK5physx22NpParticleBaseTemplateINS_15PxParticleFluidENS_15NpParticleFluidEE11getGridSizeEv
TVd:__ZN16RayRTreeCallbackILi0ELb1EED2Ev
xg:_emscripten_glUniform4f
ZZ:__ZN6Object22CheckInstanceIDsLoadedEPii
G2b:__ZN30RuntimeInitializeOnLoadManager9ClassInfo8TransferI13ProxyTransferEEvRT_
yG:_GC_default_oom_fn
Cdf:_m_84200478_0
B2g:_m1346267923_0_gshared
Ix:__ZN20SoundChannelInstance19setReverbPropertiesEP29FMOD_REVERB_CHANNELPROPERTIES
yZh:__ZNKSt3__18time_getIcNS_19istreambuf_iteratorIcNS_11char_traitsIcEEEEE3getES4_S4_RNS_8ios_baseERjP2tmPKcSC_
Xwf:_m_1675600747_0
x9e:_m_1518025058_0
b4f:_m39731123_0
fkg:_m764839637_0
ykc:__ZN5physx3Cct17CapsuleController15setClimbingModeENS_21PxCapsuleClimbingMode4EnumE
kld:__ZN5physx6shdfnd9atomicAddEPVii
N0d:__ZN5physx2Sn21RepXVisitorReaderBaseINS_27PxVehicleTireLoadFilterDataEE8pushNameEPKc
zYg:_m_1711959886_0_gshared
gpf:_m54125517_0
Rtd:__ZN5physx6shdfnd5ArrayINS_3Scb13MaterialEventENS0_19ReflectionAllocatorIS3_EEE6resizeEjRKS3_
oPe:_m414962568_0
oUc:__ZNK5physx14SingleAABBTask25updateNumFastMovingShapesEv
Tog:_m620693618_0
Uxb:__ZN18StreamedBinaryReadILb1EE21TransferSTLStyleArrayINSt3__16vectorIN15ResourceManager10DependencyENS2_9allocatorIS5_EEEEEEvRT_17TransferMetaFlags
sie:__ZNK5physx2Cm12DelegateTaskINS_7NpSceneEXadL_ZNS2_12executeSolveEPNS_10PxBaseTaskEEEE7getNameEv
fbd:__ZN5physx17ConvexMeshBuilder16computeGaussMapsEv
zra:__ZN24BuiltinShaderParamValuesC2Ev
AIg:_m100832938_0
HGa:__ZN11TimeManager6UpdateEv
HUa:__ZN6Shader18LoadDefaultShadersEv
imd:__ZN5Unity5Cloth22SetStretchingStiffnessEf
cCc:__ZNK5physx2Sc16ArticulationCore22computeImpulseResponseERNS0_8BodyCoreERNS_6PxVec3ES5_RKNS_9PxcFsDataERKS4_SA_
HUc:__ZN5physx21PxsBodyTransformVaultC2Ev
s0c:__ZN5physx29solveExtContactBlockWriteBackEPKNS_23PxcSolverConstraintDescEjRNS_16PxcSolverContextEPNS_25PxcThresholdStreamElementEjPi
IOb:__ZNSt3__17__sort5IRPFbRKNS_4pairIN9ShaderLab16FastPropertyNameEN18UnityPropertySheet11UnityTexEnvEEES8_EPS6_EEjT0_SD_SD_SD_SD_T_
_Hb:__ZN9GfxDevice12UpdateBufferEP9GfxBuffer13GfxBufferMode14GfxBufferLabeljPKvj
eNh:__ZN16VirtFuncInvoker1IbP11t18014439_0E6InvokeEjPvS1_
p7d:__ZL6IsInYZffPPK10VertexInfo
$$f:_m_89706216_0
y_d:__ZN5physx19TriangleMeshBuilderD0Ev
jh:_fflush
Lbg:_m_1909234111_0
xgb:__GLOBAL__sub_I_Error_cpp
SGe:_m2037212078_0
AKb:__ZN9Texture3DD2Ev
wXg:_m958571299_0_gshared
ncb:__ZN18GfxFramebufferGLES13ApplyViewportEv
XOb:__ZN10ColorRGBAf8TransferI19StreamedBinaryWriteILb0EEEEvRT_
lMh:__ZN18VirtActionInvoker1IP13t1451338986_0E6InvokeEjPvS1_
JDg:_m_1436182580_0
Nwe:_m125569100_0_gshared
rVg:_m138041110_0
kxf:_m_1061378836_0
Ncd:__ZN5physx2CmlsERNS0_12RenderOutputERKNS0_10DebugArrowE
Eba:__Z34ProcessIndexListIsNodeVisibleStep2RK22SceneCullingParametersPK9SceneNodePK4AABBR9IndexList
bLb:__ZN10MonoScriptD2Ev
vcc:__ZN23CompareReflectionProbesclI31RuntimeReflectionProbeBlendInfoEEbRKT_S4_
n8b:__ZN6prcoreL12RemapGenericI17TexFormatARGB888817TexFormatBGRA8888EEvPKNS_9InnerInfoE
hlh:__Z93t_1463933403_0_CustomAttributesCacheGenerator_t_1463933403_0_m2138526911_0_Arg1_ParameterInfoP21CustomAttributesCache
PQb:__Z16Transfer_BuiltinI11ColorRGBA3218StreamedBinaryReadILb1EELb0EEvRK29SerializationCommandArgumentsR31RuntimeSerializationCommandInfo
ehb:__GLOBAL__sub_I_half_cpp
Ftf:_m1725004900_0
wia:__ZN9ShaderLab4Pass16SetupPassOptionsEv
N4f:_m_1170628208_0
nnh:__Z45t_1780302542_0_CustomAttributesCacheGeneratorP21CustomAttributesCache
dQe:_m1023162040_0
Oh:_JS_Sound_ReleaseInstance
syg:_m_1343322986_0
Bub:__ZN15QualitySettings8TransferI13ProxyTransferEEvRT_
v7e:_m1242238737_0
nJg:_m1936091566_0
Rzd:__ZN5physx16PxsCCDBlockArrayINS_13PxsCCDOverlapELi128EE8pushBackEv
Olf:_m2053318471_0
fai:_emscripten_glPixelStorei__wrapper
jGf:_m_1083188174_0
v2f:_m_1252838487_0
En:FUNCTION_TABLE_diddi
gJ:__ZN6il2cpp6icalls8mscorlib6System5Array8FastCopyEP11Il2CppArrayiS5_ii
ejd:__ZN5physx2Gu12TriangleMesh7releaseEv
SPd:__ZN5physx5cloth8SwSolver25setInterCollisionDistanceEf
BGb:__ZN8GUILayerD2Ev
Lr:__ZN6Motion13StaticCleanupEPv
Pvf:_m1230483563_0
xlg:_m_856253958_0
Y$g:_m_662625143_0_gshared
vTc:__ZN5physx14PxsAABBManagerD2Ev
$0g:_m368879979_0_gshared
z9h:_emscripten_glUniform1f__wrapper
b_g:_m_288770853_0_gshared
NYc:__ZN5physx16PxsIslandManagerD2Ev
eWf:_m1550367333_0
j$h:__ZNSt3__110moneypunctIwLb1EED0Ev
$H:_il2cpp_monitor_enter
V1a:__Z20IsHumanControllingUsv
z1g:_m_54102946_0_gshared
w0d:__ZNK5physx35PxVehicleWheelsSimDataGeneratedInfo23visitInstancePropertiesINS_18RepXPropertyFilterINS_2Sn17RepXVisitorReaderINS_22PxVehicleWheelsSimDataEEEEEEEjT_j
DVd:__ZN26IntersectAnyVsMeshCallbackILi1ELb1EED0Ev
Zre:_m12996997_0_gshared
hPd:__ZNK5physx15NpActorTemplateINS_7PxClothEE17getDominanceGroupEv
Fhg:_m1724131135_0
$O:__ZN6il2cpp2os9EventImpl3SetEv
J1f:_m1081966177_0
Pdb:__ZN13GfxDeviceGLES17DestroyGpuProgramEPK10GpuProgram
vQb:__Z22Transfer_Builtin_AlignIa18StreamedBinaryReadILb1EELb0EEvRK29SerializationCommandArgumentsR31RuntimeSerializationCommandInfo
Bfh:__Z44t_802928328_0_CustomAttributesCacheGeneratorP21CustomAttributesCache
Klh:__Z45t_1518553720_0_CustomAttributesCacheGeneratorP21CustomAttributesCache
vCf:_m_672112210_0
gca:__ZN13BatchRenderer15ApplyShaderPassEv
fhc:__ZN12_GLOBAL__N_113StaticDestroyEPv
sSh:__ZN16VirtFuncInvoker1IP14t_1917202897_0iE6InvokeEjPvi
V5g:__Z58t1621492670_0_CustomAttributesCacheGenerator_m1779658273_0P21CustomAttributesCache
lei:_glUnmapBuffer__wrapper
T_h:__ZNKSt3__110moneypunctIcLb1EE14do_curr_symbolEv
Dgg:_m91070972_0
JJd:__ZN5physx3Cct17CapsuleController11setPositionERKNS_14PxExtendedVec3E
O4d:__ZN5physx18RepXPropertyFilterINS_2Sn17RepXVisitorReaderINS_23PxVehicleDriveSimData4WEEEEclILj662ES3_RKNS_27PxVehicleDifferential4WDataES7_EEvRKNS_14PxPropertyInfoIXT_ET0_T1_T2_EEj
e$b:__ZN18StreamedBinaryReadILb0EE21TransferSTLStyleArrayINSt3__16vectorINS2_12basic_stringIcNS2_11char_traitsIcEE13stl_allocatorIcL18MemLabelIdentifier1ELi16EEEES7_ISA_LS8_1ELi16EEEEEEvRT_17TransferMetaFlags
Hib:__ZN6il2cpp2vmL24SetupTypeHierarchyLockedEP8TypeInfoRKNS_2os12FastAutoLockE
rLa:__Z18GetResourceManagerv
B_g:_m55560147_0_gshared
eJe:_m_2116387642_0
cGh:__Z70RuntimeInvoker_t_887538054_0_t_887538054_0_t_725341337_0_t1989680039_0PK10MethodInfoPvPS2_
hwc:__ZN5physx7NpShape18setQueryFilterDataERKNS_12PxFilterDataE
fEe:_m_2102626350_0_gshared
aKc:__ZN5physx2Sc8ShapeSim18onRestOffsetChangeEv
_Cb:__ZNSt3__16__sortIRPFbRKNS_4pairIN9ShaderLab16FastPropertyNameE10ColorRGBAfEES7_EPS5_EEvT0_SC_T_
F2c:__ZN5physx20PxcNpCacheStreamPair5resetEv
SDb:_LzmaDec_TryDummy
yvh:__Z84RuntimeInvoker_t_224166001_0_t_887538054_0_t_887538054_0_t1628762099_0_t1628762099_0PK10MethodInfoPvPS2_
Kb:invoke_vi
pxe:_m_1488288179_0_gshared
Ib:invoke_vd
gOg:_m_226117852_0
Jb:invoke_vf
Vxb:__ZN19StreamedBinaryWriteILb0EE21TransferSTLStyleArrayINSt3__16vectorIN15ResourceManager10DependencyENS2_9allocatorIS5_EEEEEEvRT_17TransferMetaFlags
S$:__ZNK10GameObject8IsActiveEv
uhb:__GLOBAL__sub_I_ComputeShader_cpp
N4c:__ZN5physx2Sq16computeWorldAABBERKNS_3Scb5ShapeERKNS1_5ActorE
M3f:_m1986145049_0
a9h:_emscripten_glDrawArraysInstanced__wrapper
lKb:__ZN13ScreenManager18RequestOrientationE17ScreenOrientation
uFf:_m1129470714_0
TTc:__ZN5physx14PxsAABBManager31updateAggregateBPOverlapRecordsEv
xVd:__ZN26IntersectAnyVsMeshCallbackILi2ELb1EED0Ev
V7a:__ZN13EmscriptenWWW14BlockUntilDoneEv
fih:__Z57t867363288_0_CustomAttributesCacheGenerator_m2082043967_0P21CustomAttributesCache
MYe:_m831100599_0
JSg:_m949444901_0
cAf:_m480670679_0
fQe:_m_1288894977_0
vYc:__ZN5physx16PxsFluidDynamicsC2ERNS_20PxsParticleSystemSimE
UAe:_m143716486_0_gshared
P0d:__ZN5physx2Sn21RepXVisitorReaderBaseINS_22PxVehicleWheelsSimDataEE23extendedIndexedPropertyINS_3Pvd36PxPvdExtendedIndexedPropertyAccessorILj618ES2_KjNS_12PxFilterDataEEEKNS_18PxUnknownClassInfoEEEvPjRKT_RT0_
u0e:_m_368319889_0
yWh:__ZNKSt3__112basic_stringIcNS_11char_traitsIcEENS_9allocatorIcEEE7compareEjjPKcj
TVa:__ZN19ShaderPropertySheet24SetTextureTexelSizeValueERNS_15TexturePropertyERKN9ShaderLab16FastPropertyNameERK8Vector4f
DGb:__ZN8GUILayer12AddToManagerEv
vK:__ZN6il2cpp6icalls8mscorlib6System8MonoType13IsPointerImplEP20Il2CppReflectionType
wq:__ZN13dynamic_arrayI8Vector2fLj4EE7reserveEj
J$h:__ZNSt3__19money_putIcNS_19ostreambuf_iteratorIcNS_11char_traitsIcEEEEED0Ev
Fj:_emscripten_glFramebufferRenderbuffer
Y3b:__ZN15QualitySettings14QualitySetting8TransferI13ProxyTransferEEvRT_
NVg:_m_1870651635_0
kEc:__ZN5physx2Sc14ConstraintCore15getPxConstraintEv
ymd:__ZNK8Collider12GetRigidbodyEv
Mo:FUNCTION_TABLE_viiiiiiii
_Vb:__Z19TransferField_ArrayI14SafeBinaryRead19Converter_PrimitiveIyEEvRK23StaticTransferFieldInfoR31RuntimeSerializationCommandInfoRT0_
$Ma:__ZN13MonoBehaviour13StopCoroutineEPKc
KYf:_m_23273727_0
Ide:__ZN8Scalar4fC2Ejjjj
V9e:_m1819477787_0
JFa:__ZN17TransformInternal36OnScaleChangedCalculateTransformTypeE15TransformAccess
E7b:__ZN13dynamic_arrayINSt3__14pairIiP13RenderTextureEELj4EE7reserveEj
GYa:__ZN17ArchiveFileSystem10ToAbsoluteEPKc
iYh:__ZNKSt3__17collateIcE10do_compareEPKcS3_S3_S3_
UNh:__ZL5UnBoxP13t_887538054_0P8TypeInfo156
eSg:_m817747198_0
NTh:__ZNSt8bad_castC2Ev
yJe:_m_391458469_0
zd:_mmap
HVa:__ZN19ShaderPropertySheet20ReservePropertyCountEj
uQ:__ZN6il2cpp5utils11StringUtils6PrintfEPKcz
CJ:__ZN6il2cpp6icalls8mscorlib6System7Decimal13decimal2Int64EP19il2cpp_decimal_reprPx
ifc:__ZN18StreamedBinaryReadILb0EE19TransferSTLStyleMapINSt3__18multimapI8UnityStrN11AssetBundle9AssetInfoENS2_4lessIS4_EENS2_9allocatorINS2_4pairIKS4_S6_EEEEEEEEvRT_17TransferMetaFlags
A_b:__Z16Transfer_BuiltinIf18StreamedBinaryReadILb0EELb1EEvRK29SerializationCommandArgumentsR31RuntimeSerializationCommandInfo
vyb:__ZN10MonoScript7PRODUCEE18MemLabelIdentifier18ObjectCreationMode
WW:_UNITY_png_zstream_error
TDe:_m_1356624208_0_gshared
Rbf:_m_1688510426_0
NM:__ZN6il2cpp6icalls8mscorlib6System9Threading5Mutex20CreateMutex_internalEbP12Il2CppStringPb
Jfh:__Z43t_10978165_0_CustomAttributesCacheGeneratorP21CustomAttributesCache
g2f:_m_1432058357_0
hJc:__ZN5physx2Sc9ShapeCore23setSimulationFilterDataERKNS_12PxFilterDataE
GCb:__ZN18StreamedBinaryReadILb1EE19TransferSTLStyleMapINSt3__13mapI4PPtrI6ShaderE8UnityStrNS2_4lessIS6_EENS2_9allocatorINS2_4pairIKS6_S7_EEEEEEEEvRT_17TransferMetaFlags
Oic:__ZN16ParticleAnimator13StaticCleanupEPv
SRg:_m1370160530_0
Zkg:_m_1924112275_0
lfc:__ZN11AssetBundle9AssetInfo8TransferI14SafeBinaryReadEEvRT_
wgb:__GLOBAL__sub_I_GenericMetadata_cpp
PYd:__ZN5physx7profile12MemoryBufferINS0_21WrapperNamedAllocatorEE5writeIyEEvRKT_
g0d:__ZN5physx18RepXPropertyFilterINS_2Sn17RepXVisitorReaderINS_16PxVehicleNoDriveEEEEclILj632ENS_15PxVehicleWheelsENS_22PxVehicleWheelsSimDataES8_EEvRKNS_14PxPropertyInfoIXT_ET0_T1_T2_EEj
nEg:_m1022594523_0
Xdg:_m751166236_0
Rea:__Z24CalculateSpotLightBoundsffRK10Matrix4x4fR15SpotLightBounds
OJb:__ZNK13RenderTexture21GetShadowSamplingModeEv
jOf:_m_1354302767_0
_lb:__ZZN5Light15InitializeClassEvEN35FunctorImpl_Light_kTransformChanged4CallEPviR11MessageData
Xkf:_m_1264582763_0
bfh:__Z44t1573116945_0_CustomAttributesCacheGeneratorP21CustomAttributesCache
XSc:__ZN5physx5cloth8SwSolver14interCollisionEv
Ttg:_m_1596908235_0
Y6g:__Z45t_2076409426_0_CustomAttributesCacheGeneratorP21CustomAttributesCache
bEb:__ZN14WeakPtrTracker8RegisterER8ListNodeI17WeakPtrSharedDataE
jx:__ZN5audio5mixer22UpdateAudioMixerMemoryERKNS0_18AudioMixerConstantERNS0_16AudioMixerMemoryEfPN4FMOD6SystemEf
Nhh:__Z45t_1793354902_0_CustomAttributesCacheGeneratorP21CustomAttributesCache
gme:__ZL21InitializeCachedStripPv
rJ:__ZN6il2cpp6icalls8mscorlib6System7Convert24InternalFromBase64StringEP12Il2CppStringb
aN:__ZN6il2cpp6icalls8mscorlib6System9Threading6Thread23GetCachedCurrentCultureEP12Il2CppThread
W2:__ZNK6Camera22GetWorldToCameraMatrixEv
Pkh:__Z45t_1693845872_0_CustomAttributesCacheGeneratorP21CustomAttributesCache
PS:__ZN6il2cpp2vm12GenericClass11IsValueTypeEP18Il2CppGenericClass
sNa:__ZN13MonoBehaviour7SetNameEPKc
wgh:__Z88t586045924_0_CustomAttributesCacheGenerator_t586045924_0_m279545936_0_Arg1_ParameterInfoP21CustomAttributesCache
nOf:_m480650942_0
xud:__ZN5physx6shdfnd8PoolBaseINS_2Sc26ActorPairContactReportDataENS0_19ReflectionAllocatorIS3_EEE15disposeElementsEv
Bxg:_m_1848638156_0
WZe:_m_1157033918_0
NRa:__ZN18AwakeFromLoadQueue5ClearEv
nrd:__ZN5physx6shdfnd5ArrayIfNS0_19ReflectionAllocatorIfEEE8recreateEj
$Se:_m_273647324_0
Syb:__ZN13LoadOperationD2Ev
z0b:__Z16Transfer_BuiltinI11Quaternionf19StreamedBinaryWriteILb0EELb1EEvRK29SerializationCommandArgumentsR31RuntimeSerializationCommandInfo
_t:__ZN9AudioClip27IsFormatSupportedByPlatformERKNSt3__112basic_stringIcNS0_11char_traitsIcEENS0_9allocatorIcEEEE
f_g:_m122925550_0_gshared
tSd:__ZL29GeomOverlapCallback_SphereBoxRKN5physx10PxGeometryERKNS_11PxTransformES2_S5_PNS_2Gu12TriggerCacheE
sOf:_m1914750298_0
Lab:__ZNK7ApiGLES18GetExtensionStringEv
u7d:__ZNK5physx2Cm12DelegateTaskINS_20PxsParticleSystemSimEXadL_ZNS2_25spatialHashUpdateSectionsEPNS_10PxBaseTaskEEEE7getNameEv
A9h:_emscripten_glVertexAttrib1f__wrapper
yDa:__ZN14Texture2DArray13StaticCleanupEPv
yXf:_m1548643788_0
hYa:__ZNK12HandlerChain4SizeERK13FileEntryData
Pp:FUNCTION_TABLE_iiiiiiiii
Rzc:__ZN5physx7NpCloth15setInertiaScaleEf
vgc:__ZNSt3__112__hash_tableINS_17__hash_value_typeIPK19Il2CppGenericMethodP10MethodInfoEENS_22__unordered_map_hasherIS4_S7_N6il2cpp8metadata23Il2CppGenericMethodHashELb1EEENS_21__unordered_map_equalIS4_S7_NSA_26Il2CppGenericMethodCompareELb1EEENS_9allocatorIS7_EEE8__rehashEj
r5a:__Z34MonoBehaviour_CUSTOM_StopCoroutineP15ScriptingObjectP15ScriptingString
DAe:_m_501868736_0_gshared
yub:__ZN13dynamic_arrayI11TetrahedronLj4EE7reserveEj
_wb:__Z24GetComponentOrScriptNameRN5Unity9ComponentE
b5e:_m_156166544_0
jFf:_m_360517925_0
Mfd:__Z19sweepBox_SphereGeomRKN5physx10PxGeometryERKNS_11PxTransformERKNS_2Gu3BoxERKNS_6PxVec3EfRNS_10PxSweepHitENS_7PxFlagsINS_9PxHitFlag4EnumEtEEf
iF:_GC_allochblk
$Bf:_m1328171222_0
ALa:__Z15UnloadGameScenev
llg:_m_1299494729_0
hei:_glCheckFramebufferStatus__wrapper
ped:__ZNK5physx13GuMeshFactory15getHeightFieldsEPPNS_13PxHeightFieldEjj
G8e:_m_52822148_0
n7a:__ZN11PlayerPrefs9GetStringERKNSt3__112basic_stringIcNS0_11char_traitsIcEENS0_9allocatorIcEEEES8_
Rcd:__ZN5physx2Cm20visualizeJointFramesERNS0_12RenderOutputEfRKNS_11PxTransformES5_
V0c:__ZN5physx22PxcContactPlaneCapsuleERKNS_2Gu13GeometryUnionES3_RKNS_11PxTransformES6_RKfRNS_10PxcNpCacheERNS0_13ContactBufferE
O3b:__Z14resize_trimmedINSt3__16vectorIN15QualitySettings14QualitySettingENS0_9allocatorIS3_EEEEEvRT_j
hkf:_m1690187553_0
THh:__Z42RuntimeInvoker_t1628762099_0_t_456977453_0PK10MethodInfoPvPS2_
aib:__ZNSt3__16__treeINS_12basic_stringIcNS_11char_traitsIcEENS_9allocatorIcEEEENS_4lessIS6_EENS4_IS6_EEE7destroyEPNS_11__tree_nodeIS6_PvEE
l5d:__ZN5physx2Sn21RepXVisitorReaderBaseINS_16PxVehicleDrive4WEE15complexPropertyINS_22PxRepXPropertyAccessorILj667ENS_14PxVehicleDriveENS_21PxVehicleDriveDynDataES7_EEKNS_34PxVehicleDriveDynDataGeneratedInfoEEEvPjRKT_RT0_
Reh:__Z45t_1530054766_0_CustomAttributesCacheGeneratorP21CustomAttributesCache
lce:__ZThn4_NK5physx5cloth9ClothImplINS0_7SwClothEE17getAngularInertiaEv
VXd:__ZN5physx2Gu26EPASupportMapPairLocalImplINS0_8CapsuleVENS0_4BoxVEED0Ev
vkc:__ZN5physx3Cct17CapsuleController9setRadiusEf
owg:_m_1371481424_0
Wgg:_m_1201414863_0
sTa:__ZNK16TypeTreeIterator10ByteOffsetEv
JZa:__ZN21ArchiveStorageCreator10AppendDataEPKvj
b5h:dynCall_iiifii
sTh:__ZnwjRKSt9nothrow_t
Dih:__Z57t867363288_0_CustomAttributesCacheGenerator_m1290929502_0P21CustomAttributesCache
DPh:__ZN16VirtFuncInvoker1IP14t_1911405822_0iE6InvokeEjPvi
ZPb:__ZNSt3__118__stable_sort_moveIRN10vector_mapIP14ScriptingClassiNS_4lessIS3_EENS_9allocatorINS_4pairIS3_iEEEEE13value_compareENS_11__wrap_iterIPS8_EEEEvT0_SG_T_NS_15iterator_traitsISG_E15difference_typeEPNSJ_10value_typeE
A8e:_m2061698533_0
C5a:__Z45Register_UnityEngine_MonoBehaviour_IsInvokingv
vbh:__Z44t1668617154_0_CustomAttributesCacheGeneratorP21CustomAttributesCache
zBe:_m_58040502_0_gshared
RTe:_m_1043934131_0
Vrc:__ZN5physx9NpPhysics26unregisterDeletionListenerERNS_18PxDeletionListenerE
m8e:_t1719079768_0_marshal_back
$qh:__Z53t_1679366146_0_CustomAttributesCacheGenerator_m_CallsP21CustomAttributesCache
Kra:__Z30GetBuiltinVectorParamArraySize24BuiltinShaderVectorParam
mWf:_m1070008937_0
ISc:__ZN5physx5cloth15SwSelfCollisionI8Scalar4fEC2ERNS0_11SwClothDataER14StackAllocatorILj16EE
zeh:__Z44t1195262097_0_CustomAttributesCacheGeneratorP21CustomAttributesCache
t4b:__ZN18StreamedBinaryReadILb0EE21TransferSTLStyleArrayI13dynamic_arrayI7Hash128Lj8EEEEvRT_17TransferMetaFlags
x6g:__Z60t_1394772513_0_CustomAttributesCacheGenerator_m_1080254714_0P21CustomAttributesCache
k4f:_m_1972898492_0
apc:__ZNK5physx18NpArticulationLink15getArticulationEv
VTg:_m_299489087_0
b2f:_m870988588_0
J6b:__ZN14SafeBinaryRead21TransferSTLStyleArrayI13dynamic_arrayIfLj4EEEEvRT_17TransferMetaFlags
zLh:__ZN16VirtFuncInvoker2IbP13t_887538054_0PbE6InvokeEjPvS1_S2_
Zyf:_m111809118_0
m9f:_m_302113657_0
p0b:__Z16Transfer_BuiltinIy19StreamedBinaryWriteILb0EELb1EEvRK29SerializationCommandArgumentsR31RuntimeSerializationCommandInfo
DMh:__ZN16VirtFuncInvoker2IxxiE6InvokeEjPvxi
Zdf:_m1793285860_0
Qwg:_m_1707221593_0
aKe:_m1246442575_0
$ea:__Z33IntersectAABBPlaneBoundsOptimizedRK4AABBPKN4math7_float4Ei
ace:__ZThn4_N5physx5cloth9ClothImplINS0_7SwClothEE10setGravityERKNS_6PxVec3E
ysa:__ZN9GfxDevice19EndGeometryJobFrameEv
Eih:__Z57t867363288_0_CustomAttributesCacheGenerator_m1291328720_0P21CustomAttributesCache
PJf:_m210610506_0
t_f:_m_838437707_0
$Ec:__ZN5physx2Sc15CoreInteraction17isCoreInteractionEPNS0_11InteractionE
fNe:_m_1743160584_0
hkc:__ZN5physx3Cct13BoxController17setHalfSideExtentEf
U2g:__Z59t_738719148_0_CustomAttributesCacheGenerator_m_1207688742_0P21CustomAttributesCache
cWa:__ZN19ShaderPropertySheet21SerializeFromExternalEPhj
DDe:_m1592848456_0_gshared
g6b:__ZN17BlendShapeChannel8TransferI18StreamedBinaryReadILb1EEEEvRT_
l1:__Z31ManagerContextInitializeClassesv
hmg:_m1841037205_0
oCg:_m356326648_0
oMd:__ZNK5physx15NpActorTemplateINS_13PxRigidStaticEE8getSceneEv
Fdf:_pinvoke_delegate_wrapper_t1764849722_0
Okb:__ZNSt3__16__treeINS_12__value_typeINS_12basic_stringIcNS_11char_traitsIcEENS_9allocatorIcEEEE17MessageIdentifierEENS_19__map_value_compareIS7_S9_NS_4lessIS7_EELb1EEENS5_IS9_EEE7destroyEPNS_11__tree_nodeIS9_PvEE
M7:__Z20LightAttenuateApproxRKfS0_
gxb:__ZN13dynamic_arrayI11ObjectStateLj4EE7reserveEj
kla:__ZN17LowLevelAllocator6MallocEj
X2h:__ZNSt3__16locale5__imp7installINS_7num_putIcNS_19ostreambuf_iteratorIcNS_11char_traitsIcEEEEEEEEvPT_
zlg:_m_1979855706_0
mJg:_m1936088621_0
tXf:_m153588510_0
DKf:_m1503902376_0
VCb:__ZNSt3__16vectorINS_4pairIN9ShaderLab16FastPropertyNameEfEENS_9allocatorIS4_EEE21__push_back_slow_pathIKS4_EEvRT_
GHb:__ZN4MeshD0Ev
BJa:__Z21GetSceneHierarchyPathPK6Object
h4:__ZNK6Camera20IsCurrentlyRenderingEv
tkg:_m_1212683240_0
eq:__ZN12NavMeshAreas16StaticInitializeEPv
zCd:__ZN5physx2Sn17readAllPropertiesINS_18PxVehicleDriveTankEEEvNS_23PxRepXInstantiationArgsERNS_9XmlReaderEPT_RNS_18XmlMemoryAllocatorERNS_12PxCollectionE
wlb:__ZN6Camera8TransferI19StreamedBinaryWriteILb0EEEEvRT_
BBg:_m_132255304_0
oZf:_m292277479_0
D2f:_m1271024006_0
QUh:_wctomb
zMg:_m_608176717_0
XEb:__ZNSt3__16__treeI22DeviceStencilStateGLES11memcmp_lessIS1_18DeviceStencilStateENS_9allocatorIS1_EEE15__insert_uniqueERKS1_
aLb:__ZNK13MonoBehaviour25GetNeedsPerObjectTypeTreeEv
FTh:__ZNSt11logic_errorD0Ev
g$:__ZNK17GlobalGameManager25GetClassIDVirtualInternalEv
$4d:__ZN5physx18RepXPropertyFilterINS_2Sn17RepXVisitorReaderINS_27PxVehicleDifferential4WDataEEEEclILj539ES3_ffEEvRKNS_14PxPropertyInfoIXT_ET0_T1_T2_EEj
nid:__ZN5physx20InternalTriangleMesh17allocateFaceRemapEv
SZf:_m_1709690162_0
H9h:_glBindRenderbuffer__wrapper
ELa:__ZN10systeminfo23SupportsLocationServiceEv
vce:__ZThn4_NK5physx5cloth9ClothImplINS0_7SwClothEE13getNumSpheresEv
QNe:_m_642319265_0
ttc:__ZNK5physx7NpScene26getBounceThresholdVelocityEv
Xlh:__Z45t_1058320787_0_CustomAttributesCacheGeneratorP21CustomAttributesCache
ivd:__ZN5physx6shdfnd8PoolBaseINS_2Sc12SimStateDataENS0_19ReflectionAllocatorIS3_EEE15disposeElementsEv
$0a:__ZN20LocalFileSystemPosix4ReadER13FileEntryDatayyPvPy
KLd:__ZNK5physx14NpRigidDynamic13getGlobalPoseEv
HMg:_m_1312299204_0
T9h:_glPixelStorei__wrapper
KMa:__ZN13MonoBehaviour5DoGUIENS_13GUILayoutTypeEii
Mph:__Z92t_867674284_0_CustomAttributesCacheGenerator_t_867674284_0_m_1522836635_0_Arg1_ParameterInfoP21CustomAttributesCache
KJf:_m1208795610_0
ecg:_m117947704_0
Dla:__ZNK12TLSAllocatorI14StackAllocatorE8ContainsEPKv
fdg:_m1090917820_0
S3e:_m1879279918_0
$6e:_m1283354284_0
CRc:__ZThn4_NK5physx5cloth8SwFabric10getFactoryEv
x6b:__ZN14BlendShapeData8TransferI14SafeBinaryReadEEvRT_
THd:__ZN5physx2Gu15getPolygonIndexERKNS0_13PolygonalDataEPNS0_12SupportLocalERKNS_6shdfnd3aos5Vec3VE
hzh:__Z85RuntimeInvoker_t_887538054_0_t_887538054_0_t_887538054_0_t_887538054_0_t_1965986214_0PK10MethodInfoPvPS2_
F4c:__ZN5physx2Sq17SceneQueryManager17processSimUpdatesEv
rMh:__ZN18VirtActionInvoker1IhE6InvokeEjPvh
m9c:__Z34getPxVehicleDriveSimData_GearsDataPKN5physx21PxVehicleDriveSimDataE
N5d:__ZNK5physx26PxSerializerDefaultAdapterINS_18PxVehicleDriveTankEE8requiresERNS_6PxBaseERNS_23PxProcessPxBaseCallbackE
yVg:_m1326333162_0
uja:__ZN9ShaderLab9SubShader20IsSubShaderSupportedEv
NRf:_m1322809720_0
BXc:__ZN5physx10PxsContext25setVisualizationParameterENS_24PxVisualizationParameter4EnumEf
qEb:__ZL10KeyHandleriPK23EmscriptenKeyboardEventPv
Smd:__ZN8Collider16TransformChangedEi
DHd:__ZN24ConvexVsHeightfieldSweepC2ERN5physx2Gu15HeightFieldUtilERKNS1_14ConvexHullDataERKNS0_11PxMeshScaleERKNS0_11PxTransformESC_RKNS0_6PxVec3EfNS0_7PxFlagsINS0_9PxHitFlag4EnumEtEEfbb
b4g:__Z45t_1047952454_0_CustomAttributesCacheGeneratorP21CustomAttributesCache
mc:invoke_viffffffffffffiiii
kda:__Z28RenderSceneShaderReplacementRK13dynamic_arrayI11VisibleNodeLj4EEP6ShaderRKNSt3__112basic_stringIcNS6_11char_traitsIcEENS6_9allocatorIcEEEER17ShaderPassContext
FYb:__ZL26Transfer_SimpleNativeClassI17RemapPPtrTransfer10RectOffsetLb0EEvRK29SerializationCommandArgumentsR31RuntimeSerializationCommandInfo
o5:__ZN16GraphicsSettings12CleanupClassEv
RNg:_m977128040_0
Rye:_m_1150486334_0_gshared
I1c:__ZN5physx12PxcLtbFactorERNS_9PxcFsDataE
lxa:__ZN21EnlightenSceneMapping16BuildRemapTablesEv
Ike:__ZNK5physx2Cm12RenderBuffer8getTextsEv
TFh:__Z28RuntimeInvoker_t_981940947_0PK10MethodInfoPvPS2_
R3f:_m1381612181_0
Nia:__ZNK9ShaderLab20ShaderBlendStateDesc15ToGfxBlendStateEPK19ShaderPropertySheetS3_R13GfxBlendState
_ff:_m_1918319946_0
Njg:_m1856615844_0
M3c:__ZN5physx2Sq8AABBTree11shiftOriginERKNS_6PxVec3E
LBc:__ZNK5physx2Sc16ArticulationCore26getMaxProjectionIterationsEv
Kca:__ZN15LightmapSTCache26ApplyLegacyVertexLitMatrixERKN15RenderNodeQueue4NodeER9GfxDevice
iM:__ZN6il2cpp6icalls8mscorlib6System10Reflection4Emit11TypeBuilder20setup_internal_classEP27Il2CppReflectionTypeBuilderS7_
W9c:__ZN5physx11AdjacenciesD2Ev
VQb:__Z22TransferField_NonArrayI18StreamedBinaryReadILb1EE27Converter_SimpleNativeClassI11GradientNEWEEvRK23StaticTransferFieldInfoR31RuntimeSerializationCommandInfoRT0_
Jud:__ZN5physx6shdfnd8PoolBaseINS_2Sc24ElementInteractionMarkerENS0_19ReflectionAllocatorIS3_EEE12allocateSlabEv
EJc:__ZThn8_N5physx2Sc19ShapeInstancePairLL12onDeactivateEj
JCb:__ZNSt3__16vectorI4PPtrI6ShaderENS_9allocatorIS3_EEE21__push_back_slow_pathIKS3_EEvRT_
Nra:__ZN14ChannelAssignsC2Ev
qkb:__ZNSt3__16vectorI16MessageForwarder13stl_allocatorIS1_L18MemLabelIdentifier6ELi8EEE6resizeEj
b6d:__ZNK5physx26PxSerializerDefaultAdapterINS_16PxVehicleDrive4WEE12getClassSizeEv
xHa:__ZN11GradientNEW8TransferI18StreamedBinaryReadILb1EEEEvRT_
Eqh:__Z45t_1929001683_0_CustomAttributesCacheGeneratorP21CustomAttributesCache
btd:__ZN5physx6shdfnd5ArrayIPNS_3Scb5ShapeENS0_19ReflectionAllocatorIS4_EEE6resizeEjRKS4_
W1:__ZN11NamedObject8TransferI18StreamedBinaryReadILb1EEEEvRT_
Mlc:__ZN5physx3Cct15ObstacleContextD2Ev
_me:__ZN11UnityEngine15PlatformWrapper19GetPhysicalMemoryMBEv
FEh:__Z42RuntimeInvoker_t_887538054_0_t1867735036_0PK10MethodInfoPvPS2_
C6g:__Z44t1741356400_0_CustomAttributesCacheGeneratorP21CustomAttributesCache
Aff:_m192466552_0
Xvb:__Z21CalculateGlobalMatrix23TransformAccessReadOnly
Vff:_pinvoke_delegate_wrapper_t1496794073_0
iZg:_m176087572_0_gshared
avd:__ZN5physx2Cm10FanoutTaskC2EPKc
Rma:__ZN8Playable22ScheduleForDestructionEv
dIc:__ZNK5physx2Sc5Scene17prefetchForRemoveERKNS0_8BodyCoreE
Mbc:__ZNSt3__17__sort4IRNS_6__lessI11CulledLightS2_EEPS2_EEjT0_S6_S6_S6_T_
KBh:__Z42RuntimeInvoker_t_766435453_0_t1636693376_0PK10MethodInfoPvPS2_
v1h:__ZNKSt3__17codecvtIDic11__mbstate_tE11do_encodingEv
Wib:__ZNSt3__112__hash_tableINS_17__hash_value_typeINS_4pairIPK14Il2CppAssemblyP8TypeInfoEEP24Il2CppReflectionAssemblyEENS_22__unordered_map_hasherIS8_SB_17ReflectionMapHashIS8_ELb1EEENS_21__unordered_map_equalIS8_SB_19ReflectionMapEqualsIS8_ELb1EEEN6il2cpp2gc9AllocatorISB_EEE15__insert_uniqueERKSB_
lZg:_m_41278867_0_gshared
neh:__Z59t1524084820_0_CustomAttributesCacheGenerator_m_1329419665_0P21CustomAttributesCache
Hte:_m1076276209_0_gshared
m0f:_m_1946770883_0
fI:_il2cpp_delegate_begin_invoke
lIb:__ZNK9GfxDevice27GetActiveRenderSurfaceWidthEv
Fbb:__ZN14DataBufferGLESD2Ev
MYc:__ZN5physx16PxsIslandManagerC2EjRNS_19PxcScratchAllocatorEPNS_2Cm13EventProfilerE
O1e:_m1418993187_0
P3b:__ZN15QualitySettings14QualitySetting8TransferI18StreamedBinaryReadILb1EEEEvRT_
p$a:__ZN10MemoryFile4ReadEyPvPy
Fch:__Z44t1753651355_0_CustomAttributesCacheGeneratorP21CustomAttributesCache
uW:__ZN6il2cpp2vm4Type7GetTypeEPK10Il2CppType
wob:__ZNSt3__16__treeINS_12__value_typeIP12BaseRendererjEENS_19__map_value_compareIS3_S4_NS_4lessIS3_EELb1EEE13stl_allocatorIS4_L18MemLabelIdentifier1ELi16EEE7destroyEPNS_11__tree_nodeIS4_PvEE
xUc:__ZN5physx13ActorAABBTask11runInternalEv
asg:_m_14098177_0
OFg:_m_475887065_0
R$f:_m1726925146_0
c$e:_m305314386_0
NWg:_m2112732502_0_gshared
kRb:__Z22Transfer_Builtin_AlignIa18StreamedBinaryReadILb1EELb1EEvRK29SerializationCommandArgumentsR31RuntimeSerializationCommandInfo
Wxg:_m_1582492091_0
Y8b:__ZN6prcoreL17RemapGenericFloatI18TexFormatRGBAFloat17TexFormatRGBAHalfEEvPKNS_9InnerInfoE
aie:__ZN5physx7PxShapeD0Ev
Ije:__ZN16PxOverflowBufferIN5physx12PxOverlapHitEED0Ev
psc:__ZN5physx14NpRigidDynamic18setKinematicTargetERKNS_11PxTransformE
hih:__Z57t867363288_0_CustomAttributesCacheGenerator_m2082048710_0P21CustomAttributesCache
eWb:__Z19TransferField_ArrayI14SafeBinaryRead19Converter_PrimitiveIiEEvRK23StaticTransferFieldInfoR31RuntimeSerializationCommandInfoRT0_
D4b:__ZN10GISettings8TransferI14SafeBinaryReadEEvRT_
Nvb:__ZN14Texture2DArray8TransferI18StreamedBinaryReadILb1EEEEvRT_
FLe:_m547377152_0
Tgh:__Z59t_1011131402_0_CustomAttributesCacheGenerator_m1776876798_0P21CustomAttributesCache
wkb:__ZN12ImmediatePtrI10GameObjectE8TransferI18StreamedBinaryReadILb1EEEEvRT_
Exb:__ZN30RuntimeInitializeOnLoadManager8TransferI13ProxyTransferEEvRT_
qee:__Z3sqrIfET_RKS0_
aog:_m1083712391_0
wBd:__ZL22PxcGenerateVFContacts2RN5physx2Gu13ContactBufferERKNS_11PxTransformERKNS0_13PolygonalDataERKNS_11PxMeshScaleEjPKNS_6PxVec3EfRSD_f
vAa:__ZN13RenderTexture13ApplySettingsEv
nxb:__ZL30RegisterFilteredObjectCallbackPPviS_
Hwf:_m_2120796595_0
mf:_JS_Sound_SetListenerPosition
zja:__Z7yyparsev
xPd:__ZN5physx2Sc11Interaction12onDeactivateEj
xrf:_m_1485734233_0
O_:__ZN12EventManager11RemoveEventEP10EventEntryPFvPvS2_iES2_
Mrg:_m_1209686954_0
hR:__ZN6il2cpp2vm5Class22GetMethodFromNameFlagsEP8TypeInfoPKcii
e2c:__ZN5physx17PxcFsApplyImpulseERNS_9PxcFsDataEjNS_6shdfnd3aos5Vec3VES4_
Lzc:__ZN5physx7NpCloth21setLinearInertiaScaleENS_6PxVec3E
aJc:__ZN5physx2Sc5Scene22removeBroadPhaseVolumeEbRNS0_8ShapeSimE
Wec:__ZN15dense_hashtableINSt3__14pairIKiP6ObjectEEi21InstanceIDHashFunctorN14dense_hash_mapIiS4_S6_NS0_8equal_toIiEE13stl_allocatorIS5_L18MemLabelIdentifier64ELi16EEE9SelectKeyES9_SC_E12expand_arrayEjN21dense_hash_map_traits17integral_constantIbLb1EEE
dbi:_glGetActiveUniform__wrapper
LTa:__ZNK8Material16MarkDependenciesER27GarbageCollectorThreadState
GC:__ZN4FMOD6System12createReverbEPPNS_6ReverbE
ms:__ZN8Playable17IsMultithreadableEv
wWf:_m219671647_0
WHe:_m560616920_0
jde:__ZThn4_NK5physx5cloth9ClothImplINS0_7SwClothEE19getBoundingBoxScaleEv
$Tc:__ZN5physx14PxsAABBManager22processAggregateSingleERKNS_19AggregateSortedDataERKNS_9AggregateEjPNS_2Cm10BitMapBaseINS_6shdfnd9AllocatorEEE
sFf:_m_41659866_0
pWh:__ZNSt3__112basic_stringIcNS_11char_traitsIcEENS_9allocatorIcEEE6appendEPKc
xNh:__ZL11IsInstClassP13t_887538054_0P8TypeInfo144
L$d:__ZNK5physx31PxVehicleWheelDataGeneratedInfo23visitInstancePropertiesINS_18RepXPropertyFilterINS_2Sn17RepXVisitorWriterINS_18PxVehicleWheelDataEEEEEEEjT_j
MDd:__Z56setPxVehicleTireLoadFilterDataMMinFilteredNormalisedLoadPN5physx27PxVehicleTireLoadFilterDataEf
hSe:_m1295387214_0
hHa:__Z18GetITerrainManagerv
ujf:_m582741130_0
uAg:_m957110328_0
FNg:_m_1534492426_0
DNg:_m_2010365254_0
Ure:_m158553866_0_gshared
oxc:__ZN5physx15NpParticleFluidD0Ev
OEe:_m_1866262276_0_gshared
t6a:__Z50Register_UnityEngine_Object_FindSceneObjectsOfTypev
jZd:__ZN5physx7profile8ZoneImplINS_28PxProfileNameProviderForwardEE19handleClientRemovedEv
Pyh:__Z43RuntimeInvoker_t_155119206_0_t_1047952454_0PK10MethodInfoPvPS2_
VU:__ZN6il2cpp2vm8Profiler7GCEventE13Il2CppGCEvent
KGg:_m_240272139_0
mt:__ZN14AudioBehaviour13StaticCleanupEPv
DAh:__Z113RuntimeInvoker_t1628762099_0_t_887538054_0_t1628762099_0_t1628762099_0_t_887538054_0_t1628762099_0_t_1047982445_0PK10MethodInfoPvPS2_
loe:_m_260941648_0_gshared
p8:__ZN9Projector16StaticInitializeEPv
Gqb:__Z12FormatBufferPciPKcz
lg:_emscripten_glUniform1fv
ZAd:__ZL28removeBrokenEdgesFromIslandsPKjjS0_jS0_RKN5physx11NodeManagerERNS1_11EdgeManagerERNS1_13IslandManagerERNS1_2Cm10BitMapBaseINS1_6shdfnd9AllocatorEEEPSD_
rB:__ZN4FMOD7Channel7setModeEj
P7a:__ZN13EmscriptenWWW6CancelEv
usf:_m2140020155_0
to:FUNCTION_TABLE_iifff
mff:_m1624944828_0
lb:invoke_difi
Jhf:_m_1053978133_0
Jhc:__ZL50StaticRegisterSceneLoadedCallback_LightmapSettingsPv
On:FUNCTION_TABLE_iiffi
czc:__ZNK5physx7NpCloth24getSeparationConstraintsEPNS_35PxClothParticleSeparationConstraintE
CNb:__ZN21GLESGpuProgramApplier11ApplyVectorERKN20GpuProgramParameters14ValueParameterEPK8Vector4ft
H4:__Z17PrepareSceneNodesP11CullResults
FVh:__ZNSt3__111__stdoutbufIcEC2EP8_IO_FILEP11__mbstate_t
vAd:__ZN5physx6shdfnd5ArrayINS_17PxcSolverBodyDataENS0_16AlignedAllocatorILj128ENS0_19ReflectionAllocatorIS2_EEEEE6resizeEjRKS2_
Icd:__ZN5physx2Cm12RenderOutputlsEj
Rah:__Z58t_1775593653_0_CustomAttributesCacheGenerator_m396207607_0P21CustomAttributesCache
Tia:__ZN9ShaderLab11ShaderState25RemoveUnsupportedProgramsEPK6Shader
o_b:__ZN6HelperI18StreamedBinaryReadILb0EE23TransferArrayField_InfoLb1EE24SerializationFunctionForERKS2_R23StaticTransferFieldInfoPb
lHh:__Z57RuntimeInvoker_t_224166001_0_t1628762099_0_t_2064968959_0PK10MethodInfoPvPS2_
IFf:_m_1580562264_0
l6a:__Z44Register_UnityEngine_Object_DestroyImmediatev
CDh:__Z55RuntimeInvoker_t_887538054_0_t_887538054_0_t363396790_0PK10MethodInfoPvPS2_
wMf:_m1038007407_0
O6a:__Z47Register_UnityEngine_Component_BroadcastMessagev
Ps:__ZN18StreamedBinaryReadILb0EE21TransferSTLStyleArrayI13dynamic_arrayI4PPtrI6ObjectELj4EEEEvRT_17TransferMetaFlags
g2g:_m1228840236_0_gshared
sL:__ZN6il2cpp6icalls8mscorlib6System2IO6MonoIO4ReadE12Il2CppIntPtrP11Il2CppArrayiiPi
Ygg:_m_1330398384_0
Zzb:__ZNSt3__16__treeINS_12basic_stringIcNS_11char_traitsIcEENS_9allocatorIcEEEENS_4lessIS6_EE13stl_allocatorIS6_L18MemLabelIdentifier36ELi16EEE4findIS6_EENS_15__tree_iteratorIS6_PNS_11__tree_nodeIS6_PvEEiEERKT_
Lde:__ZN6detail14AlignedPointerIfEC2EPKf
D6d:__ZNK5physx18PxVehicleDriveTank8isKindOfEPKc
oJf:_m1422688800_0
J3f:_m_426342248_0
ABh:__Z42RuntimeInvoker_t1628762194_0_t1636693376_0PK10MethodInfoPvPS2_
ARc:__ZThn4_N5physx5cloth8SwFabricD0Ev
Ehc:__ZN13RuntimeStaticI12AdsIdHandlerE10InitializeEv
WCe:_m688611141_0_gshared
iGa:__ZN12InputManager23VirtualRedirectTransferER18StreamedBinaryReadILb1EE
Izc:__ZN5physx7NpCloth13setTargetPoseERKNS_11PxTransformE
J7f:_m910635190_0
Jzh:__Z86RuntimeInvoker_t_224166001_0_t_887538054_0_t_887538054_0_t_1047979500_0_t_1743875860_0PK10MethodInfoPvPS2_
W6b:__ZN15SerializeTraitsI10BlendShapeE8TransferI13ProxyTransferEEvRS0_RT_
ovg:_m_38202528_0
s6e:_m222181543_0
Chg:_m1218080105_0
dl:_glRenderbufferStorage
lEh:__Z56RuntimeInvoker_t_738719206_0_t_738719206_0_t_738719206_0PK10MethodInfoPvPS2_
ine:__ZN11UnityEngine15PlatformWrapper28GetTextureFormatSupportFlagsEv
LDf:_m_1432083811_0
qzh:__Z42RuntimeInvoker_t_393459662_0_t_887538054_0PK10MethodInfoPvPS2_
lzg:_m_389873785_0
JLg:_m1812131422_0
YRb:__ZNSt3__16vectorI17AnimationCurveTplIfE13stl_allocatorIS2_L18MemLabelIdentifier1ELi16EEE26__swap_out_circular_bufferERNS_14__split_bufferIS2_RS5_EE
YHc:__ZNK5physx2Sc5Scene29getMaxNbContactDataBlocksUsedEv
J3h:__ZNSt3__125__num_get_signed_integralIlEET_PKcS3_Rji
DTf:_m_211051333_0
hWf:_m1540619001_0
qUg:_m1427678122_0
dpe:_m1621603587_0_gshared
Pnd:__ZN12MeshCollider23VirtualRedirectTransferER13ProxyTransfer
Hh:_glDisable
edg:_m_55017943_0
Nre:_m_1795468090_0_gshared
AVh:__ZNSt3__17__sort5IRNS_6__lessIiiEEPiEEjT0_S5_S5_S5_S5_T_
fSg:_m_162042468_0
zZh:__ZNSt3__18time_getIcNS_19istreambuf_iteratorIcNS_11char_traitsIcEEEEED2Ev
Wlh:__Z45t_1966363278_0_CustomAttributesCacheGeneratorP21CustomAttributesCache
JUb:__ZN4PPtrI9Texture2DE8TransferI14SafeBinaryReadEEvRT_
Dlg:_m190008428_0
ZGe:_m_1881691846_0
FCe:_m_1189225672_0_gshared
s_b:__Z22Transfer_Builtin_AlignIt18StreamedBinaryReadILb0EELb1EEvRK29SerializationCommandArgumentsR31RuntimeSerializationCommandInfo
vGd:__ZN5physx10getInverseERNS_7PxMat33ERNS_6PxVec3ERKS0_RKS2_
rfi:b118
sfi:b119
_5c:__ZN5physx23PxVehicleWheels4SimDataC2Ev
_ei:b110
$ei:b111
afi:b112
e4h:_bitshift64Ashr
cfi:b114
efi:b115
mfi:b116
qfi:b117
VBd:__ZN5physx6shdfnd5ArrayIPhNS0_19ReflectionAllocatorIS2_EEE8recreateEj
fu:__ZN9AudioClip13StaticCleanupEPv
mOe:_m_674394976_0
jtb:__ZN4crnd12crn_unpacker22decode_alpha_endpointsEv
Mjf:_m_1530628378_0
Bba:__Z23CullDynamicObjectsUmbraPK4AABBPKN5Umbra15OcclusionBufferER9IndexList
uyh:__Z70RuntimeInvoker_t_887538054_0_t1628762099_0_t1628762099_0_t_887538054_0PK10MethodInfoPvPS2_
rAa:__ZN13RenderTexture9SetActiveERK20GfxRenderTargetSetupPPS_j
VNh:__ZL10SZArrayNewP8TypeInfoj157
Fde:__ZN8Scalar4fC2Ebbbb
Yq:__ZN18StreamedBinaryReadILb1EE21TransferSTLStyleArrayI13dynamic_arrayIiLj4EEEEvRT_17TransferMetaFlags
bQg:_m_1857240405_0
Xwd:__ZN5physx6shdfnd5ArrayINS_6PxVec4ENS0_16AlignedAllocatorILj16ENS0_9AllocatorEEEE8recreateEj
W3e:_m_564518954_0
Hjf:_m803331050_0
GHc:__ZN5physx2Sc5Scene10postSolverEPNS_10PxBaseTaskE
Wz:__ZN4FMOD6SoundI11getSubSoundEiPPNS_5SoundE
qig:_m_1049899918_0
SIb:__ZN9GfxDevice20SetComputeBufferDataE15ComputeBufferIDPKvj
O$f:_m_1933559871_0
gkh:__Z45t_1838694651_0_CustomAttributesCacheGeneratorP21CustomAttributesCache
dB:__ZN4FMOD7Channel11setPositionEjj
Gi:_glBindSampler
nWa:__Z22CreateMutexLockedQueuev
BPg:_m_1084177656_0
d5g:__Z91t1621492670_0_CustomAttributesCacheGenerator_t1621492670_0_m1053747690_0_Arg1_ParameterInfoP21CustomAttributesCache
Ji:_glGetVertexAttribiv
nEb:__ZNSt3__16__treeINS_12__value_typeINS_12basic_stringIcNS_11char_traitsIcEENS_9allocatorIcEEEE9PrefValueEENS_19__map_value_compareIS7_S9_NS_4lessIS7_EELb1EEENS5_IS9_EEE7destroyEPNS_11__tree_nodeIS9_PvEE
jKh:__ZN16VirtFuncInvoker1IP13t_224215755_0P13t_722972841_0E6InvokeEjPvS3_
lie:__ZN5physx6shdfnd5ArrayINS_9PxBounds3ENS0_15InlineAllocatorILj192ENS0_19ReflectionAllocatorIS2_EEEEE8recreateEj
A7f:_m_632586771_0
B7f:_m440699946_0
Vge:__ZN5physx6shdfnd5ArrayIPvNS0_19ReflectionAllocatorINS_2Sc24ElementInteractionMarkerEEEE4copyINS0_15InlineAllocatorILj256ES6_EEEEvRKNS1_IS2_T_EE
OCe:_m_2141188271_0_gshared
V4b:__ZN26SharedLightmapSettingsDataD2Ev
PLe:_m_494241822_0
GOh:__ZL7InitobjP8TypeInfoPv410
Bvg:_m1085934718_0
sja:__ZN9ShaderLab9SubShaderD2Ev
xle:__ZN19ControllerHitReport13onObstacleHitERKN5physx23PxControllerObstacleHitE
DRe:_m_1882792759_0
ZE:_GC_promote_black_lists
p1e:_m1268164793_0
N2g:__Z45t_2130417720_0_CustomAttributesCacheGeneratorP21CustomAttributesCache
oOd:__ZN5physx22NpParticleBaseTemplateINS_16PxParticleSystemENS_16NpParticleSystemEE16releaseParticlesEjRKNS_16PxStrideIteratorIKjEE
dp:FUNCTION_TABLE_vd
Lbc:__ZNSt3__16__sortIRNS_6__lessI11CulledLightS2_EEPS2_EEvT0_S6_T_
fp:FUNCTION_TABLE_vi
u$b:__ZN6HelperI19StreamedBinaryWriteILb0EE18TransferField_InfoLb0EE24SerializationFunctionForERKS2_R23StaticTransferFieldInfoPb
iGd:__ZL13midPhaseQueryRKN5physx22PxTriangleMeshGeometryERKNS_11PxTransformERNS_2Gu3BoxERNS6_9ContainerE
PXg:_m41698097_0_gshared
A3d:__ZN5physx18RepXPropertyFilterINS_2Sn17RepXVisitorReaderINS_21PxVehicleDriveDynDataEEEEclILj647ES3_bbEEvRKNS_14PxPropertyInfoIXT_ET0_T1_T2_EEj
fBd:__ZN5physxL25solveContact4_StaticBlockEPKNS_23PxcSolverConstraintDescERNS_16PxcSolverContextE
W4f:_m1359739084_0
s$f:_m195691908_0
b_f:_m_1635012346_0
Pkb:__ZNSt3__16vectorI16MessageForwarder13stl_allocatorIS1_L18MemLabelIdentifier6ELi8EEE6assignIPS1_EENS_9enable_ifIXaasr21__is_forward_iteratorIT_EE5valuesr16is_constructibleIS1_NS_15iterator_traitsIS9_E9referenceEEE5valueEvE4typeES9_S9_
qhf:_m1455568887_0
CWb:__Z16Transfer_BuiltinIy13ProxyTransferLb0EEvRK29SerializationCommandArgumentsR31RuntimeSerializationCommandInfo
Ba:invoke_iiifiii
KCb:__ZN13RuntimeStaticI17ShaderPassContextE10InitializeEv
s$c:__ZN5physx25solveContact_BStaticBlockEPKNS_23PxcSolverConstraintDescEjRNS_16PxcSolverContextE
vGb:__ZN5LightD2Ev
YGa:__Z14GetTimeManagerv
Kvg:_m_753153349_0
gXa:__ZN15FileSystemEntry4LockE12FileLockModeP12FileAccessor
l6g:__Z58t_224215755_0_CustomAttributesCacheGenerator_m_740477137_0P21CustomAttributesCache
BJg:_m1897507494_0
j8a:__Z13FocusCallbackiPK20EmscriptenFocusEventPv
Gde:__ZN8Scalar4fC2Eiiii
qvd:__ZN5physx6shdfnd5ArrayIPNS_2Sc14ConstraintCoreENS0_19ReflectionAllocatorIS4_EEE6resizeEjRKS4_
pQ:__ZN6il2cpp5utils9PathUtils13DirectoryNameERKNSt3__112basic_stringIcNS2_11char_traitsIcEENS2_9allocatorIcEEEE
tNd:__ZN5physx22NpParticleBaseTemplateINS_15PxParticleFluidENS_15NpParticleFluidEE18setProjectionPlaneERKNS_6PxVec3Ef
oOb:__ZN15dense_hashtableINSt3__14pairIKNS0_12basic_stringIcNS0_11char_traitsIcEE13stl_allocatorIcL18MemLabelIdentifier53ELi16EEEEP20ArchiveStorageReaderEES8_11djb2_hash_tIS8_EN14dense_hash_mapIS8_SB_SE_NS0_8equal_toIS8_EES5_ISC_LS6_53ELi16EEE9SelectKeyESH_SI_E12maybe_shrinkEv
feh:__Z58t526833679_0_CustomAttributesCacheGenerator_m_1711742488_0P21CustomAttributesCache
TBd:__ZL18getFrictionPatchesRN5physx26PxcFrictionPatchStreamPairERNS_20PxcCorrelationBufferEPKhjRKNS_11PxTransformES8_f
Kif:_m1325344374_0
Gea:__Z20DestroyObjectDelayedP6Objectf
$ka:__ZN20DynamicHeapAllocatorI17LowLevelAllocatorED0Ev
D_g:_m1012704117_0_gshared
oBf:_m_862153639_0
aLh:__ZN23InterfaceActionInvoker2Ii13t_215297020_0E6InvokeEjP8TypeInfoPviS0_
xmd:__ZN8Collider16RecreateColliderEPK9Rigidbody
Ey:__ZN4FMOD7SystemI19setSoftwareChannelsEi
Tze:_m_1578580126_0_gshared
Kw:__ZN11AudioFilter6GetDSPEv
fEc:__ZN5physx2Sc14ConstraintCore9setBodiesEPNS0_9RigidCoreES3_
lLa:__ZN15ResourceManager23VirtualRedirectTransferER13ProxyTransfer
MJg:_m_1029073498_0
q3d:__ZN5physx18RepXPropertyFilterINS_2Sn17RepXVisitorReaderINS_21PxVehicleDriveDynDataEEEEclILj637ES3_KbbEEvRKNS_14PxPropertyInfoIXT_ET0_T1_T2_EEj
Woa:__ZN4Mesh14GetMeshBuffersER11MeshBuffersjPS_b
pU:__ZN6il2cpp2vm6Method7GetNameEPK10MethodInfo
FCd:__ZN5physx3Pvd17PvdPropertyFilterINS_2Sn17RepXVisitorWriterINS_16PxVehicleNoDriveEEEE27handleExtendedIndexPropertyILj686ES4_fKjNS_18PxUnknownClassInfoEEEvjRKNS_29PxExtendedIndexedPropertyInfoIXT_ET0_T2_T1_EERKT3_
Sw:__ZN24AudioScriptBufferManagerC2Ev
Oz:__ZN4FMOD4DSPI12setParameterEif
qy:__Z21InitializeAudioModulev
$ig:_m_1851523043_0
p$e:_m_1917887716_0
zEg:_m_54027742_0
fra:__Z21GetAsyncUploadManagerv
Yvh:__Z70RuntimeInvoker_t_224166001_0_t1628762099_0_t1628762099_0_t1628762099_0PK10MethodInfoPvPS2_
Ak:_emscripten_glDetachShader
Qv:__ZN12AudioManager16StaticInitializeEPv
UJf:_m_1136408586_0
PCc:__ZNK5physx2Sc15ArticulationSim16createDriveCacheEfj
uRc:__ZN5physx5cloth11SwCollisionI8Scalar4fE15collideConvexesEPKS2_PS2_RNS3_18ImpulseAccumulatorE
soa:__ZN17GenericDynamicVBO20ReleaseChunkInternalERK21DynamicVBOChunkHandlejj
fuf:_m2106126735_0
H4b:__ZN14SafeBinaryRead21TransferSTLStyleArrayI13dynamic_arrayI7Hash128Lj8EEEEvRT_17TransferMetaFlags
xJh:__Z55RuntimeInvoker_t_19515315_0_t_456977453_0_t_456977453_0PK10MethodInfoPvPS2_
IUh:_fmodl
dxh:__Z28RuntimeInvoker_t_224751869_0PK10MethodInfoPvPS2_
dtd:__ZN5physx6shdfnd5ArrayIPNS_3Scb5ActorENS0_19ReflectionAllocatorIS4_EEE6resizeEjRKS4_
nha:__ZN12CachedWriter11Align4WriteEv
f2f:_m1785398826_0
Fga:__ZN19RuntimeSceneManager11CreateSceneEv
FUc:__ZN5physx15PxsArticulationC2Ev
tXb:__ZL26Transfer_SimpleNativeClassI13ProxyTransfer8GUIStyleLb1EEvRK29SerializationCommandArgumentsR31RuntimeSerializationCommandInfo
myf:_m75952491_0
Jkg:_m1727189747_0
XN:__ZN6il2cpp2os5Mutex6UnlockEv
spe:_m2078231777_0_gshared
Uuc:__ZN5physx7NpScene14removeMaterialERNS_10NpMaterialE
YYc:__ZN5physx16PxsIslandManager24setEdgeArticulationJointERKNS_20PxsIslandManagerHookIjLj4294967295EEE
cVd:__ZN5physx2Gu15HeightFieldUtil19OverlapTraceSegmentI25CapsuleTraceSegmentReportE10visitCellsERKNS4_11OverlapLineE
ijh:__Z58t867363288_0_CustomAttributesCacheGenerator_m_1688243544_0P21CustomAttributesCache
vVc:__ZN5physx16PxsBroadPhaseMBP7destroyEv
QFc:__ZN5physx2Sc10NPhaseCore25addToDirtyInteractionListEPNS0_15CoreInteractionE
P$f:_m11867514_0
aai:_glGenTransformFeedbacks__wrapper
nka:__Z19free_alloc_internalPv18MemLabelIdentifier
uZa:__ZNK23ArchiveStorageConverter16GetDirectoryInfoEv
VZf:_t1074450346_0_marshal_back
Zga:__ZN10UnityScene23CreateLevelGameManagersEv
fge:__ZN5physx2Cm12DelegateTaskINS_2Sc5SceneEXadL_ZNS3_19islandGenSecondPassEPNS_10PxBaseTaskEEEE11runInternalEv
w8g:__Z45t_2130369341_0_CustomAttributesCacheGeneratorP21CustomAttributesCache
Cwb:__ZN15SerializeTraitsI11TimeManagerE8TransferI13ProxyTransferEEvRS0_RT_
o0g:_m_1115639836_0_gshared
vpe:_m_1907602440_0_gshared
OJa:__ZN10InputEventD2Ev
gvf:_m_1743532814_0
JSh:_isgraph
x3a:__Z6AppendRKNSt3__112basic_stringIcNS_11char_traitsIcEENS_9allocatorIcEEEEPKc
kVb:__Z16Transfer_BuiltinI10ColorRGBAf14SafeBinaryReadLb1EEvRK29SerializationCommandArgumentsR31RuntimeSerializationCommandInfo
h9e:_m845745261_0
V$b:__ZL26Transfer_SimpleNativeClassI19StreamedBinaryWriteILb0EE11GradientNEWLb0EEvRK29SerializationCommandArgumentsR31RuntimeSerializationCommandInfo
rnh:__Z45t_1571582451_0_CustomAttributesCacheGeneratorP21CustomAttributesCache
Ylc:__ZN5physx3Cct15ObstacleContext13onOriginShiftERKNS_6PxVec3E
ISh:_isalpha
Tbh:__Z45t_1085343297_0_CustomAttributesCacheGeneratorP21CustomAttributesCache
sDg:_m34507825_0
kAd:__ZN5physx6shdfnd8PoolBaseINS_2Gu31SpherePersistentContactManifoldENS0_19ReflectionAllocatorIS3_EEE12allocateSlabEv
cud:__ZN5physx6shdfnd5ArrayIPNS_2Sc7BodySimENS0_19ReflectionAllocatorIS4_EEE8recreateEj
j$d:__ZN5physx3Pvd17PvdPropertyFilterINS_2Sn17RepXVisitorWriterINS_27PxVehicleTireLoadFilterDataEEEE14handleAccessorILj563ENS_22PxRepXPropertyAccessorILj563ES4_ffEEEEvRKT0_
QLb:__ZN17FileSystemHandler5TouchER13FileEntryData
fOb:__ZN15dense_hashtableINSt3__14pairIKNS0_12basic_stringIcNS0_11char_traitsIcEENS0_9allocatorIcEEEES7_EES7_11djb2_hash_tIS7_EN14dense_hash_mapIS7_S7_SB_NS0_8equal_toIS7_EE13stl_allocatorIS9_L18MemLabelIdentifier53ELi16EEE9SelectKeyESE_SH_E12expand_arrayEjN21dense_hash_map_traits17integral_constantIbLb0EEE
OJc:__ZNK5physx2Sc8ShapeSim18computeWorldBoundsERKNS0_9ShapeCoreERKNS0_8RigidSimE
r2d:__ZN5physx3Pvd17PvdPropertyFilterINS_2Sn17RepXVisitorWriterINS_21PxVehicleDriveDynDataEEEE14handleAccessorILj643ENS_22PxRepXPropertyAccessorILj643ES4_KjjEEEEvjRKT0_
LV:__ZN6il2cpp2vm6String6NewLenEPKcj
Ybg:_m1012075067_0
$kg:_m_1780982939_0
RSa:__ZN17PersistentManager9AddStreamEv
hcg:_m5769771_0
gJb:__ZN9GfxDevice28UpdateComputeConstantBuffersEjP12ObjectHandleI18ConstantBuffer_TagPvEjjPKhPKjS8_PKi
e9c:__Z39setPxVehicleDriveDynData_GearSwitchTimePN5physx21PxVehicleDriveDynDataEf
MUe:_m54784942_0
eKc:__ZNK5physx2Sc8ShapeSim15getPxsRigidCoreEv
efe:__ZN5physx2Sc20ContactStreamManager28fillInContactReportExtraDataEPNS_17PxContactPairPoseEjRKNS0_8RigidSimEb
Xrb:__Z18SkinGenericMathLibILi2ELb0ELb0EEvR12SkinMeshInfo
rzc:__ZN5physx7NpCloth23removeCollisionTriangleEj
ssf:_m242090629_0
Cwg:_m_678466181_0
PWd:__ZNK5physx2Gu29EPASupportMapPairRelativeImplINS0_9TriangleVENS0_11ConvexHullVEE9doSupportERKNS_6shdfnd3aos5Vec3VERS7_SA_SA_
rlb:__ZN6Camera7PRODUCEE18MemLabelIdentifier18ObjectCreationMode
UK:__ZN6il2cpp6icalls8mscorlib6System11Diagnostics10StackTrace9get_traceEP15Il2CppExceptionib
ydi:_glDeleteSync__wrapper
Zsh:__Z84RuntimeInvoker_t_19515315_0_t_887538054_0_t1628762099_0_t_887538054_0_t_1425458868_0PK10MethodInfoPvPS2_
$Ea:__ZNK9Transform21GetLocalToWorldMatrixEv
nXb:__Z16Transfer_BuiltinIi13ProxyTransferLb1EEvRK29SerializationCommandArgumentsR31RuntimeSerializationCommandInfo
qEa:__Z20GetTextureFormatInfo13TextureFormat
J6:__Z40InitializeLightAnimationBindingInterfacev
Ghh:__Z45t_1072087181_0_CustomAttributesCacheGeneratorP21CustomAttributesCache
Vyd:__ZN5physx6shdfnd5ArrayItNS0_9AllocatorEE15growAndPushBackERKt
mFa:__ZN9Transform13StaticCleanupEPv
ZRh:__ZN21InterfaceFuncInvoker1IhP13t_887538054_0E6InvokeEjP8TypeInfoPvS1_
O8c:__Z35getPxVehicleWheels_ConcreteTypeNamePKN5physx15PxVehicleWheelsE
qHh:__Z56RuntimeInvoker_t_224166001_0_t1628762099_0_t1363074209_0PK10MethodInfoPvPS2_
pRa:__ZN18StreamedBinaryReadILb1EE5AlignEv
mQ:__ZN6il2cpp5utils10MemoryPool6MallocEj
Sx:__ZN11SoundHandle8InstanceD2Ev
e6:__ZN31CanvasBatchIntermediateRenderer13StaticDestroyEPv
eSc:__ZNK5physx5cloth9SwFactory10copyToHostEPKvS3_Pv
ICe:_m877130349_0_gshared
gSf:_m1191987689_0
HGc:__ZNK5physx2Sc5Scene20getBroadPhaseRegionsEPNS_22PxBroadPhaseRegionInfoEjj
Iqg:_m_1075579827_0
pUb:__Z16Transfer_BuiltinI10ColorRGBAf14SafeBinaryReadLb0EEvRK29SerializationCommandArgumentsR31RuntimeSerializationCommandInfo
t8e:_m212988972_0
Cai:_emscripten_glBindProgramARB__wrapper
k4a:__Z41Register_UnityEngine_CullingGroup_Disposev
yqf:_m1699036490_0
Xwa:__ZN7Cubemap23VirtualRedirectTransferER19StreamedBinaryWriteILb0EE
E$a:__ZN25MultiBlocksMemoryFileData5WriteEyyPKv
$eg:_m_1686612631_0
RXd:__ZN5physx2Gu26EPASupportMapPairLocalImplINS0_8CapsuleVENS0_11ConvexHullVEED0Ev
B3d:__ZN5physx18RepXPropertyFilterINS_2Sn17RepXVisitorReaderINS_21PxVehicleDriveDynDataEEEEclILj648ES3_bbEEvRKNS_14PxPropertyInfoIXT_ET0_T1_T2_EEj
CMb:__ZL17ProgramUniform2fvPK7ApiGLESjiihPKv
$ci:b83
wlh:__Z66t1507005735_0_CustomAttributesCacheGenerator_U3CU3Ef__amU24cache1CP21CustomAttributesCache
J0d:__ZN5physx18RepXPropertyFilterINS_2Sn17RepXVisitorReaderINS_27PxVehicleTireLoadFilterDataEEEEclILj562ES3_ffEEvRKNS_14PxPropertyInfoIXT_ET0_T1_T2_EEj
fHc:__ZN5physx2Sc5Scene16removeConstraintERNS0_14ConstraintCoreE
Oub:__ZZN8Renderer15InitializeClassEvEN34FunctorImpl_Renderer_kLayerChanged4CallEPviR11MessageData
h6f:_m_257525835_0
Qef:_m1851329218_0
DQ:__ZN6il2cpp5utils11StringUtils8EndsWithERKNSt3__112basic_stringIcNS2_11char_traitsIcEENS2_9allocatorIcEEEESA_
Kua:__Z30scripting_method_has_attribute21ScriptingMethodIl2CppP14ScriptingClass
sMb:__ZN13Lz4CompressorD0Ev
Ybb:__Z20GetBufferManagerGLESv
Xci:b82
Vnh:__Z55t59089492_0_CustomAttributesCacheGenerator_m838183325_0P21CustomAttributesCache
r_b:__ZN18StreamedBinaryReadILb0EE21TransferSTLStyleArrayI31ArrayOfManagedObjectsTransfererEEvRT_17TransferMetaFlags
TLc:__ZN5physx2Sc18ParticleSystemCore18addDeltaVelocitiesERKNS_2Cm10BitMapBaseINS_6shdfnd9AllocatorEEEPKNS_6PxVec3Ef
kLe:_m710679726_0
RCd:__Z26getPxVehicleEngineDataMMOIPKN5physx19PxVehicleEngineDataE
gCe:_m774844594_0_gshared
Hud:__ZN5physx6shdfnd8PoolBaseINS_2Sc16ActorElementPairENS0_19ReflectionAllocatorIS3_EEE12allocateSlabEv
BJb:__ZNK7Cubemap20GetTextureLayerCountEv
Lac:__ZN14qsort_internal8_QSortMTIP16RenderObjectDatai25RenderPrePassObjectSorterE12SortMTRegionES2_S2_iS3_
Src:__ZNK5physx9NpPhysics17getNbClothFabricsEv
eob:__ZN13dynamic_arrayI17PrePassRenderDataLj4EE7reserveEj
DXh:__ZNSt3__113basic_istreamIwNS_11char_traitsIwEEED0Ev
Olb:__ZN16GraphicsSettings7PRODUCEE18MemLabelIdentifier18ObjectCreationMode
W0e:_m_275453132_0
ZVa:__ZNK19ShaderPropertySheet11HasPropertyERKN9ShaderLab16FastPropertyNameE
W1g:_m833851745_0_gshared
Ene:__ZN23UnityPurchasingSettings8TransferI19StreamedBinaryWriteILb0EEEEvRT_
fqa:__ZN16MeshVertexFormat20GetVertexDeclarationEjPKS_
Vf:___setErrNo
hYc:__ZN5physx28collideWithCapsuleTestSphereERNS_19PxsParticleCollDataERKNS_6PxVec3ES4_S4_RKfS6_S6_S6_S6_S6_S6_
ZMc:__ZN5physx2Sc16InteractionScene19registerInteractionEPNS0_11InteractionEb
Y$c:__ZN5physx19solveContactCoulombERKNS_23PxcSolverConstraintDescERNS_16PxcSolverContextE
HG:_GC_set_no_dls
jAg:_m565750122_0
Xue:_m2075628329_0_gshared
cKb:__ZNK13ScreenManager16GetScreenTimeoutEv
Fwg:_m1891938598_0
yBc:__ZNK5physx2Sc9ActorPair23createContactReportDataEv
bhh:__Z58t_167278418_0_CustomAttributesCacheGenerator_m2061869791_0P21CustomAttributesCache
ffg:_m_1681023998_0
ut:__ZN9AudioClip7WWWOpenEPKciPjPPvS4_
mpc:__ZN5physx18NpArticulationLink18setAngularVelocityERKNS_6PxVec3Eb
Tcg:_m1356841761_0
Oyg:_m_1109983875_0
lKf:_m_1659876481_0
ISg:_m21054105_0
cCe:_m_692053462_0_gshared
Vne:__GLOBAL__sub_I_WebRequestManager_cpp
Wrh:__Z42RuntimeInvoker_t1628762099_0_t1628762099_0PK10MethodInfoPvPS2_
Q5a:__Z53Register_UnityEngine_Input_INTERNAL_get_mousePositionv
xDf:_m1653658500_0
Phc:__ZNSt3__16__treeINS_12__value_typeINS_12basic_stringIcNS_11char_traitsIcEENS_9allocatorIcEEEEPvEENS_19__map_value_compareIS7_S9_NS_4lessIS7_EELb1EEENS5_IS9_EEE7destroyEPNS_11__tree_nodeIS9_S8_EE
zud:__ZN5physx6shdfnd8PoolBaseINS_2Sc19ShapeInstancePairLLENS0_19ReflectionAllocatorIS3_EEE15disposeElementsEv
Igd:__ZN5physx2Gu12PolygonalBoxC2ERKNS_6PxVec3E
fFa:__ZN9Transform23VirtualRedirectTransferER13ProxyTransfer
bhd:__ZN5physx2Gu14sweepTriSphereERKNS_10PxTriangleERKNS_6PxVec3ES6_fS6_Rf
Zpa:__ZNK17MeshRenderingData18ExtractMeshBuffersEjR11MeshBuffersb
jJb:__ZN9GfxDevice22DispatchComputeProgramE12ObjectHandleI18ComputeProgram_TagPvEjjj
w1g:_m1636451147_0_gshared
Gxg:_m_1734390258_0
cd:_SDL_GetTicks
i0f:_m_1287174567_0
taf:_m1954466275_0
Msf:_m_1505436971_0
Haa:__Z21CreateShadowCullerJobP30CreateUmbraShadowCullerJobData
Czc:__ZNK5physx7NpCloth21getNbVirtualParticlesEv
f3c:__ZN5physx17PxcNpMemBlockPool23releaseConstraintBlocksERNS_6shdfnd5ArrayIPNS_13PxcNpMemBlockENS1_19ReflectionAllocatorIS4_EEEE
fjc:__ZN15DistanceJoint2D13StaticCleanupEPv
TMb:__ZL18ProgramUniform2uivPK7ApiGLESjiihPKv
tIf:_m_2061419232_0
fci:_glUniform4iv__wrapper
KOf:_m149552657_0
b$e:_m_1025863565_0
Jwh:__Z70RuntimeInvoker_t1628762099_0_t_887538054_0_t1628762099_0_t1636693376_0PK10MethodInfoPvPS2_
FDd:__Z35getPxVehicleClutchDataMAccuracyModePKN5physx19PxVehicleClutchDataE
B4c:__ZN5physx2Sq17SceneQueryManager13markForUpdateEPNS0_10ActorShapeE
lOg:_m_9584576_0
OF:_GC_expand_hp_inner
Cqb:__ZN9ShaderLab17ParserShaderStateC2Ev
M2b:__ZN15dense_hashtableINSt3__14pairIKiiEEi21InstanceIDHashFunctorN14dense_hash_mapIiiS4_NS0_8equal_toIiEE13stl_allocatorIS3_L18MemLabelIdentifier1ELi16EEE9SelectKeyES7_SA_E5clearEv
fYe:_m_984216325_0
WE:_GC_err_printf
eAg:_m_159687698_0
Aje:__ZN5physx6shdfnd5ArrayIPvNS0_19ReflectionAllocatorINS_16NpConnectorArrayEEEE15growAndPushBackERKS2_
sxb:__ZNSt3__112basic_stringIcNS_11char_traitsIcEE13stl_allocatorIcL18MemLabelIdentifier1ELi16EEE6appendEPKc
EZc:__ZN5physx15PxsParticleData13clearSimStateEv
q7h:_emscripten_glDepthRange__wrapper
YSa:__ZN14SerializedFile7ReleaseEv
F_a:__ZN16MemoryFileSystem4OpenER13FileEntryData14FilePermission16FileAutoBehavior
z4e:_m669809376_0
$6f:_m_993540082_0
k5:__ZN5Flare16StaticInitializeEPv
u5g:__Z58t1621492670_0_CustomAttributesCacheGenerator_m1794349687_0P21CustomAttributesCache
gv:__ZN12AudioManager12CleanupClassEv
i6h:dynCall_vifiiiiiiiiiiiiiiiiiiiiiii
k6:__ZN5Light15InitializeClassEv
i1c:__ZN5physx24PxcPCMContactCapsuleMeshERKNS_2Gu13GeometryUnionES3_RKNS_11PxTransformES6_RKfRNS_10PxcNpCacheERNS0_13ContactBufferE
$t:__ZN9AudioClip18GetQueuedAudioDataEPPvj
wSb:__Z14resize_trimmedINSt3__16vectorI5RectTIfE13stl_allocatorIS3_L18MemLabelIdentifier1ELi16EEEEEvRT_j
sff:_m534836749_0
GP:__ZN6il2cpp2os5posix15PosixWaitObject13InterruptWaitEv
hNf:_m218981812_0
mzc:__ZNK5physx7NpCloth16getCollisionDataEPNS_22PxClothCollisionSphereEPjPNS_21PxClothCollisionPlaneES3_PNS_24PxClothCollisionTriangleE
Maa:__Z18SetShadowsKeywordsR17ShaderPassContext9LightType10ShadowType16ShadowProjectionbb
jna:__ZN17CollisionMeshDataC2Ev
glg:_m1641296449_0
nTe:_m_42079822_0
s4c:__ZN5physx2Sq11PruningPool11preallocateEj
Dya:__ZN16LightmapSettings23VirtualRedirectTransferER19StreamedBinaryWriteILb0EE
C_c:__ZN5physx20PxsParticleSystemSim19passCollisionInputVENS_31PxvParticleCollisionUpdateInputE
HT:__ZN6il2cpp2vm13MetadataCache14AddPointerTypeEP8TypeInfoS3_
Yd:_sqrtf
Zbi:_glTexParameteriv__wrapper
JBb:__ZN18IDCollectorFunctor18GenerateInstanceIDEi17TransferMetaFlags
Pue:_m_893725325_0_gshared
gxe:_m_1938996214_0_gshared
Z$f:_m_194564552_0
lFf:_m_56248112_0
yZf:_m809643788_0
Oaf:_m200933176_0
Gfh:__Z57t_738265248_0_CustomAttributesCacheGenerator_m555337339_0P21CustomAttributesCache
V$g:_m1773223052_0_gshared
kMc:__ZN5physx2Sc17ParticleSystemSim15onRbShapeChangeERKNS0_19ParticlePacketShapeERKNS0_8ShapeSimE
h0e:_m_459258790_0
FT:__ZN6il2cpp2vm13MetadataCache25GetMethodGenericContainerEPK10MethodInfo
qZc:__ZN5physx27updateIslandsSecondPassMainEjRNS_2Cm10BitMapBaseINS_6shdfnd9AllocatorEEEPKjjRNS_11NodeManagerERNS_11EdgeManagerERNS_13IslandManagerERNS_23ArticulationRootManagerERNS_33ProcessSleepingIslandsComputeDataERNS_30IslandManagerUpdateWorkBuffersEPNS0_13EventProfilerE
qEh:__Z56RuntimeInvoker_t_19515315_0_t_1047982445_0_t1628762099_0PK10MethodInfoPvPS2_
Duh:__Z42RuntimeInvoker_t1458036598_0_t_766435453_0PK10MethodInfoPvPS2_
ZDd:__Z33getPxVehicleWheelDataMDampingRatePKN5physx18PxVehicleWheelDataE
Iac:__ZNSt3__111__sift_downIR19ROSorterReplacementP17RODataReplacementEEvT0_S5_T_NS_15iterator_traitsIS5_E15difference_typeES5_
jYg:_m_1223848347_0_gshared
Ezf:_m375587694_0
Cag:_m1039216292_0
DSa:__ZN17PersistentManager4LockEv
YKb:__ZN15ResourceManagerD2Ev
Qdh:__Z43t326048453_0_CustomAttributesCacheGeneratorP21CustomAttributesCache
e5a:__Z41Register_UnityEngine_Camera_GetAllCamerasv
VTc:__ZN5physx14PxsAABBManager25removeAggregateSinglePairEjPNS_9AggregateEPNS_2Cm10BitMapBaseINS_6shdfnd9AllocatorEEE
f5b:__ZN4crnd12crn_unpacker10unpack_dxnEPPhjjjjjj
Wf:___ctype_tolower_loc
$3a:__Z55ScriptableObject_CUSTOM_Internal_CreateScriptableObjectP15ScriptingObject
xha:__ZN15CacheWriterBase18GetAddressOfMemoryEv
WYf:_m567607052_0
Qqc:__ZN5physx10NpMaterial17resolveReferencesERNS_24PxDeserializationContextE
Ynh:__Z56t59089492_0_CustomAttributesCacheGenerator_m1711502735_0P21CustomAttributesCache
w2e:_m_1855396410_0
lCb:__ZNSt3__13mapI8UnityStrS1_NS_4lessIS1_EE13stl_allocatorINS_4pairIKS1_S1_EEL18MemLabelIdentifier1ELi16EEE25__construct_node_with_keyERS6_
yCa:__ZN9Texture2D13AwakeFromLoadE17AwakeFromLoadMode
z7g:__Z43t588948896_0_CustomAttributesCacheGeneratorP21CustomAttributesCache
MOf:_m_333777511_0
Ve:_exp
A8b:__ZN6prcoreL17RemapGenericFloatI15TexFormatRFloat18TexFormatARGBFloatEEvPKNS_9InnerInfoE
gMb:__ZNK21AssetBundleFileSystem4SizeERK13FileEntryData
XGf:_m_1683528947_0
Tmc:__ZN5physx7NpActor15removeConnectorERNS_7PxActorENS_15NpConnectorType4EnumEPNS_6PxBaseEPKc
mUc:__ZN5physx19ActorAABBUpdateTask11runInternalEv
vKg:_m_1372086366_0
HTh:__ZNSt13runtime_errorD2Ev
Wca:__ZN20ReflectionProbeCacheC2ER13BatchRendererR15RenderLoopStats
eCa:__ZN7Texture23VirtualRedirectTransferER18StreamedBinaryReadILb0EE
DMf:_m_2021232924_0
g4b:__ZN18StreamedBinaryReadILb1EE21TransferSTLStyleArrayI13dynamic_arrayI31EnlightenSystemAtlasInformationLj8EEEEvRT_17TransferMetaFlags
UMe:_m_28098162_0
lXc:__ZN5physx10PxsContext28runModifiableContactManagersEv
OPg:_m_1379971956_0
JUc:__ZN5physx21PxsBodyTransformVault7addBodyERKNS_11PxsBodyCoreE
Hfa:__Z18GetLODGroupManagerv
Cxd:__ZN12_GLOBAL__N_114generateSimd4fI8Scalar4fN5physx5cloth12LerpIteratorIS1_PKS1_EEEEvPT_RKT0_j
Hwd:__ZN5physx6shdfnd5ArrayINS_35PxClothParticleSeparationConstraintENS0_19ReflectionAllocatorIS2_EEE6resizeEjRKS2_
wLd:__ZNK5physx15NpActorTemplateINS_14PxRigidDynamicEE8getSceneEv
UWf:_m_1436173268_0
ele:__ZN5physx19PxCapsuleControllerD0Ev
RKb:__ZN27GenericSlowGarbageCollectorD2Ev
ZOc:__ZN5physx2Sc9ClothCore18unlockParticleDataEv
Mnc:__ZNK5physx14NpArticulation17getSleepThresholdEv
Kze:_m_877008562_0_gshared
Ere:_m1099170891_0_gshared
qLf:_m1700022920_0
phg:_m_1121319080_0
Chc:__ZN13RuntimeStaticI12AdsIdHandlerE13StaticDestroyEPv
o$a:__ZN10MemoryFile4ReadEyyPvPy
XIg:_m_54546415_0
f9e:_m_241371304_0
e8h:_glBlitFramebuffer__wrapper
yVb:__Z19TransferField_ArrayI14SafeBinaryRead19Converter_PrimitiveI11ColorRGBA32EEvRK23StaticTransferFieldInfoR31RuntimeSerializationCommandInfoRT0_
iMd:__ZNK5physx19NpRigidBodyTemplateINS_14PxRigidDynamicEE27getMaxDepenetrationVelocityEv
SOb:__ZNSt3__16vectorI4PPtrI6ShaderENS_9allocatorIS3_EEE6assignINS_11__wrap_iterIPS3_EEEENS_9enable_ifIXaasr21__is_forward_iteratorIT_EE5valuesr16is_constructibleIS3_NS_15iterator_traitsISC_E9referenceEEE5valueEvE4typeESC_SC_
nca:__ZN18DeferredRenderLoop13RenderGBufferEP13RenderTexturePS1_bR8JobFenceP25DeferredRenderLoopScratchRi
GCe:_m_1136464013_0_gshared
xXd:__ZN5physx2Gu29EPASupportMapPairRelativeImplINS0_11ConvexHullVES2_ED0Ev
FTf:_m794066458_0
Lf:___cxa_free_exception
cJd:__ZN13dynamic_arrayI10RaycastHitLj4EE7reserveEj
Hy:__ZN4FMOD22FakeModChannelCallbackEPv
Tf:_emscripten_glValidateProgram
QAg:_m_369051298_0
Abe:__ZNK5physx5cloth9ClothImplINS0_7SwClothEE26getNumSelfCollisionIndicesEv
Xoa:__ZN4Mesh10CreateMeshEv
Hbd:__ZN5physx9PxTaskMgr13decrReferenceERNS_9PxSpuTaskE
Wlf:_m1743537211_0
nna:__ZN17CollisionMeshData21GetSharedNxConvexMeshER4Mesh
JMd:__ZN5physx20NpRigidActorTemplateINS_13PxRigidStaticEE17resolveReferencesERNS_24PxDeserializationContextE
sSa:__ZN17PersistentManager23PostReadActivationQueueEiPK8TypeTreeb
mHb:__ZNK14StackAllocator19GetRequestedPtrSizeEPKv
TIb:__ZN9GfxDevice20GetComputeBufferDataE15ComputeBufferIDPvj
LR:__ZN6il2cpp2vm5Class8GetImageEP8TypeInfo
fTd:__ZNK8Collider15SupportsTriggerEv
noe:_m_500218074_0_gshared
jae:__ZN5physx5cloth15SwSelfCollisionI8Scalar4fE16collideParticlesILb1EEEvRS2_S5_RKS2_S7_
VRd:__ZL28GeomMTDCallback_SphereSphereRN5physx6PxVec3ERfRKNS_10PxGeometryERKNS_11PxTransformES5_S8_
uNd:__ZNK5physx22NpParticleBaseTemplateINS_15PxParticleFluidENS_15NpParticleFluidEE15getParticleMassEv
Uhc:__ZNSt3__16__treeINS_12__value_typeI18UnityInterfaceGUIDP15IUnityInterfaceEENS_19__map_value_compareIS2_S5_NS_4lessIS2_EELb1EEE13stl_allocatorIS5_L18MemLabelIdentifier6ELi16EEE7destroyEPNS_11__tree_nodeIS5_PvEE
jhc:__ZN13RuntimeStaticI11MessageLoopE13StaticDestroyEPv
muc:__ZN5physx7NpScene26setSimulationEventCallbackEPNS_25PxSimulationEventCallbackEh
gMf:_m_1590418555_0
t7f:_m1024003907_0
c8:__Z21DestroyShadowMapCacheP14ShadowMapCache
_5:__ZN12ImageFilters4BlitEP7TextureP13RenderTexture
S4:__Z16SetCullingPlanesR17CullingParametersPK5Planei
G1g:_m512360883_0_gshared
Zpg:_m_24705406_0
O_e:_m1034015862_0
yEh:__Z42RuntimeInvoker_t1719079768_0_t1628762099_0PK10MethodInfoPvPS2_
Wse:_m_113204330_0_gshared
sad:__ZN5physx2Gu15EdgeListBuilder18ComputeActiveEdgesEjPKjPKtPKNS_6PxVec3Ef
Tve:_m_1046843375_0_gshared
smc:__ZN5physx31PxClothGeodesicTetherCookerImpl16findTriNeighborsEv
e8b:__ZN6prcoreL12RemapGenericI17TexFormatARGB444417TexFormatABGR8888EEvPKNS_9InnerInfoE
cVa:__ZN6Shader23VirtualRedirectTransferER14SafeBinaryRead
Zda:__Z23GetLateBehaviourManagerv
Lpf:_m1113917670_0
nke:__ZN5physx6shdfnd5ArrayIPNS_7PxShapeENS0_15InlineAllocatorILj64ENS0_19ReflectionAllocatorIS3_EEEEE6resizeEjRKS3_
E2a:__ZN10MemoryPool10DeallocateEPv
BXg:_m_232823382_0_gshared
xph:__Z58t_867674284_0_CustomAttributesCacheGenerator_m1455568887_0P21CustomAttributesCache
cbe:__ZN5physx5cloth9ClothImplINS0_7SwClothEE11setFrictionEf
F_f:_m_556387740_0
$mg:_m_1738700632_0
Cta:__ZN14GfxDeviceStats10ResetFrameEv
mEh:__Z85RuntimeInvoker_t_1670469581_0_t1636693376_0_t1636693376_0_t1636693376_0_t1636693376_0PK10MethodInfoPvPS2_
YWd:__ZN5physx2Gu22gjkRelativePenetrationINS0_9TriangleVENS0_10ShrunkBoxVEEEjRKT_RKT0_RKNS_6shdfnd3aos15PsMatTransformVERKNSB_6FloatVERNSB_5Vec3VESJ_SJ_RSF_PhSL_Rh
x5h:dynCall_vif
y5h:dynCall_vid
Osh:__Z70RuntimeInvoker_t1636693376_0_t_887538054_0_t1628762099_0_t_887538054_0PK10MethodInfoPvPS2_
e6e:_m595479877_0
Zkh:__Z45t_1216385319_0_CustomAttributesCacheGeneratorP21CustomAttributesCache
z5h:dynCall_vii
Gnb:__ZN4PPtrI8MaterialE8TransferI18StreamedBinaryReadILb0EEEEvRT_
kJa:__Z25FindConflictingComponentsi
cR:__ZN6il2cpp2vm5Class15GetInstanceSizeEPK8TypeInfo
oK:__ZN6il2cpp6icalls8mscorlib6System8MonoType18GetFields_internalEP20Il2CppReflectionTypeiS5_
C0:__ZN5Unity9Component16CheckConsistencyEv
Qmb:__ZN13dynamic_arrayIhLj1EE6insertEPhPKhS3_
v9a:__ZN7ApiGLES11CheckShaderERjb
zye:_m54184489_0_gshared
Elh:__Z45t_1532305783_0_CustomAttributesCacheGeneratorP21CustomAttributesCache
$5:__ZN12ImageFilters19GetBlitCopyMaterialEv
H0b:__ZL26Transfer_SimpleNativeClassI19StreamedBinaryWriteILb0EE10RectOffsetLb1EEvRK29SerializationCommandArgumentsR31RuntimeSerializationCommandInfo
EIa:__ZN13BuildSettings23VirtualRedirectTransferER13ProxyTransfer
f6f:_m_1219560739_0
K0c:__ZN5physx20PxcContactCapsuleBoxERKNS_2Gu13GeometryUnionES3_RKNS_11PxTransformES6_RKfRNS_10PxcNpCacheERNS0_13ContactBufferE
sEh:__Z83RuntimeInvoker_t_19515315_0_t1628762099_0_t1628762099_0_t1636693376_0_t1628762099_0PK10MethodInfoPvPS2_
Jeb:__ZN13GfxDeviceGLES17SetGpuProgramNameEP10GpuProgramPKc
STg:_m1114897456_0
uDf:_m392171468_0
fU:__ZN6il2cpp2vm13MetadataCache28GetMethodDefinitionFromIndexEi
YO:__ZN6il2cpp2os20FileErrnoToErrorCodeEi
P9a:__ZN7ApiGLES18CreateRenderbufferEiN2gl9TexFormatEii
Qcb:__ZN13GfxDeviceGLESC2Ev
Lh:_atexit
xtc:__ZNK5physx7NpScene8getFlagsEv
Zlb:__ZN13dynamic_arrayI4AABBLj4EE7reserveEj
bjb:__ZN6il2cpp2vmL31GetObjectForMissingDefaultValueEj
SIc:__ZN5physx2Sc5Scene16getArticulationsEv
vX:_UNITY_png_write_info_before_PLTE
Gvd:__ZN5physx6shdfnd8PoolBaseINS_2Cm5BlockIhLj384EEENS0_19ReflectionAllocatorIS4_EEE12allocateSlabEv
mWc:__Z13sweepAABBAABBRKN5physx6PxVec3ES2_S2_S2_S2_S2_
l8g:__Z45t_1039475404_0_CustomAttributesCacheGeneratorP21CustomAttributesCache
hxe:_m544693629_0_gshared
lpc:__ZN5physx18NpArticulationLink17setLinearVelocityERKNS_6PxVec3Eb
xrc:__ZN5physx9NpPhysics20createParticleSystemEjb
X4g:__Z92t1621492670_0_CustomAttributesCacheGenerator_t1621492670_0_m_1992593220_0_Arg1_ParameterInfoP21CustomAttributesCache
i:STACKTOP
YXa:__ZNK12HandlerChain8IsHiddenERK13FileEntryData
Yad:__ZN5physx17ConvexHullBuilder14CreateEdgeListEv
Gpc:__ZNK5physx12NpConstraint10getNpSceneEv
kUh:__ZNK10__cxxabiv117__class_type_info16search_above_dstEPNS_19__dynamic_cast_infoEPKvS4_ib
_6d:__ZN5physxL24PxcSweepCapsuleTrianglesERKNS_11PxsCCDShapeES2_RKNS_11PxTransformES5_S5_S5_fRNS_6PxVec3ES7_RNS_10PxcNpCacheERNS_18PxcNpThreadContextERKNS_2Cm23FastVertex2ShapeScalingERNS_2Gu9TriangleVEf
C:tempBigIntD
Tdh:__Z44t1132090416_0_CustomAttributesCacheGeneratorP21CustomAttributesCache
gMg:_m_1793904195_0
JLd:__ZNK5physx15NpActorTemplateINS_14PxRigidDynamicEE12getAggregateEv
B:tempBigIntI
A:tempBigIntR
z:tempBigIntS
y:tempBigIntP
mo:FUNCTION_TABLE_viffi
LZ:__ZN6Object18RegisterInstanceIDEPS_
po:FUNCTION_TABLE_vifff
S8g:__Z44t1255485065_0_CustomAttributesCacheGeneratorP21CustomAttributesCache
GSe:_m_975980173_0
mIh:__Z42RuntimeInvoker_t_224166001_0_t1458036598_0PK10MethodInfoPvPS2_
mXa:__ZN12FileAccessor4ReadEyyPvPy
SJe:_m_1190286690_0
m0g:_m1248681506_0_gshared
P8c:__Z36getPxVehicleDriveDynData_AnalogInputPKN5physx21PxVehicleDriveDynDataEj
coh:__Z57t814710830_0_CustomAttributesCacheGenerator_m_220312235_0P21CustomAttributesCache
s2h:__ZNKSt3__17num_getIwNS_19istreambuf_iteratorIwNS_11char_traitsIwEEEEE15__do_get_signedIxEES4_S4_S4_RNS_8ios_baseERjRT_
Dkd:__ZN5physx2Gu18pcmContactPlaneBoxERKNS0_13GeometryUnionES3_RKNS_11PxTransformES6_RKfRNS0_5CacheERNS0_13ContactBufferE
EAd:__ZN5physx21updateCollDataDynamicERNS_19PxsParticleCollDataERKNS_11PxTransformERKNS_6PxVec3ES7_PKNS_11PxsBodyCoreES4_fRNS_25PxsFluidConstraintDynamicESC_
Ukc:__ZN5physx3Cct17CapsuleController4moveERKNS_6PxVec3EffRKNS_19PxControllerFiltersEPKNS_17PxObstacleContextE
hPh:__ZN16VirtFuncInvoker0IP13t1774424924_0E6InvokeEjPv
WYh:__ZNSt3__19__num_getIwE17__stage2_int_prepERNS_8ios_baseEPwRw
g6e:_m_1725346080_0
xic:__ZN13RuntimeStaticI12EventManagerE10InitializeEv
fif:_t1800843402_0_marshal
uCd:__ZN5physx6shdfnd5ArrayIPNS_2Sq10ActorShapeENS0_19ReflectionAllocatorIS4_EEE15growAndPushBackERKS4_
E1d:__ZN5physx18RepXPropertyFilterINS_2Sn17RepXVisitorWriterINS_27PxVehicleDifferentialNWDataEEEEclILj547ES3_jjEEvRKNS_14PxPropertyInfoIXT_ET0_T1_T2_EEj
c3b:__ZN13ProxyTransfer8TransferI10vector_mapI7Hash128S2_NSt3__14lessIS2_EENS3_9allocatorINS3_4pairIS2_S2_EEEEEEEvRT_PKc17TransferMetaFlags
H$e:_m_1961675040_0
pze:_m_792241597_0_gshared
ua:invoke_iidiii
BOe:_m1995865258_0
_Fg:_m_788491064_0
W2a:__ZN10SpookyHash5ShortEPKvjPyS2_
h0d:__ZN5physx18RepXPropertyFilterINS_2Sn17RepXVisitorReaderINS_16PxVehicleNoDriveEEEEclILj633ENS_15PxVehicleWheelsENS_22PxVehicleWheelsDynDataES8_EEvRKNS_14PxPropertyInfoIXT_ET0_T1_T2_EEj
Dbg:_m285619594_0
Nrb:__ZZN12MeshRenderer15InitializeClassEvEN41FunctorImpl_MeshRenderer_kDidModifyBounds4CallEPviR11MessageData
ANd:__ZNK5physx22NpParticleBaseTemplateINS_15PxParticleFluidENS_15NpParticleFluidEE17getStaticFrictionEv
Jxg:_m_22123640_0
cze:_m643544331_0_gshared
_zd:__ZN5physx6shdfnd5ArrayINS_24PxsConstraintBatchHeaderENS0_19ReflectionAllocatorIS2_EEE8recreateEj
Dod:__ZN14PhysicsManagerC2E18MemLabelIdentifier18ObjectCreationMode
Eyf:_m_286831481_0
D6f:_m_862620143_0
EVa:__ZN19ShaderPropertySheet38CopyTextureWithAuxiliaryPropertiesFromERKN9ShaderLab16FastPropertyNameERKS_
V3b:__ZN14SafeBinaryRead21TransferSTLStyleArrayINSt3__16vectorIN15QualitySettings14QualitySettingENS1_9allocatorIS4_EEEEEEvRT_17TransferMetaFlags
Abh:__Z59t_2028532359_0_CustomAttributesCacheGenerator_m1568307360_0P21CustomAttributesCache
Y3h:__ZNSt3__112system_errorD0Ev
Zud:__ZN5physx6shdfnd8PoolBaseINS_2Sc26ActorPairContactReportDataENS0_19ReflectionAllocatorIS3_EEE12allocateSlabEv
rKc:__ZN5physx2Sc9StaticSim21postActor2WorldChangeEv
uj:___cxa_end_catch
V3e:_m751746662_0
fhh:__Z56t_702325573_0_CustomAttributesCacheGenerator_local_slotsP21CustomAttributesCache
Amc:__Z17PxCloseExtensionsv
OHh:__Z42RuntimeInvoker_t1628762099_0_t_215297020_0PK10MethodInfoPvPS2_
J9g:__Z59t_1794569106_0_CustomAttributesCacheGenerator_m_114906865_0P21CustomAttributesCache
Kwd:__ZN5physx9PxBounds313transformFastERKNS_11PxTransformERKS0_
buc:__ZN5physx7NpScene12createClientEv
sjg:_m916330125_0
Yaf:_m_46395318_0
ypf:_m_412457756_0
uag:_m_1615556710_0
f$b:__Z19TransferField_ArrayI18StreamedBinaryReadILb0EE27Converter_UnityEngineObjectEvRK23StaticTransferFieldInfoR31RuntimeSerializationCommandInfoRT0_
jpg:_m947087589_0
t5a:__Z39MonoBehaviour_CUSTOM_StopCoroutine_AutoP15ScriptingObjectS0_
Rpg:_m_1613428112_0
pYd:__ZN26ContactCapsuleMeshCallback10processHitERKN5physx12PxRaycastHitERKNS0_6PxVec3ES6_S6_RfPKj
Era:__Z33InitializeBuiltinShaderParamNamesv
Y6:__ZN21LightProbeProxyVolume13StaticCleanupEPv
A0c:__ZN5physx30solveConcludeExtContactCoulombERKNS_23PxcSolverConstraintDescERNS_16PxcSolverContextE
NGh:__Z42RuntimeInvoker_t1628762099_0_t_615889032_0PK10MethodInfoPvPS2_
n2b:__ZNSt3__16vectorIN30RuntimeInitializeOnLoadManager9ClassInfoE13stl_allocatorIS2_L18MemLabelIdentifier11ELi16EEE8__appendEj
MWf:_m_372909099_0
eue:_m323315339_0_gshared
YXf:_pinvoke_delegate_wrapper_t530948897_0
nTa:__ZNK16TypeTreeIterator4TypeEv
_Ih:__Z43RuntimeInvoker_t_1104556737_0_t1628762099_0PK10MethodInfoPvPS2_
i8d:__ZN26PxcContactCellMeshCallback10processHitERKN5physx12PxRaycastHitERKNS0_6PxVec3ES6_S6_RfPKj
b9c:__Z44getPxVehicleDriveDynData_EngineRotationSpeedPKN5physx21PxVehicleDriveDynDataE
ck:_glGetUniformLocation
Sdb:__ZN13GfxDeviceGLES32CreateColorRenderSurfacePlatformEP17RenderSurfaceBase19RenderTextureFormat
uv:__ZN12AudioManager24CreateFMODSoundFromMovieEP9AudioClip
B$:__ZN16LevelGameManager8TransferI19StreamedBinaryWriteILb0EEEEvRT_
w1:__ZN14MessageHandler10InitializeERKNSt3__16vectorI16MessageForwarder13stl_allocatorIS2_L18MemLabelIdentifier6ELi8EEEE
vle:__ZN19ControllerHitReport10onShapeHitERKN5physx20PxControllerShapeHitE
SCd:__Z26setPxVehicleEngineDataMMOIPN5physx19PxVehicleEngineDataEf
Wid:__ZN5physx2Gu12TriangleMesh15exportExtraDataERNS_22PxSerializationContextE
MWe:_m_1022682232_0
R2a:__Z24ConvertSeparatorsToUnityPc
vEf:_m789725103_0
WV:__ZN6il2cpp2vm6Thread20FreeThreadStaticDataEP12Il2CppThread
fph:__Z58t1159094344_0_CustomAttributesCacheGenerator_m_230484508_0P21CustomAttributesCache
SBg:_m_1260719746_0
IXe:_m_879186615_0
vPh:__ZL11IsInstClassP13t_887538054_0P8TypeInfo645
Kub:__ZNSt3__16__treeI4PPtrI13RenderTextureENS_4lessIS3_EE11memory_poolIS3_EE15__insert_uniqueERKS3_
_Cc:__ZN5physx2Sc8BodyCore17setupSimStateDataEPNS_6shdfnd4PoolINS0_12SimStateDataENS2_19ReflectionAllocatorIS4_EEEEbb
Bdh:__Z45t_2071673102_0_CustomAttributesCacheGeneratorP21CustomAttributesCache
cLc:__ZN5physx2Sc18ParticleSystemCore20returnStandaloneDataEPNS_15PxsParticleDataE
pwa:__ZNK11MonoManager25GetClassIDVirtualInternalEv
DHa:__Z20LookRotationToMatrixRK8Vector3fS1_P10Matrix3x3f
XKc:__Z25computePacketSizeMultLog2ff
Q9d:__ZN5physx2Cm12DelegateTaskINS_13PxsCCDContextEXadL_ZNS2_14postCCDAdvanceEPNS_10PxBaseTaskEEEED0Ev
Mpe:_m_976726918_0_gshared
Hq:__ZN5Unity9Component26SupportedMessagesDidChangeEi
djb:__ZN6il2cpp2vmL17InvokeConvertThisEPK10MethodInfoPvPS4_PP12Il2CppObject
HHg:_m2082045765_0
iAd:__ZN5physx11PxcPoolListINS_20PxsParticleSystemSimENS_10PxsContextEE6extendEv
CBe:_m1749574747_0_gshared
Wta:__ZN10GpuProgramD0Ev
mMf:_m713372555_0
l6d:__ZN5physx23PxVehicleRepXSerializerINS_16PxVehicleDriveNWEED0Ev
lFb:__ZL18BindVProgAttrbutesRKNSt3__112basic_stringIcNS_11char_traitsIcEENS_9allocatorIcEEEER14ChannelAssignsj
rVf:_m1542255145_0
_Yc:__ZN5physx16PxsIslandManager18setEdgeUnconnectedERKNS_20PxsIslandManagerHookIjLj4294967295EEE
OMg:_m35073816_0
YZh:__ZNSt3__18time_getIwNS_19istreambuf_iteratorIwNS_11char_traitsIwEEEEED2Ev
dSd:__ZL27GeomMTDCallback_PlaneConvexRN5physx6PxVec3ERfRKNS_10PxGeometryERKNS_11PxTransformES5_S8_
zuf:_m_1120036260_0
Rgg:_m_1476430718_0
JWb:__Z16Transfer_BuiltinI8Vector4f13ProxyTransferLb0EEvRK29SerializationCommandArgumentsR31RuntimeSerializationCommandInfo
aDe:_m_1497848441_0_gshared
hRg:_m673436066_0
kXe:_m_1458984590_0
Afa:__ZN13CameraLODDataC2EPK6Camerajhf18MemLabelIdentifier
qOb:__ZN15dense_hashtableINSt3__14pairIKNS0_12basic_stringIcNS0_11char_traitsIcEE13stl_allocatorIcL18MemLabelIdentifier53ELi16EEEEP20ArchiveStorageReaderEES8_11djb2_hash_tIS8_EN14dense_hash_mapIS8_SB_SE_NS0_8equal_toIS8_EES5_ISC_LS6_53ELi16EEE9SelectKeyESH_SI_E4swapERSL_
DU:__ZN6il2cpp2vm6Object3BoxEP8TypeInfoPv
Vob:__ZN13dynamic_arrayIP22RenderingCommandBufferLj4EE7reserveEj
S:Math_pow
W4c:__ZN5physx21PxVehicleDriveSimData14setAutoBoxDataERKNS_20PxVehicleAutoBoxDataE
QOc:__ZNK5physx2Sc9ClothCore16getStretchConfigENS_22PxClothFabricPhaseType4EnumE
n9d:__ZN5physx6shdfnd5ArrayIPvNS0_15InlineAllocatorILj256ENS0_19ReflectionAllocatorINS_2Gu30LargePersistentContactManifoldEEEEEE15growAndPushBackERKS2_
TNc:__ZN5physx2Sc13ClothBulkData15exportExtraDataERNS_22PxSerializationContextE
m5b:__ZNK27OverridingParameterPreparer15OnPrepareVectorER12PartialArrayI8Vector4fERKN20GpuProgramParameters14ValueParameterEj
hfb:__ZN13GfxDeviceGLES22CopyComputeBufferCountE15ComputeBufferIDS0_j
XYa:__ZN17ArchiveFileSystem4CopyER13FileEntryDataS1_
z8e:_m622937095_0
haf:_m235484264_0
Jxb:__ZNSt3__16vectorIN22BuiltinResourceManager8ResourceENS_9allocatorIS2_EEE21__push_back_slow_pathIKS2_EEvRT_
z2d:__ZN5physx18RepXPropertyFilterINS_2Sn17RepXVisitorReaderINS_16PxVehicleDriveNWEEEEclILj683ES3_NS_23PxVehicleDriveSimDataNWES7_EEvRKNS_14PxPropertyInfoIXT_ET0_T1_T2_EEj
d5b:__ZN4crnd12crn_unpacker11unpack_dxt5EPPhjjjjjj
cHg:_m263200262_0
mcf:_m416590285_0
led:__ZN5physx13GuMeshFactory17createHeightFieldERKNS_17PxHeightFieldDescE
ZQ:__ZN6il2cpp2vm5Class9GetFieldsEP8TypeInfoPPv
dSf:_m_576315446_0
Moe:_m_1523565924_0_gshared
xh:_pthread_mutex_unlock
j0g:_m_902344939_0_gshared
Gaa:__Z37GenerateCombinedDynamicVisibleListJobP11CullResults
gKb:__ZNK13ScreenManager21GetCursorInsideWindowEv
Qzg:_m_433004658_0
qbc:__ZN14qsort_internal8_QSortMTIP16RenderObjectDatai26RenderDeferredObjectSorterE10CleanupJobEPS4_
KJh:__Z29RuntimeInvoker_t_1968926924_0PK10MethodInfoPvPS2_
Xea:__Z20IntersectAABBFrustumRK4AABBPK5Planej
Vhh:__Z56t867363288_0_CustomAttributesCacheGenerator_m849533587_0P21CustomAttributesCache
E9e:_m1902108060_0
I9:__ZN13RenderManager15InitializeClassEv
WLd:__ZN5physx19NpRigidBodyTemplateINS_14PxRigidDynamicEE25setMassSpaceInertiaTensorERKNS_6PxVec3E
dgf:_m_1140937153_0
SPc:__ZN5physx2Sc8ClothSim20removeCollisionPlaneEPKNS0_8ShapeSimE
WYd:__ZN5physx7profile8ZoneImplINS_28PxProfileNameProviderForwardEED0Ev
bFb:__ZN14DrawBufferGLESI11IndexBuffer26IndexBufferUsageMapperGLESE10BeginWriteEjj
I5h:dynCall_iiiiiiiiiiffffii
qGf:_m254641343_0
beh:__Z44t_723766069_0_CustomAttributesCacheGeneratorP21CustomAttributesCache
tud:__ZN5physx6shdfnd8PoolBaseINS_2Sc21ConstraintInteractionENS0_19ReflectionAllocatorIS3_EEE12allocateSlabEv
W7b:__ZN6prcoreL12RemapGenericI15TexFormatRGB56517TexFormatARGB8888EEvPKNS_9InnerInfoE
VXc:__ZN5physx28solveParallelCouloumFrictionERNS_18PxsDynamicsContextEjjPNS_13PxcSolverBodyEPNS_17PxcSolverBodyDataEjjPNS_25PxcArticulationSolverDescEjPNS_23PxcSolverConstraintDescEjS9_jPiSA_SA_SA_PNS_25PxcThresholdStreamElementEjSA_PNS_2Cm13SpatialVectorEPKPNS_11PxsBodyCoreERNSD_10BitMapBaseINS_6shdfnd9AllocatorEEEPKPNS_15PxsArticulationEjPViRNSL_5ArrayINS_24PxsConstraintBatchHeaderENSL_19ReflectionAllocatorISW_EEEES10_PPNS_12PxsRigidBodyE
pHb:__ZNK25ThreadsafeLinearAllocator19GetRequestedPtrSizeEPKv
$T:__ZN6il2cpp2vm13MetadataCache27GetEventDefinitionFromIndexEi
$1h:__ZNKSt3__120__time_get_c_storageIwE3__XEv
k5c:__ZN5physx21PxVehicleDriveSimData17getBinaryMetaDataERNS_14PxOutputStreamE
S9h:_glGetIntegerv__wrapper
_Na:__Z21CreateMonoScriptCacheRK8UnityStrP14ScriptingClass22InitScriptingCacheTypeP6Object
uBf:_m_2031157539_0
tfa:__ZNK19RenderEventsContext7CleanupEv
Ayf:_m1466259273_0
qKb:__ZN9Texture2DD2Ev
Phh:__Z45t_1447446672_0_CustomAttributesCacheGeneratorP21CustomAttributesCache
XId:__ZN14PhysicsManager8TransferI19StreamedBinaryWriteILb0EEEEvRT_
jgh:__Z85t_2100355234_0_CustomAttributesCacheGenerator_t_2100355234_0____Fallback_PropertyInfoP21CustomAttributesCache
RWh:__ZNSt3__18ios_base4initEPv
jc:invoke_iiiifiiiii
EIc:__ZN5physx2Sc5Scene31setClothInterCollisionStiffnessEf
u2g:_m_673395828_0_gshared
uqa:__ZN14SpriteRenderer13StaticCleanupEPv
zGh:__Z56RuntimeInvoker_t_224166001_0_t_827402166_0_t1628762099_0PK10MethodInfoPvPS2_
_mh:__Z63t97885198_0_CustomAttributesCacheGenerator_U3CU3Ef__amU24cache3P21CustomAttributesCache
bjg:_m1071218783_0
o9a:__ZNK7ApiGLES13GetDebugLabelEN2gl10ObjectTypeEjiPiPc
z7d:__ZN5physx2Cm12DelegateTaskINS_20PxsParticleSystemSimEXadL_ZNS2_15collisionUpdateEPNS_10PxBaseTaskEEEED0Ev
R9f:_m240151045_0
jfe:__ZN5physx2Cm12DelegateTaskINS_2Sc5SceneEXadL_ZNS3_19updateCCDSinglePassEPNS_10PxBaseTaskEEEED0Ev
Zm:_glGenRenderbuffers
lL:__ZN6il2cpp6icalls8mscorlib6System2IO6MonoIO19GetCurrentDirectoryEPi
XEc:__ZN5physx2Sc13ConstraintSim11projectPoseEPNS0_7BodySimE
cfa:__Z21IntersectSegmentPlaneRK8Vector3fS1_RK5PlanePS_
hph:__Z56t1159094344_0_CustomAttributesCacheGenerator_m41317712_0P21CustomAttributesCache
Q3f:_m_1894853101_0
GKa:__ZN14PlayerSettings23VirtualRedirectTransferER17RemapPPtrTransfer
zRh:__ZL11IsInstClassP13t_887538054_0P8TypeInfo1041
bJa:__ZN14CachingManager7DisposeEv
Qnh:__Z59t_1450837892_0_CustomAttributesCacheGenerator_m_693267688_0P21CustomAttributesCache
P0c:__ZN5physx21PxcContactCapsuleMeshERKNS_2Gu13GeometryUnionES3_RKNS_11PxTransformES6_RKfRNS_10PxcNpCacheERNS0_13ContactBufferE
oTg:_m1966759021_0
Mpa:__ZN12MeshRenderer16UpdateCachedMeshEv
Xpd:__ZN9Rigidbody11SetPositionERK8Vector3f
q_h:__ZNKSt3__18time_getIwNS_19istreambuf_iteratorIwNS_11char_traitsIwEEEEE12__get_secondERiRS4_S4_RjRKNS_5ctypeIwEE
fWh:__ZNSt3__112basic_stringIcNS_11char_traitsIcEENS_9allocatorIcEEE6__initEPKcj
eu:__ZN9AudioClip16StaticInitializeEPv
u3e:_m_456916950_0
z0f:_m_896815170_0
Oag:_m928072690_0
Dba:__Z34ProcessIndexListIsNodeVisibleStep1RK22SceneCullingParametersPK9SceneNodejjR9IndexList
RUe:_m_1478612516_0
VUf:_m1430381298_0
vgh:__Z43t586045924_0_CustomAttributesCacheGeneratorP21CustomAttributesCache
c4:__ZN6Camera15SetOrthographicEb
jIg:_m_855288532_0
Gdb:__ZN13GfxDeviceGLES14DisableScissorEv
_2c:__ZN5physx17PxcNpMemBlockPool23releaseConstraintMemoryEv
QGb:__ZN22MemoryCacherReadBlocks13GetFileLengthEv
Sxb:__ZNSt3__16__sortIRN15ResourceManager10Dependency6SorterEPS2_EEvT0_S6_T_
e0d:__ZN5physx3Pvd17PvdPropertyFilterINS_2Sn17RepXVisitorWriterINS_23PxVehicleSuspensionDataEEEE14handleAccessorILj591ENS_22PxRepXPropertyAccessorILj591ES4_ffEEEEvRKT0_
sXc:__ZNK5physx10PxsContext25getManagerTouchEventCountEPiS1_S1_
Nbe:__ZN5physx5cloth9ClothImplINS0_7SwClothEE10putToSleepEv
hte:_m1172054137_0_gshared
Ac:_glVertexAttrib4f
v8d:__ZNK5physx2Cm12DelegateTaskINS_17PxsFluidCollisionEXadL_ZNS2_12mergeResultsEPNS_10PxBaseTaskEEEE7getNameEv
AOa:__ZN13LoadOperationC2Ev
DOf:_m_555676482_0
$eh:__Z45t_1568301063_0_CustomAttributesCacheGeneratorP21CustomAttributesCache
SUf:_m_885244849_0
Rfc:__ZNSt3__16vectorIP12Il2CppThreadNS_9allocatorIS2_EEE21__push_back_slow_pathIKS2_EEvRT_
sLf:_m1503753254_0
N9:__Z17SetupObjectMatrixRK10Matrix4x4fi
ATg:_m_117906019_0
Okh:__Z44t1752902492_0_CustomAttributesCacheGeneratorP21CustomAttributesCache
f6a:__Z43Object_CUSTOM_DoesObjectWithInstanceIDExisti
J5c:__ZNK5physx16PxVehicleNoDrive14getBrakeTorqueEj
MPb:__ZNSt3__16vectorINS_4pairINS_12basic_stringIcNS_11char_traitsIcEENS_9allocatorIcEEEES7_EE13stl_allocatorIS8_L18MemLabelIdentifier36ELi16EEE6insertENS_11__wrap_iterIPKS8_EERSE_
Vq:__ZN4PPtrI6ObjectE8TransferI19StreamedBinaryWriteILb0EEEEvRT_
kIf:_m_247570547_0
aMc:__ZN5physx2Sc17ParticleSystemSim19unlinkParticleShapeEPNS0_19ParticlePacketShapeE
Hbf:_m1689224330_0
ULg:_m_1779327053_0
IZg:_m76815858_0_gshared
JLf:_m318761967_0
eC:__ZN4FMOD5Sound11setUserDataEPv
DCa:__ZN9Texture2D18UnshareTextureDataEv
jme:__ZN15TerrainCollider13StaticCleanupEPv
KCh:__Z84RuntimeInvoker_t_887538054_0_t_818288618_0_t_427311721_0_t_887538054_0_t_887538054_0PK10MethodInfoPvPS2_
S7d:__ZN5physx11EdgeManagerD0Ev
vZa:__ZNK23ArchiveStorageConverter26GetUncompressedArchiveSizeEv
Paf:_m_1727264447_0
VAb:__Z29StdTemplateConversionFunctionItsEbPvR14SafeBinaryRead
Hld:__ZN5physx6shdfnd9SListImpl7getSizeEv
V9d:__ZN5physx2Cm12DelegateTaskINS_13PxsCCDContextEXadL_ZNS2_12postCCDSweepEPNS_10PxBaseTaskEEEE11runInternalEv
NW:_UNITY_png_zfree
_C:__ZL50UnityAudioEffect_InternalSetFloatParameterCallbackP14FMOD_DSP_STATEif
IIg:_m330942855_0
TOf:_m_528126191_0
mla:__ZN17LowLevelAllocator4FreeEPvj
Tlf:_m1260523650_0
oZd:__ZN5physx7profile8ZoneImplINS_28PxProfileNameProviderForwardEE10eventValueEtyx
Y6a:__Z52Register_UnityEngine_GameObject_GetComponentInParentv
P0g:_m_1519111358_0_gshared
Ech:__Z44t1109655220_0_CustomAttributesCacheGeneratorP21CustomAttributesCache
I0d:__ZN5physx2Sn21RepXVisitorReaderBaseINS_22PxVehicleWheelsSimDataEE15complexPropertyINS_22PxRepXPropertyAccessorILj619ES2_RKNS_27PxVehicleTireLoadFilterDataES6_EEKNS_40PxVehicleTireLoadFilterDataGeneratedInfoEEEvPjRKT_RT0_
lab:__ZN7ApiGLES22BindDrawIndirectBufferEj
p0h:__ZNSt3__16locale2id5__getEv
uth:__Z56RuntimeInvoker_t1628762099_0_t_887538054_0_t1628762099_0PK10MethodInfoPvPS2_
Ahc:__ZL19StaticCleanupPlayerPv
L$c:__ZN5physx24writeBackContactCoulomb4EPKNS_23PxcSolverConstraintDescERNS_16PxcSolverContextEPPKNS_17PxcSolverBodyDataES8_
QMh:__ZN23InterfaceActionInvoker1IP13t_887538054_0E6InvokeEjP8TypeInfoPvS1_
Nda:__ZN9Behaviour10DeactivateE19DeactivateOperation
Bzb:__ZN13StreamingInfo8TransferI14SafeBinaryReadEEvRT_
O$g:_m_568773191_0_gshared
_jb:__ZN13dynamic_arrayI11ClassIDTypeLj4EE7reserveEj
_le:__ZN4Tree16StaticInitializeEPv
SQe:_m487253678_0
rXd:__ZNK5physx2Gu22SupportMapRelativeImplINS0_4BoxVEE9doSupportERKNS_6shdfnd3aos5Vec3VE
Yvb:__Z23CalculateGlobalRotation23TransformAccessReadOnly
wmc:__ZNK5physx25PxClothSimpleTetherCooker13getTetherDataEPjPf
Jia:__ZNK9ShaderLab7Program11IsSupportedEPK6Shader
BRg:_m1678805201_0
I_d:__ZN5physx25PxVehicleConstraintShader20getExternalReferenceERj
s9d:__ZN5physx2Cm10FanoutTaskD0Ev
jTh:_wmemset
D5d:__ZNK5physx26PxSerializerDefaultAdapterINS_16PxVehicleNoDriveEE13isSubordinateEv
aNd:__ZN5physx15NpActorTemplateINS_15PxParticleFluidEE14setOwnerClientEh
sEc:__ZN5physx2Sc21ConstraintInteractionD2Ev
mAa:__Z43InitializeRendererAnimationBindingInterfacev
NNa:__ZNK10MonoScript25GetClassIDVirtualInternalEv
bxb:__ZL26DestroyGameObjectRecursiveR10GameObjectR11BatchDelete
cMa:__ZN9Coroutine16SetCurrentMethodE21ScriptingMethodIl2Cpp
yF:_GC_allochblk_nth
Ikb:__ZN12ImmediatePtrIN5Unity9ComponentEE8TransferI19StreamedBinaryWriteILb0EEEEvRT_
Q5c:__ZN5physx23PxVehicleRepXSerializerINS_18PxVehicleDriveTankEE12fileToObjectERNS_9XmlReaderERNS_18XmlMemoryAllocatorERNS_23PxRepXInstantiationArgsEPNS_12PxCollectionE
FYf:_m_2070989798_0
jdd:__ZNK5physx2Gu9Container8ContainsEjPj
ixh:__Z56RuntimeInvoker_t_766435453_0_t_887538054_0_t1628762099_0PK10MethodInfoPvPS2_
Ttb:__Z7HaloTexP9Texture2DPhiiii
oTc:__ZN5physx24PxvRegisterArticulationsEv
yXh:__ZTv0_n12_NSt3__113basic_istreamIcNS_11char_traitsIcEEED0Ev
Psg:_m_61775123_0
D6h:dynCall_i
ske:__ZN12_GLOBAL__N_1L3gORERN5physx12PxGroupsMaskERKS1_S4_
pld:__ZN5physx6shdfnd9MutexImplC2Ev
TYf:_m_1048353064_0
m5h:dynCall_v
qLe:_m1526231602_0
R5d:__ZNK5physx26PxSerializerDefaultAdapterINS_18PxVehicleDriveTankEE18registerReferencesERNS_6PxBaseERNS_22PxSerializationContextE
doh:__Z56t814710830_0_CustomAttributesCacheGenerator_m388706726_0P21CustomAttributesCache
a0e:_m_1507238307_0
YV:__ZN6il2cpp2vm6Thread8SetStateEP12Il2CppThreadNS0_11ThreadStateE
o4:__ZN6Camera23VirtualRedirectTransferER14SafeBinaryRead
Hbc:__ZNSt3__16__treeI4PPtrI10GUIElementENS_4lessIS3_EE11memory_poolIS3_EE5eraseENS_21__tree_const_iteratorIS3_PNS_11__tree_nodeIS3_PvEEiEE
kag:_m993439667_0
S0d:__ZN5physx2Sn21RepXVisitorReaderBaseINS_22PxVehicleWheelsSimDataEE23extendedIndexedPropertyINS_3Pvd36PxPvdExtendedIndexedPropertyAccessorILj615ES2_KjNS_6PxVec3EEEKNS_18PxUnknownClassInfoEEEvPjRKT_RT0_
VIb:__ZN9GfxDevice22CopyComputeBufferCountE15ComputeBufferIDS0_j
Dzg:_m_331806841_0
ysg:_m213562877_0
xnc:__ZN5physx14NpArticulationD0Ev
H1a:__ZNK16LzmaDecompressor16DecompressMemoryEPKvPjPvS2_
bdi:_glBlendEquation__wrapper
HVg:_m1285684985_0
E$g:_m_1670896610_0_gshared
h3:__ZNK6Camera16GetCullingMatrixEv
pMe:_m_1755777036_0
ase:_m_32889923_0_gshared
uKe:_m_248466296_0
cQg:_m472277653_0
znb:__ZL60CombineDirectionalShadowCasterCullignIndexListsAndDestroyJobP20ShadowCullingJobData
$q:__ZN18StreamedBinaryReadILb0EE21TransferSTLStyleArrayI13dynamic_arrayIiLj4EEEEvRT_17TransferMetaFlags
nNf:_m127332079_0
cya:__ZN16LightmapSettings5ResetEv
$Wa:__ZN12FileAccessor4ReadEyPvPy
t0d:__ZN5physx2Sn21RepXVisitorReaderBaseINS_22PxVehicleWheelsDynDataEE23extendedIndexedPropertyINS_3Pvd36PxPvdExtendedIndexedPropertyAccessorILj625ES2_KjfEEKNS_18PxUnknownClassInfoEEEvPjRKT_RT0_
gfg:_m1391598694_0
Fwh:__Z84RuntimeInvoker_t_224166001_0_t1628762099_0_t1628762099_0_t_887538054_0_t1636693376_0PK10MethodInfoPvPS2_
Eae:__ZNK5physx5cloth9ClothImplINS0_7SwClothEE16getLinearInertiaEv
RWf:_m_565676237_0
wQa:__ZN9Scripting30CreateScriptableObjectWithTypeEP15ScriptingObjectb
x1f:_m888861432_0
hDd:__Z45getPxVehicleDifferential4WDataMFrontRearSplitPKN5physx27PxVehicleDifferential4WDataE
GDf:_m_2119673882_0
BWa:__ZNK15FileSystemEntry6ExistsEv
aBb:__Z29StdTemplateConversionFunctionIsjEbPvR14SafeBinaryRead
aFa:__ZNK9Transform21GetLocalToWorldMatrixER10Matrix4x4f
vgd:__ZN5physx2Gu10ConvexMesh4loadERNS_13PxInputStreamE
wlf:_m_444941479_0
NVe:_m_775886989_0
ezh:__Z42RuntimeInvoker_t_224166001_0_t_604974727_0PK10MethodInfoPvPS2_
NDe:_m1585182396_0_gshared
Ru:__ZN13AudioListener23VirtualRedirectTransferER19StreamedBinaryWriteILb0EE
Wfc:__ZNSt3__112__hash_tableINS_17__hash_value_typeINS_4pairIPK12PropertyInfoP8TypeInfoEEP24Il2CppReflectionPropertyEENS_22__unordered_map_hasherIS8_SB_17ReflectionMapHashIS8_ELb1EEENS_21__unordered_map_equalIS8_SB_19ReflectionMapEqualsIS8_ELb1EEEN6il2cpp2gc9AllocatorISB_EEE6rehashEj
Q6d:__ZN5physx6shdfnd5ArrayIPvNS0_19ReflectionAllocatorIN17PxcPoolMallocData10PoolData16EEEE15growAndPushBackERKS2_
seb:__ZN13GfxDeviceGLES11CopyTextureE9TextureIDS0_
JRe:_m_538696120_0
b9h:_emscripten_glViewport__wrapper
tAh:__Z84RuntimeInvoker_t1628762099_0_t_887538054_0_t1628762099_0_t_887538054_0_t1628762099_0PK10MethodInfoPvPS2_
gZe:_m_1827178913_0
Kph:__Z57t_867674284_0_CustomAttributesCacheGenerator_m305486283_0P21CustomAttributesCache
fCg:_m332798299_0
TMa:__ZN13MonoBehaviour20InvokeOnRenderObjectEv
wjb:_build_tree638
WWf:_m_1014061288_0
GDd:__Z35setPxVehicleClutchDataMAccuracyModePN5physx19PxVehicleClutchDataENS_27PxVehicleClutchAccuracyMode4EnumE
FOb:__ZNSt3__127__insertion_sort_incompleteIRPFbRKNS_4pairIN9ShaderLab16FastPropertyNameEfEES6_EPS4_EEbT0_SB_T_
jph:__Z91t1159094344_0_CustomAttributesCacheGenerator_t1159094344_0_m_970631052_0_Arg1_ParameterInfoP21CustomAttributesCache
TKb:__ZN14PlayerSettingsD2Ev
_fa:__ZN16SubstanceArchive16StaticInitializeEPv
NFb:__ZN6Object23VirtualRedirectTransferER13ProxyTransfer
DF:_GC_reclaim_all
Ssh:__Z84RuntimeInvoker_t_19515315_0_t_887538054_0_t1636693376_0_t_1047984243_0_t2034024306_0PK10MethodInfoPvPS2_
BJh:__Z56RuntimeInvoker_t1628762099_0_t2123452489_0_t2123452489_0PK10MethodInfoPvPS2_
MVd:__ZN16RayRTreeCallbackILi1ELb1EED0Ev
VNg:_m1430692681_0
zBd:__ZL18PxcContactHullHullRKN5physx2Gu13PolygonalDataES3_RKNS_9PxBounds3ES6_RKNS_11PxTransformES9_fRNS0_13ContactBufferERKNS_2Cm23FastVertex2ShapeScalingESF_bb
gW:__ZN6il2cpp2vm10ThreadPool5QueueEP14Il2CppDelegatePPvS3_P12Il2CppObject
Crb:__ZZN10MeshFilter15InitializeClassEvEN39FunctorImpl_MeshFilter_kDidAddComponent4CallEPviR11MessageData
lze:_m1374717388_0_gshared
w8c:__Z46getPxVehicleWheelsSimData_SceneQueryFilterDataPKN5physx22PxVehicleWheelsSimDataEj
Ryd:__ZN5simdi8anyEqualERK8Scalar4fS2_RS0_
qlc:__ZN5physx3Cct26CharacterControllerManager21resetObstaclesBuffersEv
tpe:_m787534623_0_gshared
Ezg:_m1355578442_0
Eq:__ZNK6Object25GetNeedsPerObjectTypeTreeEv
Xzd:__ZN5physx6shdfnd5ArrayIPNS_10PxsCCDBodyENS0_19ReflectionAllocatorIS3_EEE8recreateEj
Tt:__ZN9AudioClip16EnableLegacyModeEv
_0b:__ZN12NativeBufferI19Converter_PrimitiveI8Vector4fEE15SetupForWritingER9ArrayInfo
f5a:__Z52Register_UnityEngine_Camera_INTERNAL_CALL_RaycastTryv
$Sa:__ZNK14SerializedFile11IsAvailableEx
Hlg:_m1087154351_0
Blh:__Z43t475241608_0_CustomAttributesCacheGeneratorP21CustomAttributesCache
VPa:__Z23RegisterClass_TextAssetv
dvg:_m1746812082_0
Azd:__ZN5physx6shdfnd8PoolBaseINS_21PxsBodyTransformVault13PxsBody2WorldENS0_19ReflectionAllocatorIS3_EEE12allocateSlabEv
asc:__ZN5physx9NpPhysics17getVisualDebuggerEv
g6h:dynCall_iifi
gab:__ZN7ApiGLES16BindMemoryBufferEjN2gl12BufferTargetE
Yca:__Z16CreateRenderLoopR6Camera
G2c:__ZN5physx20PxcNpCacheStreamPairC2ERNS_17PxcNpMemBlockPoolE
hRb:__ZN32SerializationCommandQueueBuilder3AddERK20SerializationCommand
K8a:_tlsf_create
YLh:__ZN16VirtFuncInvoker3IP14t_1238178395_0S1_iiE6InvokeEjPvS1_ii
rMa:__ZN13MonoBehaviour23VirtualRedirectTransferER18StreamedBinaryReadILb0EE
Fzg:_m_1789391743_0
SDa:__ZN9Texture3D17UploadToGfxDeviceEv
AE:__ZN23CloudWebServicesManager13StaticCleanupEPv
aUh:__ZNK10__cxxabiv121__vmi_class_type_info27has_unambiguous_public_baseEPNS_19__dynamic_cast_infoEPvi
xVh:__ZNSt3__127__insertion_sort_incompleteIRNS_6__lessIiiEEPiEEbT0_S5_T_
HSd:__ZL28GeomOverlapCallback_MeshMeshRKN5physx10PxGeometryERKNS_11PxTransformES2_S5_PNS_2Gu12TriggerCacheE
_Ch:__Z71RuntimeInvoker_t_224166001_0_t_887538054_0_t_1190127860_0_t1628762099_0PK10MethodInfoPvPS2_
wXf:_m_1721064438_0
LCg:_m254667515_0
jKd:__ZNK5physx11PxAggregate8isKindOfEPKc
Vya:__ZN15QualitySettings23VirtualRedirectTransferER19StreamedBinaryWriteILb0EE
xQe:_m748730085_0
aad:__ZN5physx7Cooking16platformMismatchEv
gBa:__ZN16RenderTextureMap5QueryEPK17RenderSurfaceBase
Fse:_m827431042_0_gshared
w7d:__ZN5physx2Cm12DelegateTaskINS_20PxsParticleSystemSimEXadL_ZNS2_21collisionFinalizationEPNS_10PxBaseTaskEEEED0Ev
EYf:_m_1735350878_0
j6:__ZN5Light17MainThreadCleanupEv
LGb:__ZN14FileCacherRead12GetCacheSizeEv
ljf:_m679995841_0
hDh:__Z56RuntimeInvoker_t_887538054_0_t_766435453_0_t_887538054_0PK10MethodInfoPvPS2_
Dci:_emscripten_glUniform4iv__wrapper
rrd:__ZN5physx6shdfnd5ArrayIhNS0_19ReflectionAllocatorIhEEE6resizeEjRKh
KTa:__ZN8Material12CleanupClassEv
fUa:__ZN8Material8GetFloatEN9ShaderLab16FastPropertyNameE
jHd:__ZN5physx2Gu18gjkRelativeRayCastINS0_9TriangleVENS0_4BoxVES2_NS0_10ShrunkBoxVEEEbRT_RT0_RKNS_6shdfnd3aos15PsMatTransformVERKNSA_6FloatVERKNSA_5Vec3VESJ_RSE_RSH_SL_fb
aag:_m_61250703_0
gzd:__ZNK5physx5cloth21IterationStateFactory6createI8Scalar4fNS0_7SwClothEEENS0_14IterationStateIT_EERKT0_
Qg:_pthread_key_create
VCc:__ZN5physx2Sc8BodyCoreD2Ev
jkf:_m1699382396_0
qNd:__ZNK5physx22NpParticleBaseTemplateINS_15PxParticleFluidENS_15NpParticleFluidEE23getExternalAccelerationEv
pPb:__ZN15SerializeTraitsI10ColorRGBAfE8TransferI14SafeBinaryReadEEvRS0_RT_
zWh:__ZNKSt3__112basic_stringIcNS_11char_traitsIcEENS_9allocatorIcEEE7compareEPKc
KJg:_m_1948047987_0
bLa:__ZN22BuiltinResourceManager13StaticDestroyEPv
Xlg:_m1913171908_0
QVh:__ZNSt3__110__stdinbufIwE5uflowEv
_$:__ZN10GameObject17GetComponentIndexEPN5Unity9ComponentE
Yyc:__ZN5physx7NpCloth20setMotionConstraintsEPKNS_31PxClothParticleMotionConstraintE
ypb:__ZNSt3__16__treeIN12ShaderErrors11ShaderErrorENS_4lessIS2_EENS_9allocatorIS2_EEE5eraseENS_21__tree_const_iteratorIS2_PNS_11__tree_nodeIS2_PvEEiEE
Jkh:__Z44t_393459662_0_CustomAttributesCacheGeneratorP21CustomAttributesCache
rHa:__Z19InitFloatExceptionsv
TZb:__Z16Transfer_BuiltinI8Vector3f18StreamedBinaryReadILb0EELb0EEvRK29SerializationCommandArgumentsR31RuntimeSerializationCommandInfo
t5c:__ZN5physx16PxVehicleDrive4W12createObjectERPhRNS_24PxDeserializationContextE
kPd:__ZN5physx15NpActorTemplateINS_7PxClothEE22setClientBehaviorFlagsENS_7PxFlagsINS_25PxActorClientBehaviorFlag4EnumEhEE
gee:__ZN5physx5cloth12LerpIteratorI8Scalar4fPKS2_EC2ERKS5_
nR:__ZN6il2cpp2vm5Class9GetParentEP8TypeInfo
tPc:__ZNK5physx2Sc15ClothFabricCore9getPhasesEPNS_18PxClothFabricPhaseEj
V2a:__ZN35RegisterRuntimeInitializeAndCleanup22ExecuteInitializationsEv
rth:__Z126RuntimeInvoker_t1628762099_0_t_887538054_0_t1628762099_0_t_887538054_0_t1628762099_0_t1628762099_0_t1636693376_0_t_887538054_0PK10MethodInfoPvPS2_
d1e:_m_1779297807_0
Mwb:__ZN13BuildSettings8TransferI18StreamedBinaryReadILb0EEEEvRT_
o0:__ZN10GameObject15InitializeClassEv
Xtd:__ZN5physx3Scb17ArticulationJoint9syncStateEv
DWd:__ZNK5physx2Gu29EPASupportMapPairRelativeImplINS0_8CapsuleVENS0_4BoxVEE18doWarmStartSupportEiiRNS_6shdfnd3aos5Vec3VES8_S8_
b2e:_m_1587033344_0
Tvd:__ZN5physx17PxsThresholdTable5buildERKNS_18PxsThresholdStreamE
T3g:__Z59t1458036598_0_CustomAttributesCacheGenerator_m_1968560097_0P21CustomAttributesCache
Rqb:__ZZN15DirectorManager15InitializeClassEvEN41FixedUpdateDirectorFixedAdvanceTimestruct7ForwardEv
T5d:__ZNK5physx26PxSerializerDefaultAdapterINS_18PxVehicleDriveTankEE12createObjectERPhRNS_24PxDeserializationContextE
DHg:_m1222840310_0
XUc:__ZN9BoxPruner12updateObjectERK5IAABBt
ZFc:__ZN5physx2Sc10NPhaseCore32createActorPairContactReportDataEv
Ekd:__ZN5physx2Gu22pcmContactPlaneCapsuleERKNS0_13GeometryUnionES3_RKNS_11PxTransformES6_RKfRNS0_5CacheERNS0_13ContactBufferE
sIa:__ZN14AsyncOperationD0Ev
$Eb:__Z29TextureIdMapGLES_QueryOrAlloc9TextureID
y$:__ZN16LevelGameManager8TransferI14SafeBinaryReadEEvRT_
Q9g:__Z45t_1307621237_0_CustomAttributesCacheGeneratorP21CustomAttributesCache
Z1c:__ZN5physx21PxcArticulationHelper16prepareLtbMatrixERNS_9PxcFsDataEPKNS_12PxcFsInertiaEPKNS_11PxTransformEPKNS_30PxcArticulationJointTransformsEf
P1b:__ZN15ResourceManager10Dependency8TransferI14SafeBinaryReadEEvRT_
rna:__ZN3WWWD2Ev
SQd:__ZNK5physx29BroadPhaseBatchUpdateWorkTask7getNameEv
eme:__GLOBAL__sub_I_TreeIntermediateRenderer_cpp
CZb:__Z49EmitSerializationCommandsForLinearCollectionFieldI18StreamedBinaryReadILb0EEEvRK18TransferField_InfoR32SerializationCommandQueueBuilderRP20AllowNameConversions
Ach:__Z44t_926999828_0_CustomAttributesCacheGeneratorP21CustomAttributesCache
ZYf:_m1061194329_0
kC:__ZN4FMOD6System9setDriverEi
VEa:__ZNK9Transform11GetRotationEv
RIe:_m_1633289009_0
uWg:_m2030682613_0_gshared
xCf:_m_863846167_0
gai:_emscripten_glGetIntegerv__wrapper
iv:__ZN12AudioManager15DidReloadDomainEv
sIc:__ZN5physx2Sc5Scene26setVisualizationCullingBoxERKNS_9PxBounds3E
m7c:__ZN5physx15PxVehicleWheels15patchupPointersEPS0_Phjjb
J4a:__Z60Register_UnityEngine_AsyncOperation_get_allowSceneActivationv
$ce:__ZThn4_N5physx5cloth9ClothImplINS0_7SwClothEE18clearInterpolationEv
PId:__Z27GetMeshAssetPathDescriptivePK4Mesh
BHf:_m_220047304_0
p6e:_m1841392820_0
Jv:__ZN12AudioManager19RemoveAudioListenerEP13AudioListener
YKa:__Z25GetBuiltinResourceManagerv
T3c:__ZN5physx2Sq16BucketPrunerCore20allocateSortedMemoryEj
N0h:__ZNKSt3__15ctypeIcE10do_toupperEPcPKc
PI:__ZN6il2cpp2gc8GCHandle15GetTargetHandleEP12Il2CppObjectii
Ykb:__ZNSt3__16__treeINS_12__value_typeINS_12basic_stringIcNS_11char_traitsIcEENS_9allocatorIcEEEEjEENS_19__map_value_compareIS7_S8_NS_4lessIS7_EELb1EEE13stl_allocatorIS8_L18MemLabelIdentifier6ELi16EEE15__insert_uniqueERKS8_
XBb:__ZN15SerializeTraitsI18UnityPropertySheetE8TransferI13ProxyTransferEEvRS0_RT_
yi:_llvm_trap
kbh:__Z58t_364966247_0_CustomAttributesCacheGenerator_m_424171797_0P21CustomAttributesCache
Q8:__Z19FindProbeFromAnchorP9TransformR4AABB
jxh:__Z57RuntimeInvoker_t_1190127860_0_t_887538054_0_t1628762099_0PK10MethodInfoPvPS2_
nDf:_m1764634816_0
pQd:__ZNK5physx14SingleAABBTask7getNameEv
Pha:__ZN23ShaderVariantCollection13StaticCleanupEPv
fxh:__Z99RuntimeInvoker_t_224166001_0_t_887538054_0_t_1047982445_0_t1622626691_0_t_1047982445_0_t271175457_0PK10MethodInfoPvPS2_
qbd:__ZN5physx11HullLibrary11calchullgenEPNS_6float3Eiif
kZg:_m1457368332_0_gshared
D0d:__ZN5physx3Pvd17PvdPropertyFilterINS_2Sn17RepXVisitorReaderINS_22PxVehicleWheelsSimDataEEEE27handleExtendedIndexPropertyILj616ES4_NS_6PxVec3EKjNS_18PxUnknownClassInfoEEEvjRKNS_29PxExtendedIndexedPropertyInfoIXT_ET0_T2_T1_EERKT3_
Nkh:__Z43t829005524_0_CustomAttributesCacheGeneratorP21CustomAttributesCache
Kjg:_m_1546653078_0
Vdb:__ZN13GfxDeviceGLES30SetBackBufferColorDepthSurfaceEP17RenderSurfaceBaseS1_
mib:__ZNSt3__112__hash_tableINS_17__hash_value_typeIP8TypeInfoS3_EENS_22__unordered_map_hasherIS3_S4_N6il2cpp8metadata16SZArrayClassHashELb1EEENS_21__unordered_map_equalIS3_S4_NS7_19SZArrayClassCompareELb1EEENS_9allocatorIS4_EEE15__insert_uniqueERKS4_
N3a:__ZN16StreamedResource8TransferI18StreamedBinaryReadILb0EEEEvRT_
ttd:__ZN5physx6shdfnd5ArrayINS_12PxActorShapeENS0_19ReflectionAllocatorIS2_EEE8recreateEj
xMd:__ZN5physx15NpActorTemplateINS_13PxRigidStaticEE14setOwnerClientEh
qfh:__Z45t_1937704238_0_CustomAttributesCacheGeneratorP21CustomAttributesCache
ZAg:_m_2105744680_0
b3:__ZNK6Camera17GetSkyboxMaterialEv
Q5g:__Z57t1621492670_0_CustomAttributesCacheGenerator_m910236790_0P21CustomAttributesCache
X9c:__ZNK5physx11Adjacencies22ComputeNbBoundaryEdgesEv
sxg:_m_632681607_0
BEa:__ZN9Transform15ThreadedCleanupEv
M5:__ZN11HaloManager11RenderHalosEPK11CullResultsR17ShaderPassContext
Klf:_m95497208_0
GYc:__ZN5physx19PxsFluidSpatialHash16updatePacketHashERjPjPNS_16PxsFluidParticleERKNS_2Cm10BitMapBaseINS_6shdfnd9AllocatorEEEjPNS_10PxBaseTaskE
Ppa:__ZN12MeshRenderer18CalculateLocalAABBER4AABBRKS_RK4Mesh
MNc:__ZN5physx2Sc9ClothCore20setMotionConstraintsEPKNS_31PxClothParticleMotionConstraintE
jXd:__ZNK5physx2Gu22SupportMapRelativeImplINS0_11ConvexHullVEE14doSupportSweepERKNS_6shdfnd3aos5Vec3VE
Nqf:_m683273815_0
Qka:__ZN21UnityDefaultAllocatorI17LowLevelAllocatorE8AllocateEji
z5e:_m_1636576183_0
M0c:__ZN5physx23PxcContactCapsuleConvexERKNS_2Gu13GeometryUnionES3_RKNS_11PxTransformES6_RKfRNS_10PxcNpCacheERNS0_13ContactBufferE
Uga:__ZN10UnityScene10ClearRootsEv
Zae:__ZNK5physx5cloth9ClothImplINS0_7SwClothEE15getNumTrianglesEv
SXa:__ZN12HandlerChain10AtomicMoveER13FileEntryDataS1_
xjg:_m_989940278_0
mQe:_m_1183800149_0
Pjb:__ZN13dynamic_arrayIN18AssetBundleManager11PreloadDataELj8EE7reserveEj
izf:_m1680332058_0
C3e:_m_507713972_0
QMg:_m271837557_0
uIb:__ZN9GfxDevice19CreateSparseTextureE9TextureIDii13TextureFormati17TextureColorSpace
UJe:_m1903026028_0
mpf:_m_310414537_0
Soh:__Z44t1362580668_0_CustomAttributesCacheGeneratorP21CustomAttributesCache
fcf:_m2021013591_0
Q5b:__ZN14CompressedMesh8TransferI19StreamedBinaryWriteILb0EEEEvRT_
cTe:_m_1224032560_0
UPd:__ZN5physx5cloth8SwSolver26setInterCollisionStiffnessEf
k2e:_m1238271486_0
zWe:_m_720506242_0
Rae:__ZN5physx5cloth9ClothImplINS0_7SwClothEE11setCapsulesENS0_5RangeIKjEEjj
kja:__ZN9ShaderLab11shaderprops9GetTexEnvEPK19ShaderPropertySheetS3_NS_16FastPropertyNameE16TextureDimensionRNS0_16PropertyLocationE
nxd:__ZN8Scalar4faSERKS_
dHe:_m_1674126253_0
sye:_m_733764116_0_gshared
lnb:__ZN14RenderSettings8TransferI13ProxyTransferEEvRT_
WRc:__ZN5physx5cloth9SwFactoryD0Ev
NSd:__ZNK5physx2Gu12TriangleMesh12getTrianglesEv
MRc:__ZThn4_NK5physx5cloth8SwFabric15getNumParticlesEv
f1g:_m160824484_0_gshared
rxf:_m498460281_0
Srf:_m706673842_0
nVf:_m_1461691209_0
vVd:__ZN26IntersectAnyVsMeshCallbackILi2ELb1EE10processHitERKN5physx12PxRaycastHitERKNS1_6PxVec3ES7_S7_RfPKj
Nug:_m_2016040561_0
Kfc:_longest_match_fast661
rYf:_m_224118481_0
xRb:__Z16Transfer_BuiltinI8Vector2f18StreamedBinaryReadILb1EELb1EEvRK29SerializationCommandArgumentsR31RuntimeSerializationCommandInfo
r1g:_m630562344_0_gshared
NFd:__ZN5physx6shdfnd5ArrayINS_11PxDebugLineENS0_19ReflectionAllocatorIS2_EEE15growAndPushBackERKS2_
q$c:__ZN5physx25solveContactConcludeBlockEPKNS_23PxcSolverConstraintDescEjRNS_16PxcSolverContextE
ok:_getc
fFc:__ZN5physx2Sc24ElementInteractionMarker11updateStateEv
eLh:__ZN16VirtFuncInvoker2Ib13t_215297020_0S0_E6InvokeEjPvS0_S0_
Sah:__Z60t_1775593653_0_CustomAttributesCacheGenerator_m_1068678426_0P21CustomAttributesCache
y1d:__ZN5physx2Sn21RepXVisitorReaderBaseINS_23PxVehicleSuspensionDataEE12readPropertyIfEEbRT_
B0h:__ZNSt3__15ctypeIcE21__classic_upper_tableEv
qIh:__Z40RuntimeInvoker_t63500041_0_t1628762099_0PK10MethodInfoPvPS2_
ITg:_m1410255071_0
yYc:__ZN5physx16PxsFluidDynamics17adjustTempBuffersEj
Ydi:_emscripten_glBlendEquation__wrapper
fVe:_m13266614_0
S2d:__ZNK5physx32PxVehicleClutchDataGeneratedInfo23visitInstancePropertiesINS_18RepXPropertyFilterINS_2Sn17RepXVisitorReaderINS_19PxVehicleClutchDataEEEEEEEjT_j
IXg:_m_1410099066_0_gshared
Hk:_emscripten_set_fullscreenchange_callback
DGc:__ZN5physx2Sc5Scene11preAllocateEjjjjj
kEh:__Z70RuntimeInvoker_t_224166001_0_t1636693376_0_t1628762099_0_t_887538054_0PK10MethodInfoPvPS2_
maf:_m89241894_0
Lk:_emscripten_glDrawArrays
Dgf:_m_1165893540_0
y2d:__ZN5physx18RepXPropertyFilterINS_2Sn17RepXVisitorReaderINS_16PxVehicleDriveNWEEEEclILj667ENS_14PxVehicleDriveENS_21PxVehicleDriveDynDataES8_EEvRKNS_14PxPropertyInfoIXT_ET0_T1_T2_EEj
xMh:__ZN16VirtFuncInvoker2IP14t_1238178395_0hS1_E6InvokeEjPvhS1_
Rk:_clock_getres
Pna:__ZN19SkinnedMeshRenderer14PrepareSkinGPUEiP18JobBatchDispatcher
s1g:_m879912959_0_gshared
Fod:__ZN14PhysicsManager5ResetEv
MTf:_m1948194573_0
oke:__ZN5physx3Ext9MassProps13rotateInertiaERKNS_7PxMat33ERKNS_6PxQuatE
A8d:__ZN5physx32PxsSolverConstraintPartitionTaskD2Ev
hKg:_m67300950_0
wD:__ZL19CleanupModule_Audiov
zYc:__ZN5physx16PxsFluidDynamics9updateSphERNS_10PxBaseTaskE
rQg:_m413070845_0
zrb:__ZN13dynamic_arrayI14BoneInfluence2Lj16EE7reserveEj
zYe:_m424034580_0
UUf:_m1900501910_0
dRe:_m_1187066711_0
YCa:__ZN9Texture2D15InitializeClassEv
vai:_emscripten_glVertexAttrib3fv__wrapper
cCf:_m_1369185161_0
jQh:__ZN16VirtFuncInvoker0IjE6InvokeEjPv
fIe:_m1495727549_0
Pve:_m_1073281204_0_gshared
yYg:_m1927038056_0_gshared
hab:__ZN7ApiGLES18UnbindMemoryBufferEN2gl12BufferTargetE
iXb:__ZL22Transfer_ManagedObjectI13ProxyTransferLb1EEvRK29SerializationCommandArgumentsR31RuntimeSerializationCommandInfo
ojb:__ZNSt3__16vectorIN6il2cpp2vm17TypeNameParseInfoENS_9allocatorIS3_EEE7reserveEj
W8c:__Z37setPxVehicleDriveDynData_UseAutoGearsPN5physx21PxVehicleDriveDynDataEb
q6b:__ZN18StreamedBinaryReadILb0EE21TransferSTLStyleArrayI13dynamic_arrayI10Matrix4x4fLj16EEEEvRT_17TransferMetaFlags
ECb:__ZN18StreamedBinaryReadILb0EE19TransferSTLStyleMapINSt3__13mapI4PPtrI6ShaderE8UnityStrNS2_4lessIS6_EENS2_9allocatorINS2_4pairIKS6_S7_EEEEEEEEvRT_17TransferMetaFlags
jye:_m_1223099354_0_gshared
ATb:__Z19TransferField_ArrayI18StreamedBinaryReadILb1EE19Converter_PrimitiveIsEEvRK23StaticTransferFieldInfoR31RuntimeSerializationCommandInfoRT0_
l4c:__ZNK5physx2Sq12BucketPruner7overlapERKNS0_9ShapeDataERNS0_14PrunerCallbackE
VAh:__Z69RuntimeInvoker_t_19515315_0_t1628762194_0_t1628762194_0_t1636693376_0PK10MethodInfoPvPS2_
Tdb:__ZN13GfxDeviceGLES32CreateDepthRenderSurfacePlatformEP17RenderSurfaceBase17DepthBufferFormat
gr:__ZN14SafeBinaryRead21TransferSTLStyleArrayI13dynamic_arrayIiLj4EEEEvRT_17TransferMetaFlags
LVc:__ZN5physx23PxsBroadPhaseContextSap7destroyEv
CNe:_m_1651232790_0
Zcc:__ZN19LightProbeOcclusion8TransferI14SafeBinaryReadEEvRT_
PZa:__ZN20ArchiveStorageHeader17GetBlocksInfoSizeERKNS_10BlocksInfoE
w2c:__ZN5physx19PxcGetMaterialShapeEPKNS_12PxsShapeCoreEjRNS_18PxcNpThreadContextEPNS_15PxsMaterialInfoE
nTg:_m677430257_0
rIg:_m_553944918_0
i4h:_llvm_bswap_i32
slh:__Z45t_1994653175_0_CustomAttributesCacheGeneratorP21CustomAttributesCache
Ksa:__ZN9GfxDevice25ReleaseAsyncCommandHeaderEPN21GfxDeviceAsyncCommand3ArgE
bKb:__ZN13ScreenManager24SetAllowLayeredRenderingEb
tMa:__ZN13MonoBehaviour23VirtualRedirectTransferER17RemapPPtrTransfer
sNb:__ZN21UniformBufferTFMethod20IsBoneCountSupportedEi
A3g:__Z91t_756155572_0_CustomAttributesCacheGenerator_t_756155572_0_m_314020067_0_Arg0_ParameterInfoP21CustomAttributesCache
zNd:__ZN5physx22NpParticleBaseTemplateINS_15PxParticleFluidENS_15NpParticleFluidEE18setDynamicFrictionEf
Zih:__Z58t867363288_0_CustomAttributesCacheGenerator_m_1698485258_0P21CustomAttributesCache
mKa:__ZN14PlayerSettings10SmartResetEv
rPf:_m_1389468517_0
qJh:__Z28RuntimeInvoker_t_215297020_0PK10MethodInfoPvPS2_
Ded:__Z13raycast_planeRKN5physx10PxGeometryERKNS_11PxTransformERKNS_6PxVec3ES8_fNS_7PxFlagsINS_9PxHitFlag4EnumEtEEjPNS_12PxRaycastHitEbPFbRSD_PvESG_
tNg:_m_879996327_0
phf:_m1004814461_0
CD:__ZN10ObjectPoolIN4FMOD6ReverbENS0_7ReverbIEE7SetSizeEi
epd:__Z28RegisterClass_PhysicsManagerv
jY:_unity_z_tr_tally
bwb:__ZN17RemapPPtrTransfer8TransferI12ImmediatePtrI9TransformEEEvRT_PKc17TransferMetaFlags
c0:__ZN10GameObject21EnsureUniqueTransformEbb
zF:_GC_never_stop_func
$Fc:__ZN5physx2Sc7PhysicsC2ERKNS_17PxTolerancesScaleE
aOg:_m253471857_0
gqc:__ZN5physx9NpFactory14createInstanceEv
zXe:_m_391393253_0
Osd:__ZN5physx2Cm12RenderBufferD2Ev
xSd:__ZL32GeomOverlapCallback_PlaneCapsuleRKN5physx10PxGeometryERKNS_11PxTransformES2_S5_PNS_2Gu12TriggerCacheE
oNc:__ZN5physx2Sc9ClothCore13setGlobalPoseERKNS_11PxTransformE
wcc:__ZNSt3__17__sort3IR23CompareReflectionProbesP31RuntimeReflectionProbeBlendInfoEEjT0_S5_S5_T_
kJc:__ZN5physx2Sc9ShapeCore13setRestOffsetEf
VRc:__ZThn4_N5physx5cloth9SwFactoryD1Ev
_8b:__ZN6prcoreL17RemapGenericFloatI18TexFormatARGBFloat16TexFormatRGFloatEEvPKNS_9InnerInfoE
Lba:__ZN10GUIElement16StaticInitializeEPv
ymh:__Z58t_19408649_0_CustomAttributesCacheGenerator_m_1227188982_0P21CustomAttributesCache
CDf:_m_844719632_0
XOf:_m_260919662_0
Jff:_m_1475620680_0
Pm:_emscripten_glLoadIdentity
Ojh:__Z45t_1150505961_0_CustomAttributesCacheGeneratorP21CustomAttributesCache
yTg:_m_1333978492_0
CCg:_m_341110417_0
v9f:_m1189993934_0
JWh:__ZNSt3__112basic_stringIwNS_11char_traitsIwEENS_9allocatorIwEEE9__grow_byEjjjjjj
zUa:__ZN8Material8TransferI13ProxyTransferEEvRT_
hr:__ZN4AABB8TransferI14SafeBinaryReadEEvRT_
SW:_UNITY_png_destroy_info_struct
m9a:__ZNK7ApiGLES5CheckEjPKcj
Ipa:__ZN12MeshRenderer23VirtualRedirectTransferER19StreamedBinaryWriteILb0EE
x4b:__ZN18StreamedBinaryReadILb0EE21TransferSTLStyleArrayI13dynamic_arrayI12LightmapDataLj4EEEEvRT_17TransferMetaFlags
E5a:__Z49Register_UnityEngine_MonoBehaviour_StartCoroutinev
cMf:_m_198386230_0
f2c:__ZN5physx16PxcFsGetVelocityERNS_9PxcFsDataEj
h1f:_m_1576185257_0
iYc:__ZN5physx18collideWithCapsuleEPNS_19PxsParticleCollDataEjRKNS_2Gu13GeometryUnionEf
wqb:__ZNSt3__16vectorIN9ShaderLab16ParserSubProgram15VectorParameterENS_9allocatorIS3_EEE21__push_back_slow_pathIKS3_EEvRT_
L3b:__ZNSt3__16vectorIN15QualitySettings14QualitySettingENS_9allocatorIS2_EEE26__swap_out_circular_bufferERNS_14__split_bufferIS2_RS4_EE
p5a:__Z40MonoBehaviour_CUSTOM_StartCoroutine_AutoP15ScriptingObjectS0_
iEc:__ZNK5physx2Sc14ConstraintCore13getBreakForceERfS2_
VJc:__ZN5physx2Sc8ShapeSim21destroyLowLevelVolumeEv
HFh:__Z57RuntimeInvoker_t_887538054_0_t_887538054_0_t_1010744929_0PK10MethodInfoPvPS2_
Y$:__ZNK10GameObject28QueryComponentImplementationEi
M9a:__ZNK7ApiGLES8QueryCapEj
rZd:__ZThn116_N5physx7profile8ZoneImplINS_28PxProfileNameProviderForwardEED1Ev
pyh:__Z29RuntimeInvoker_t_1681755259_0PK10MethodInfoPvPS2_
n1g:_m1321418026_0_gshared
jDc:__ZN5physx2Sc8BodyCore17setAngularDampingEf
rKa:__ZN14PlayerSettings16CheckConsistencyEv
hE:__ZN11AudioModule30GetOrCreateDSPFromCustomFilterEP17AudioCustomFilter
ro:FUNCTION_TABLE_viiiiiiiiiiiiii
QSd:__ZNK5physx2Gu12TriangleMesh24getTriangleMaterialIndexEj
_wh:__Z70RuntimeInvoker_t_224166001_0_t_887538054_0_t1628762099_0_t_887538054_0PK10MethodInfoPvPS2_
_hb:__ZN6il2cpp6icalls8mscorlib6System13GlobalizationL20culture_lcid_locatorEPKvS5_
KQb:__Z16Transfer_BuiltinI5RectTIfE18StreamedBinaryReadILb1EELb0EEvRK29SerializationCommandArgumentsR31RuntimeSerializationCommandInfo
q_c:__ZN5physx20PxsParticleSystemSim24clearParticleConstraintsEv
pNe:_m273322001_0
Nnf:_m_209429752_0
_4h:dynCall_vifiiiiiiiiiiiii
_fg:_m_1062925644_0
Esb:__ZN15dense_hashtableINSt3__14pairIK9TextureIDiEES2_N12TextureIdMap20TextureIDHashFunctorEN14dense_hash_mapIS2_iS6_NS0_8equal_toIS2_EE13stl_allocatorIS4_L18MemLabelIdentifier64ELi16EEE9SelectKeyES9_SC_E5eraseERS3_
V$e:_m_35008567_0
emb:__ZN5Light8TransferI19StreamedBinaryWriteILb0EEEEvRT_
HLa:__ZN10systeminfo24GetSystemLanguageCultureEi
nKg:_m_2018437305_0
NDf:_t_65128199_0_marshal
qQe:_m_9569442_0
WUa:__ZN6Shader27MarkShaderStateNotSupportedEPS_
kgd:__ZN5physx13BigConvexData15exportExtraDataERNS_22PxSerializationContextE
njg:_m_2120439199_0
dL:__ZN6il2cpp6icalls8mscorlib6System2IO6MonoIO29get_AltDirectorySeparatorCharEv
A5e:_m1218008337_0
a2c:__ZN5physx21PxcArticulationHelper22setupSolverConstraintsERNS_9PxcFsDataEjRNS_24PxcConstraintBlockStreamEPNS_23PxcSolverConstraintDescEPKNS_19PxsArticulationLinkEPKNS_30PxcArticulationJointTransformsEfRjRNS_25PxsConstraintBlockManagerE
RBd:__ZN5physx21propagateVelocitySIMDERKNS_8PxcFsRowERKNS_17PxcFsJointVectorsERKNS_6shdfnd3aos5Vec3VERKNS_14PxcSIMDSpatialERKNS_11PxcFsRowAuxE
BJf:_m_2095809311_0
UO:__ZN6il2cpp2os11Environment22GetEnvironmentVariableERKNSt3__112basic_stringIcNS2_11char_traitsIcEENS2_9allocatorIcEEEE
oih:__Z58t867363288_0_CustomAttributesCacheGenerator_m_2035250554_0P21CustomAttributesCache
oBe:_m_1975281242_0_gshared
zQe:_m_1072767172_0
Vw:__ZN24AudioScriptBufferManager15DidReloadDomainEv
erh:__Z57t_1821340893_0_CustomAttributesCacheGenerator_m65387853_0P21CustomAttributesCache
ytb:__ZL16DrawMeshInternalRK14ChannelAssignsR4MeshRK10Matrix4x4fi13TransformType
dhd:__ZN5physx2Gu17computeImpactDataERNS_6PxVec3ES2_RKS1_S4_fRKNS_10PxTriangleE
h9g:__Z44t1955451956_0_CustomAttributesCacheGeneratorP21CustomAttributesCache
d3:__ZN6Camera13ClearNoSkyboxEb
I5f:_m_710204362_0
hld:__ZN5physx6shdfnd21atomicCompareExchangeEPViii
WFf:_m1377483748_0
$Nc:__ZNK5physx2Sc9ClothCore26getNbParticleAccelerationsEv
Qce:__ZThn4_N5physx5cloth9ClothImplINS0_7SwClothEE20getMotionConstraintsEv
IJa:__Z26GarbageCollectSharedAssetsb
QTg:_m1686398088_0
ucb:__ZN18GfxFramebufferGLES10InvalidateEv
DAc:__ZN5physx7NpCloth16lockParticleDataENS_7PxFlagsINS_16PxDataAccessFlag4EnumEhEE
CSc:__ZN5physx5cloth16SwInterCollisionI8Scalar4fEC2EPKNS0_20SwInterCollisionDataEjffjPFbPvS7_ER14StackAllocatorILj16EEPNS_13PxProfileZoneE
Ddf:_m_1027941876_0
ftb:__ZN4crnd11crnd_deleteINS_13prefix_coding14decoder_tablesEEEvPT_
A2a:__ZN10MemoryPoolD2Ev
mCh:__Z41RuntimeInvoker_t_19515315_0_t_818288618_0PK10MethodInfoPvPS2_
_mc:__ZN5physx7NpActor13getOwnerSceneERKNS_7PxActorE
i3c:__ZN5physx18PxcNpThreadContextC2EfffRKNS_2Cm12RenderOutputERNS_17PxcNpMemBlockPoolEb
Kff:_m_1038655974_0
yOb:__ZN15dense_hashtableINSt3__14pairIKNS0_12basic_stringIcNS0_11char_traitsIcEE13stl_allocatorIcL18MemLabelIdentifier53ELi16EEEEP20ArchiveStorageReaderEES8_11djb2_hash_tIS8_EN14dense_hash_mapIS8_SB_SE_NS0_8equal_toIS8_EES5_ISC_LS6_53ELi16EEE9SelectKeyESH_SI_E13set_empty_keyERKSC_
tLf:_m2024676052_0
S9d:__ZN5physx2Cm12DelegateTaskINS_13PxsCCDContextEXadL_ZNS2_14postCCDAdvanceEPNS_10PxBaseTaskEEEE11runInternalEv
Fta:__ZN14GfxDeviceStats19EndClientFrameStatsEv
GFg:_m618145847_0
rve:_m1310500508_0_gshared
fXf:_m1620214591_0
_id:__ZN5physx2Gu12TriangleMeshD0Ev
LUg:_m1524996508_0
hah:__Z43t732533990_0_CustomAttributesCacheGeneratorP21CustomAttributesCache
N1a:_LzmaDec_DecodeToBuf
H1f:_m_483210095_0
Hd:_lseek
bqg:_m_1957994660_0
$yg:_m_460342097_0
G7c:__ZN5physx40PxVehicleDifferential4WDataGeneratedInfoC2Ev
qw:__ZN11AudioSource16UpdatePauseStateEv
Khc:__ZL52StaticUnregisterSceneLoadedCallback_LightmapSettingsPv
O4e:_m1893910730_0
F5a:__Z48Register_UnityEngine_MonoBehaviour_StopCoroutinev
fzc:__ZN5physx7NpCloth24setParticleAccelerationsEPKNS_6PxVec4E
Lyc:__ZN5physx3Scb5Shape18setMaterialsHelperEPKPNS_10PxMaterialEt
D4:__ZN27DeviceViewProjMatricesStateD2Ev
uec:__ZN14SafeBinaryRead21TransferSTLStyleArrayINSt3__16vectorI17SortingLayerEntryNS1_9allocatorIS3_EEEEEEvRT_17TransferMetaFlags
aud:__ZN5physx6shdfnd5ArrayINS_19PxsArticulationLinkENS0_19ReflectionAllocatorIS2_EEE8recreateEj
noh:__Z58t814710830_0_CustomAttributesCacheGenerator_m_1540418226_0P21CustomAttributesCache
Yrh:__Z83RuntimeInvoker_t_19515315_0_t1636693376_0_t_887538054_0_t1628762099_0_t2034024306_0PK10MethodInfoPvPS2_
bEa:__ZN9Texture3D23VirtualRedirectTransferER17RemapPPtrTransfer
oJc:__Z28ScGetPxShapeFromPxsShapeCorePKN5physx12PxsShapeCoreE
aUb:__Z16Transfer_BuiltinIj14SafeBinaryReadLb0EEvRK29SerializationCommandArgumentsR31RuntimeSerializationCommandInfo
yna:__ZNK3WWW6IsDoneEv
f:HEAPU32
HXa:__ZN12HandlerChain6ParentERK13FileEntryDataRNSt3__112basic_stringIcNS3_11char_traitsIcEENS3_9allocatorIcEEEE
Z5f:_m68259523_0
tJd:__ZN5physx3Cct13BoxController16setContactOffsetEf
Q0h:__ZNKSt3__15ctypeIcE8do_widenEc
apb:__ZN6prcoreL10inner_flipILj2EEEvPhS1_j
uDa:__ZNK14Texture2DArray16ExtractImageImplEP14ImageReferenceNS0_8BlitModeEbi
ujb:_UNITY_png_text_compress
D8f:_m1886989779_0
yzf:_m_1566232934_0
yla:__ZN12TLSAllocatorI14StackAllocatorED0Ev
$y:__ZN4FMOD13ChannelGroupI9setVolumeEf
Xgh:__Z56t1832451304_0_CustomAttributesCacheGenerator_m67437190_0P21CustomAttributesCache
XAh:__Z43RuntimeInvoker_t1628762194_0_t_1190127860_0PK10MethodInfoPvPS2_
tjh:__Z56t867363288_0_CustomAttributesCacheGenerator_m883469173_0P21CustomAttributesCache
o3g:__Z45t_2098447282_0_CustomAttributesCacheGeneratorP21CustomAttributesCache
u6c:__ZN5physx19updateCachedHitDataEPKjPKNS_6PxVec4EPKfS6_PNS_23PxVehicleWheels4DynDataE
w_g:_m_477039153_0_gshared
KGa:__ZN11TimeManager16CheckConsistencyEv
iTd:__ZN8ColliderD0Ev
eyc:__ZN5physx3Scb5Scene12addRigidBodyERNS0_4BodyEb
yQc:__ZN5physx5cloth9ClothImplINS0_7SwClothEE20getPreviousParticlesEv
gBg:_m1606924164_0
kai:_emscripten_glDeleteTextures__wrapper
UDb:__ZNSt3__16__treeI19RepeatingLogMessageNS_4lessIS1_EE13stl_allocatorIS1_L18MemLabelIdentifier69ELi16EEE4findIS1_EENS_15__tree_iteratorIS1_PNS_11__tree_nodeIS1_PvEEiEERKT_
xZb:__ZN12NativeBufferI27Converter_UnityEngineObjectE15SetupForWritingER9ArrayInfo
E5f:_m_1622846433_0
Nxg:_m279545936_0
m9e:_m_1737361953_0
Ce:_glTexImage3D
Nec:__ZN6Object17IsDerivedFromImpl7Builder18TraverseDepthFirstEijR13dynamic_arrayIN4RTTI15DerivedFromInfoELj4EE
Bgh:__Z58t1479351635_0_CustomAttributesCacheGenerator_m1300787456_0P21CustomAttributesCache
yWd:__ZNK5physx2Gu17ShrunkConvexHullV10planeShiftEjRKNS_6shdfnd3aos6FloatVE
LHd:__ZN5physx2GuL35fullContactsGenerationCapsuleConvexERKNS0_8CapsuleVERKNS0_11ConvexHullVERKNS_6shdfnd3aos15PsMatTransformVERKNS8_12PsTransformVESE_PNS0_17PersistentContactERjRNS0_13ContactBufferEbRNS0_25PersistentContactManifoldERNS8_5Vec3VERKNS8_6FloatVEb
kKd:__ZNK5physx14PxArticulation19getConcreteTypeNameEv
bbb:__ZNK13TranslateGLES13BlendEquationE7BlendOp
dVc:__ZN3MBP17populateNewRegionERK5IAABB
wra:__Z20RenderMultipleMeshesRK15RenderNodeQueueRK18RenderMultipleDataRK14ChannelAssignsb
Le:_JS_SystemInfo_GetCurrentCanvasWidth
REb:__ZNSt3__16__treeINS_12__value_typeIPvPN14GfxContextGLES8InstanceEEENS_19__map_value_compareIS2_S6_NS_4lessIS2_EELb1EEENS_9allocatorIS6_EEE7destroyEPNS_11__tree_nodeIS6_S2_EE
jEh:__Z84RuntimeInvoker_t_224166001_0_t1628762099_0_t1628762099_0_t1636693376_0_t_887538054_0PK10MethodInfoPvPS2_
gOf:_m_630047781_0
DQg:_m467429952_0
Vrb:__Z18SkinGenericMathLibILi4ELb1ELb0EEvR12SkinMeshInfo
C$h:__ZNSt3__19money_getIwNS_19istreambuf_iteratorIwNS_11char_traitsIwEEEEED2Ev
SJd:__ZNK5physx3Cct17CapsuleController14getUpDirectionEv
v5d:__ZNK5physx26PxSerializerDefaultAdapterINS_16PxVehicleDriveNWEE12createObjectERPhRNS_24PxDeserializationContextE
QU:__ZN6il2cpp2vm14PlatformInvoke30MarshalCSharpStringToCppStringEP12Il2CppString
rue:_m_1790384880_0_gshared
Aed:__Z11raycast_boxRKN5physx10PxGeometryERKNS_11PxTransformERKNS_6PxVec3ES8_fNS_7PxFlagsINS_9PxHitFlag4EnumEtEEjPNS_12PxRaycastHitEbPFbRSD_PvESG_
yig:_m_1024387622_0
mkf:_m249191135_0
ALb:__ZN22LocalFileSystemHandler4NameEv
Hae:__ZN5physx5cloth9ClothImplINS0_7SwClothEE21setCentrifugalInertiaERKNS_6PxVec3E
hQa:__ZN9TextAsset8TransferI17RemapPPtrTransferEEvRT_
Lzf:_m1364223436_0
oig:_m1699653532_0
vlf:_m101653649_0
Wua:__Z30scripting_class_is_subclass_ofP14ScriptingClassS0_
l6b:__ZN7SubMesh8TransferI18StreamedBinaryReadILb0EEEEvRT_
hMb:__ZN21AssetBundleFileSystem4NameEv
Vgd:__ZN5physx2Gu14sweepBoxSphereERKNS0_3BoxEfRKNS_6PxVec3ES6_fRfRS4_NS_7PxFlagsINS_9PxHitFlag4EnumEtEE
YSb:__ZNSt3__16vectorI8GUIStyle13stl_allocatorIS1_L18MemLabelIdentifier1ELi16EEE7reserveEj
eId:__ZN13dynamic_arrayIN5physx31PxClothParticleMotionConstraintELj4EE7reserveEj
XCe:_m1859222582_0_gshared
Blg:_m_580095648_0
Uzb:__ZNSt3__16__treeINS_12__value_typeI26SerializedObjectIdentifieriEENS_19__map_value_compareIS2_S3_NS_4lessIS2_EELb1EEENS_9allocatorIS3_EEE7destroyEPNS_11__tree_nodeIS3_PvEE
Hcg:_m_825085032_0
xje:__ZN5physx10PxMaterialD0Ev
yf:_emscripten_glIsEnabled
z_b:__Z16Transfer_BuiltinIy18StreamedBinaryReadILb0EELb1EEvRK29SerializationCommandArgumentsR31RuntimeSerializationCommandInfo
DNe:_m_1504547502_0
kIe:_m_1271692594_0
bO:__ZN6il2cpp2os9SemaphoreD2Ev
EPh:__ZN16VirtFuncInvoker1IP13t1774424924_0bE6InvokeEjPvb
vxd:__ZmiRK8Scalar4fS1_
sza:__ZN8Renderer13RegisterClassEv
Gva:__Z35scripting_class_get_field_from_nameP14ScriptingClassPKc
M8d:__ZN5physx16PxsSolverEndTaskD0Ev
L7g:__Z60t_2004451924_0_CustomAttributesCacheGenerator_m_1079828971_0P21CustomAttributesCache
KRd:__ZNK5physx9PxTaskMgr16getSpuDispatcherEv
LOd:__ZN5physx22NpParticleBaseTemplateINS_16PxParticleSystemENS_16NpParticleSystemEE19setParticleBaseFlagENS_18PxParticleBaseFlag4EnumEb
d6d:__ZN5physx26PxSerializerDefaultAdapterINS_16PxVehicleDrive4WEED0Ev
C0b:__Z16Transfer_BuiltinI10ColorRGBAf19StreamedBinaryWriteILb0EELb1EEvRK29SerializationCommandArgumentsR31RuntimeSerializationCommandInfo
Gcg:_m69110617_0
a2e:_m805216413_0
jzc:__ZN5physx7NpCloth21removeCollisionSphereEj
y4h:dynCall_fiff
U_f:_m452819475_0
uxa:__ZN10builtintex15GetWhiteTextureEv
SCe:_m_310606948_0_gshared
wFb:__ZNSt3__16__treeINS_12__value_typeIj25DeferredSkinningOperationEENS_19__map_value_compareIjS3_NS_4lessIjEELb1EEENS_9allocatorIS3_EEE7destroyEPNS_11__tree_nodeIS3_PvEE
T7g:__Z43t622777826_0_CustomAttributesCacheGeneratorP21CustomAttributesCache
XKg:_m386468226_0
$ub:__ZN4PPtrI10GameObjectE8TransferI18StreamedBinaryReadILb0EEEEvRT_
tug:_m_1341978370_0
TIe:_m1664057857_0
E9d:__ZN5physx2Cm12DelegateTaskINS_10PxsContextEXadL_ZNS2_23prepareCMDiscreteUpdateEPNS_10PxBaseTaskEEEE11runInternalEv
j8g:__Z44t_619360021_0_CustomAttributesCacheGeneratorP21CustomAttributesCache
Ihb:__ZL10rescale128PyS_Piiiii
F_d:__ZN5physx25PxVehicleConstraintShader19onConstraintReleaseEv
tDd:__Z35getPxVehicleDifferential4WDataMTypePKN5physx27PxVehicleDifferential4WDataE
xt:__ZN9AudioClip7WWWSeekEPvjS0_
FCc:__ZN5physx2Sc15ArticulationSimD2Ev
F_:__ZN15EditorExtension13StaticCleanupEPv
rNe:_m_1009625593_0
DQc:__ZThn4_N5physx5cloth9ClothImplINS0_7SwClothEE15getGpuParticlesEv
HQd:__ZNK5physx16PxBroadPhaseBase10getRegionsEPNS_22PxBroadPhaseRegionInfoEjj
w4:__Z13CameraProjectRK8Vector3fRK10Matrix4x4fS4_RK5RectTIiERS_b
jvh:__Z56RuntimeInvoker_t_887538054_0_t1628762194_0_t1628762194_0PK10MethodInfoPvPS2_
lWa:__Z22CreateMutexLockedStackv
Lxg:_m_1272882503_0
qOf:_m_1787578789_0
nYf:_m_562455864_0
iZd:__ZN5physx7profile8ZoneImplINS_28PxProfileNameProviderForwardEE7releaseEv
xGg:_m_511731714_0
Uia:__ZN9ShaderLab11ShaderStateD2Ev
Iee:__ZN5physx6shdfnd5ArrayIPvNS0_15InlineAllocatorILj256ENS0_19ReflectionAllocatorINS_2Cm5BlockIS2_Lj32EEEEEEEE15growAndPushBackERKS2_
J_:__ZN15EditorExtension15ThreadedCleanupEv
ksh:__Z42RuntimeInvoker_t_887538054_0_t_887538054_0PK10MethodInfoPvPS2_
yFb:__ZN11AssetBundleD2Ev
hOh:__ZL30il2cpp_codegen_raise_exceptionP13t2143823668_0402
$Dh:__Z84RuntimeInvoker_t_887538054_0_t_887538054_0_t_887538054_0_t_887538054_0_t1628762099_0PK10MethodInfoPvPS2_
D9h:_emscripten_longjmp__wrapper
UX:_UNITY_png_write_iTXt
ZMb:__ZNSt3__16__treeINS_12__value_typeI8UnityStr4PPtrI6ObjectEEENS_19__map_value_compareIS2_S6_NS_4lessIS2_EELb1EEENS_9allocatorIS6_EEE7destroyEPNS_11__tree_nodeIS6_PvEE
Psb:__ZN15dense_hashtableINSt3__14pairIK9TextureIDiEES2_N12TextureIdMap20TextureIDHashFunctorEN14dense_hash_mapIS2_iS6_NS0_8equal_toIS2_EE13stl_allocatorIS4_L18MemLabelIdentifier64ELi16EEE9SelectKeyES9_SC_E13set_empty_keyERKS4_
ePa:__ZN19ScriptingInvocationC2E21ScriptingMethodIl2Cpp
Xhh:__Z56t867363288_0_CustomAttributesCacheGenerator_m849531789_0P21CustomAttributesCache
LCc:__ZNK5physx2Sc15ArticulationSim10isSleepingEv
lga:__Z19ScheduleJobInternalR8JobFencePFvPvES1_11JobPriority
sOd:__ZN5physx22NpParticleBaseTemplateINS_16PxParticleSystemENS_16NpParticleSystemEE14setRestOffsetsEjRKNS_16PxStrideIteratorIKjEERKNS4_IKfEE
TLg:_m1717403134_0
CYf:_m445180607_0
RWa:__ZN13FileEntryDataaSERKS_
KR:__ZN6il2cpp2vm5Class6IsEnumEPK8TypeInfo
Xof:_m1290989501_0
u9b:__ZN6prcoreL17RemapGenericFloatI17TexFormatRGBAHalf17TexFormatRGBFloatEEvPKNS_9InnerInfoE
zAh:__Z70RuntimeInvoker_t_887538054_0_t1628762099_0_t_887538054_0_t1628762099_0PK10MethodInfoPvPS2_
kSc:__ZNK5physx5cloth9SwFactory12copyFromHostEPKvS3_PvP11CUstream_st
uXf:_m_177592108_0
iyg:_m_961526469_0
qkg:_m2072004816_0
gLb:__ZN11PreloadDataD2Ev
Tb:invoke_iifi
xXe:_m_1564087365_0
oSg:_m_146162854_0
zib:__ZNSt3__112basic_stringItNS_11char_traitsItEENS_9allocatorItEEE7reserveEj
dld:__ZN5physx2Gu31SinglePersistentContactManifold20refreshContactPointsERKNS_6shdfnd3aos15PsMatTransformVERKNS3_6FloatVES9_
dva:__Z20scripting_object_newP14ScriptingClass
fFg:_m_1256055215_0
Lci:_emscripten_glGetObjectParameterivARB__wrapper
_tc:__ZN5physx7NpScene15getRenderBufferEv
D8e:_m_1148513362_0
Zaa:__ZN15SharedLightData15UpdateTransformERK9Transform
vrf:_m985753324_0
Tne:__ZN13RuntimeStaticI20HardwareInfoReporterE7DestroyEv
DQe:_m1237865483_0
U$g:_m725888730_0_gshared
E1f:_m_1164876119_0
UVf:_m_1500774542_0
_0e:_m_663228825_0
c1:__ZN5Unity9Component8TransferI14SafeBinaryReadEEvRT_
$8f:_m_1065393692_0
JAh:__Z139RuntimeInvoker_t1628762099_0_t_887538054_0_t1628762099_0_t1628762099_0_t1628762099_0_t_887538054_0_t_373034138_0_t271175457_0_t1636693376_0PK10MethodInfoPvPS2_
Qh:_JS_SystemInfo_GetCurrentCanvasHeight
NCf:_m1986959762_0
x3e:_m1951031507_0
NGf:_m1794246055_0
IMe:_m1145701656_0
lGe:_m994385868_0_gshared
Tza:__ZN8Renderer17UpdateSceneHandleEv
U7a:__ZN13EmscriptenWWW23HasDownloadedOrMayBlockEv
lJb:__ZN9GfxDevice16DrawNullGeometryE16GfxPrimitiveTypeii
k9b:__ZN6prcoreL17RemapGenericFloatI14TexFormatRHalf17TexFormatRGBAHalfEEvPKNS_9InnerInfoE
rFf:_m_1501014302_0
Cjg:_m_1079912232_0
Wkf:_m1340356096_0
X$:__ZNK10GameObject23QueryComponentTransformEv
Kfe:__ZN5physx6shdfnd4sortIPvNS0_4LessIS2_EENS0_19ReflectionAllocatorINS_2Sc19ConstraintGroupNodeEEEEEvPT_jRKT0_RKT1_
z0d:__ZN5physx3Pvd17PvdPropertyFilterINS_2Sn17RepXVisitorReaderINS_22PxVehicleWheelsSimDataEEEE27handleExtendedIndexPropertyILj612ES4_NS_17PxVehicleTireDataEKjNS_30PxVehicleTireDataGeneratedInfoEEEvjRKNS_29PxExtendedIndexedPropertyInfoIXT_ET0_T2_T1_EERKT3_
QAb:__Z29StdTemplateConversionFunctionItyEbPvR14SafeBinaryRead
mWb:__Z19TransferField_ArrayI14SafeBinaryRead19Converter_PrimitiveItEEvRK23StaticTransferFieldInfoR31RuntimeSerializationCommandInfoRT0_
Rfd:__ZN5physx2Gu18contactCapsuleMeshERKNS0_13GeometryUnionES3_RKNS_11PxTransformES6_RKfRNS0_5CacheERNS0_13ContactBufferE
VCf:_m_820205632_0
jTa:__Z10ReadStringR8UnityStrRPKhS2_
pIh:__Z56RuntimeInvoker_t_224166001_0_t1628762099_0_t_393459662_0PK10MethodInfoPvPS2_
ata:__ZN9GfxDevice15BeginFrameStatsEv
eZb:__Z16Transfer_BuiltinI8Vector2f17RemapPPtrTransferLb1EEvRK29SerializationCommandArgumentsR31RuntimeSerializationCommandInfo
ZZc:__ZN5physx24PxsParticleSystemBatcherC2ERNS_10PxsContextE
M6f:_m_1414895283_0
smf:_m1058776080_0
QCf:_m363146458_0
a0a:__ZNK25SingleBlockMemoryFileData4SizeEv
N0e:_m_449572364_0
Wfb:__ZN4gles20EnsureTextureCreatedEP7ApiGLESP17RenderSurfaceGLES
bDh:__Z70RuntimeInvoker_t_887538054_0_t_887538054_0_t1628762041_0_t_887538054_0PK10MethodInfoPvPS2_
RFg:_m_698017771_0
ev:__Z32AudioMeasurement_GetTimeConstantff
e5d:__ZN5physx2Sn21RepXVisitorReaderBaseINS_27PxVehicleDifferential4WDataEE8pushNameEPKc
IX:_UNITY_png_compress_IDAT
oXe:_m1242622322_0
Qxe:_m_1657420938_0_gshared
Alb:__ZL27PrepareSceneNodesJobCombineP25ScheduleSceneNodesJobData
Nub:__ZZN8Renderer15InitializeClassEvEN38FunctorImpl_Renderer_kTransformChanged4CallEPviR11MessageData
FUb:__Z22TransferField_NonArrayI14SafeBinaryRead27Converter_SimpleNativeClassI8GUIStyleEEvRK23StaticTransferFieldInfoR31RuntimeSerializationCommandInfoRT0_
ejh:__Z57t867363288_0_CustomAttributesCacheGenerator_m_839276858_0P21CustomAttributesCache
Rcb:__ZN13GfxDeviceGLESD2Ev
cra:__ZN18AsyncUploadManager13StaticDestroyEPv
cng:_m_243476905_0
Lgf:_m349958679_0
yTd:__ZN5physx23NpParticleFluidReadData18setDataAccessFlagsENS_7PxFlagsINS_16PxDataAccessFlag4EnumEhEE
JUa:__ZN6Shader24GetShadowCasterPassToUseEiRi
VRf:_m_1266184782_0
nMh:__ZN16VirtFuncInvoker1IP14t_1238178395_0P13t_756155572_0E6InvokeEjPvS3_
KQ:__ZN6il2cpp2vm5Array7NewFullEP8TypeInfoPiS4_
Vyf:_m497751576_0
D$d:__ZN5physx3Pvd17PvdPropertyFilterINS_2Sn17RepXVisitorWriterINS_17PxVehicleTireDataEEEE14handleAccessorILj599ENS_22PxRepXPropertyAccessorILj599ES4_ffEEEEvRKT0_
Kwg:_m_878220072_0
kIg:_m_854889314_0
Deh:__Z43t968359586_0_CustomAttributesCacheGeneratorP21CustomAttributesCache
jBe:_m_1856064943_0_gshared
nJa:__Z21AddComponentUncheckedR10GameObjectiP14ScriptingClassPNSt3__112basic_stringIcNS3_11char_traitsIcEENS3_9allocatorIcEEEE
byf:_m_1826914784_0
Yge:__ZN5physx6shdfnd5ArrayIPvNS0_15InlineAllocatorILj256ENS0_19ReflectionAllocatorINS_2Sc24ElementInteractionMarkerEEEEEE15growAndPushBackERKS2_
VKe:_m_1711950777_0
nZh:__ZNSt3__17num_putIwNS_19ostreambuf_iteratorIwNS_11char_traitsIwEEEEED0Ev
bFe:_m_1131997775_0_gshared
Spb:__ZNSt3__16__treeINS_12__value_typeINS_12basic_stringIcNS_11char_traitsIcEENS_9allocatorIcEEEEiEENS_19__map_value_compareIS7_S8_26compare_string_insensitiveLb1EEENS5_IS8_EEE15__insert_uniqueERKS8_
VPc:__ZN5physx2Sc8ClothSim18addCollisionConvexEPKNS0_8ShapeSimE
Z5:__ZN12ImageFilters8DoRenderEP13RenderTexturebbbb
m1:__Z24GetManagerPtrFromContexti
fOf:_m1591103357_0
Ese:_m_782356691_0_gshared
qj:_glClearDepthf
Cnb:__ZNSt3__16vectorI16ShadowCasterData13stl_allocatorIS1_L18MemLabelIdentifier2ELi16EEE6assignINS_11__wrap_iterIPS1_EEEENS_9enable_ifIXaasr21__is_forward_iteratorIT_EE5valuesr16is_constructibleIS1_NS_15iterator_traitsISB_E9referenceEEE5valueEvE4typeESB_SB_
y7g:__Z45t_1832202134_0_CustomAttributesCacheGeneratorP21CustomAttributesCache
Xhg:_m_248772488_0
Ina:__ZN19SkinnedMeshRenderer7GetMeshEv
Kga:__ZN19RuntimeSceneManager14GetActiveSceneEv
LId:__ZZN14PhysicsManager15InitializeClassEvEN58FixedUpdatePhysicsResetInterpolatedTransformPositionstruct7ForwardEv
JFf:_m_1715652136_0
Rr:__ZN8Animator13StaticCleanupEPv
eCd:__ZN15AABBTreeOverlapIN5physx2Gu14SphereAABBTestEEclEPNS0_2Sq13PrunerPayloadERKNS4_8AABBTreeERKS2_RNS4_14PrunerCallbackE
cOd:__ZN5physx15NpActorTemplateINS_16PxParticleSystemEE13setActorFlagsENS_7PxFlagsINS_11PxActorFlag4EnumEtEE
yHg:_m_21673721_0
Pze:_m793248331_0_gshared
aja:__ZN9shadertag16GetShaderTagNameEi
Ycc:__ZN14SafeBinaryRead21TransferSTLStyleArrayI13dynamic_arrayI19LightProbeOcclusionLj4EEEEvRT_17TransferMetaFlags
xRa:__ZN19StreamedBinaryWriteILb0EE4InitE24TransferInstructionFlags20BuildTargetSelection
wZe:_m_1741764907_0
vCd:__ZN5physx2Sn17readAllPropertiesINS_22PxVehicleWheelsSimDataEEEvNS_23PxRepXInstantiationArgsERNS_9XmlReaderEPT_RNS_18XmlMemoryAllocatorERNS_12PxCollectionE
Iva:__Z27scripting_class_is_abstractP14ScriptingClass
TVe:_m468855481_0
h5e:_m360409_0
Orb:__ZZN12MeshRenderer15InitializeClassEvEN39FunctorImpl_MeshRenderer_kDidDeleteMesh4CallEPviR11MessageData
oVc:__ZN5physx16PxsBroadPhaseMBPD2Ev
fcc:__ZN20SphericalHarmonicsL28TransferI19StreamedBinaryWriteILb0EEEEvRT_
RMf:_m_1630893288_0
Cua:__ZN9Scripting27BackingArrayFieldForListOfTEP14ScriptingClass
uOf:_m_1880275424_0
vGh:__Z84RuntimeInvoker_t_224166001_0_t_887538054_0_t_306960113_0_t1628762099_0_t1748497654_0PK10MethodInfoPvPS2_
hQ:__ZN6il2cpp5utils6Memory6MallocEj
RSe:_m_1229567758_0
r$:__ZN17GlobalGameManager23VirtualRedirectTransferER13ProxyTransfer
xKa:__ZN14PlayerSettings13StaticCleanupEPv
mae:__ZNK5physx5cloth9ClothImplINS0_7SwClothEE9getFabricEv
Lce:__ZThn4_NK5physx5cloth9ClothImplINS0_7SwClothEE28getNumVirtualParticleWeightsEv
Qaa:__Z20SendCullingCallbacksRK13CullingOutputRK14ShadowCullData
yRe:_m2063042602_0
Tr:__ZN25RuntimeAnimatorController13StaticCleanupEPv
QJc:__ZN5physx2Sc8ShapeSimD0Ev
daa:__ZN14RenderSettings12CleanupClassEv
Oah:__Z43t931068125_0_CustomAttributesCacheGeneratorP21CustomAttributesCache
Qo:FUNCTION_TABLE_iiiiiiiiiiffffii
lta:__ZN9GfxDevice15ImmediateNormalEfff
Qmc:__ZN5physx7NpActor7releaseERNS_7PxActorE
PT:__ZN6il2cpp2vm13MetadataCache25GetMethodInvokerFromIndexEi
oEd:__Z35setPxVehicleSuspensionDataMMaxDroopPN5physx23PxVehicleSuspensionDataEf
Qbh:__Z44t_183329844_0_CustomAttributesCacheGeneratorP21CustomAttributesCache
n4d:__ZN5physx3Pvd17PvdPropertyFilterINS_2Sn17RepXVisitorWriterINS_16PxVehicleDrive4WEEEE14handleAccessorILj671ENS_22PxRepXPropertyAccessorILj671ES4_NS_23PxVehicleDriveSimData4WES9_EEEEvRKT0_
smd:__ZN5Unity5Cloth13StaticCleanupEPv
ZDa:__ZN9Texture3D23VirtualRedirectTransferER14SafeBinaryRead
zaf:_m1033547864_0
E_g:_m_1083856880_0_gshared
TTb:__ZN6HelperI14SafeBinaryRead18TransferField_InfoLb0EE24SerializationFunctionForERKS1_R23StaticTransferFieldInfoPb
Ikh:__Z43t199562185_0_CustomAttributesCacheGeneratorP21CustomAttributesCache
$Wb:__ZN8GUIStyle8TransferI13ProxyTransferEEvRT_
KJe:_m_963439450_0
C7e:_m_1043324541_0
$Nb:__ZN12_GLOBAL__N_1L7SzAllocEPvj
txc:__ZNK5physx15NpParticleFluid2isENS_11PxActorType4EnumE
ICa:__ZN9Texture2D13UploadTextureEb
Xgc:__ZTv0_n12_NSt3__118basic_stringstreamIcNS_11char_traitsIcEENS_9allocatorIcEEED1Ev
vab:__ZN7ApiGLES9MapBufferEjN2gl12BufferTargetEllj
QWe:_m_1420647837_0
mC:__ZN4FMOD6System19setSoftwareChannelsEi
ZXc:__ZN5physx38PxsSolverCreateFinalizeConstraintsTask11runInternalEv
g4h:_bitshift64Lshr
Rwf:_m_1548598420_0
bnf:_m_1618978400_0
qGg:_m_2075006844_0
xWf:_m_472611670_0
i1e:_m417178512_0
I3:__ZN6Camera19UpdateDepthTexturesERK11CullResults
lXd:__ZN5physx2Gu22SupportMapRelativeImplINS0_11ConvexHullVEED0Ev
uah:__Z43t887304649_0_CustomAttributesCacheGeneratorP21CustomAttributesCache
bFd:__Z32getPxVehicleDrive4WMDriveSimDataPKN5physx16PxVehicleDrive4WE
Toc:__ZN5physx18NpArticulationLink15exportExtraDataERNS_22PxSerializationContextE
Ubf:_m1860057402_0
Gxd:__Z11loadAlignedPKfi
oOh:__ZL37il2cpp_codegen_check_mul_overflow_i64xxxx
w5h:dynCall_viiiii
poc:__ZN5physx19NpArticulationJoint20setTargetOrientationERKNS_6PxQuatE
LJh:__Z84RuntimeInvoker_t_887538054_0_t_887538054_0_t1636693376_0_t_887538054_0_t_887538054_0PK10MethodInfoPvPS2_
Z0b:__Z19TransferField_ArrayI19StreamedBinaryWriteILb0EE19Converter_PrimitiveI8Vector4fEEvRK23StaticTransferFieldInfoR31RuntimeSerializationCommandInfoRT0_
dze:_m_1566270075_0_gshared
f0b:__Z65EmitSerializationCommandsForLinearCollectionOfManagedOjbectsFieldI19StreamedBinaryWriteILb0EEEvRK23TransferArrayField_InfoR20SerializationCommandR32SerializationCommandQueueBuilderRP20AllowNameConversions
GIh:__Z41RuntimeInvoker_t_224166001_0_t584480480_0PK10MethodInfoPvPS2_
zmc:__Z16PxInitExtensionsRN5physx9PxPhysicsE
tKb:__ZN14Texture2DArrayD2Ev
THe:_m1505524532_0
Eke:__ZNK5physx2Cm12RenderBuffer8getLinesEv
hQb:__ZNK17IAnimationBinding30CurveAttributeToSerializedPathERKN11UnityEngine9Animation10BoundCurveE
G6d:__ZN5physx16PxVehicleDriveNWD0Ev
iqc:__ZN5physx9NpFactory17registerParticlesEv
Erf:_m_1102783175_0
YS:__ZN6il2cpp2vm5Image21FromTypeNameParseInfoEPK11Il2CppImageRKNS0_17TypeNameParseInfoEb
SBd:__ZN5physx2Gu33MultiplePersistentContactManifold10fromBufferEPh
Uib:__ZNSt3__112__hash_tableIPK19Il2CppGenericMethodN6il2cpp8metadata23Il2CppGenericMethodHashENS5_26Il2CppGenericMethodCompareENS_9allocatorIS3_EEE15__insert_uniqueERKS3_
D_b:__Z26Transfer_UnityEngineObjectI18StreamedBinaryReadILb0EELb1EEvRK29SerializationCommandArgumentsR31RuntimeSerializationCommandInfo
mOb:__ZNSt3__16__treeINS_12__value_typeINS_12basic_stringIcNS_11char_traitsIcEENS_9allocatorIcEEEEjEENS_19__map_value_compareIS7_S8_NS_4lessIS7_EELb1EEE13stl_allocatorIS8_L18MemLabelIdentifier53ELi16EEE12__find_equalIS8_EERPNS_16__tree_node_baseIPvEESM_RKT_
MSh:_isdigit_l
VTe:_m_1675485584_0
_p:__ZN12NavMeshAgent16StaticInitializeEPv
_qh:__Z56t_305506559_0_CustomAttributesCacheGenerator_m_CallStateP21CustomAttributesCache
j_e:_m_1928370802_0
aVc:__ZN3MBP5resetEv
Hkb:__ZN18StreamedBinaryReadILb1EE21TransferSTLStyleArrayINSt3__112basic_stringIcNS2_11char_traitsIcEE13stl_allocatorIcL18MemLabelIdentifier1ELi16EEEEEEvRT_17TransferMetaFlags
dUh:__ZNK10__cxxabiv121__vmi_class_type_info16search_below_dstEPNS_19__dynamic_cast_infoEPKvib
sNd:__ZNK5physx22NpParticleBaseTemplateINS_15PxParticleFluidENS_15NpParticleFluidEE18getProjectionPlaneERNS_6PxVec3ERf
W4d:__ZN5physx2Sn21RepXVisitorReaderBaseINS_30PxVehicleAckermannGeometryDataEE8pushNameEPKc
djd:__ZN5physx2Gu12TriangleMesh18setupMeshInterfaceEv
tH:_il2cpp_class_has_attribute
Cdh:__Z44t_536528549_0_CustomAttributesCacheGeneratorP21CustomAttributesCache
eXe:_m_1500965164_0
Ssb:__ZNSt3__16__treeINS_12__value_typeI18VertexChannelsInfoP17VertexDeclarationEENS_19__map_value_compareIS2_S5_NS_4lessIS2_EELb1EEE13stl_allocatorIS5_L18MemLabelIdentifier13ELi16EEE15__insert_uniqueERKS5_
g7b:__ZN12IFileAdapter5WriteER13FileEntryDatayyPvPy
GRh:__ZN16VirtFuncInvoker2IbP14t_1238178395_0iE6InvokeEjPvS1_i
ure:_m_903494196_0_gshared
o5h:dynCall_viiiiiiiiii
ewc:__ZN5physx7NpShape23setSimulationFilterDataERKNS_12PxFilterDataE
MRb:__ZNSt3__16vectorI10RectOffset13stl_allocatorIS1_L18MemLabelIdentifier1ELi16EEE6assignINS_11__wrap_iterIPS1_EEEENS_9enable_ifIXaasr21__is_forward_iteratorIT_EE5valuesr16is_constructibleIS1_NS_15iterator_traitsISB_E9referenceEEE5valueEvE4typeESB_SB_
h1b:__ZN12NativeBufferI19Converter_PrimitiveIdEE15SetupForWritingER9ArrayInfo
xch:__Z44t_663383770_0_CustomAttributesCacheGeneratorP21CustomAttributesCache
Cke:__ZNK5physx2Cm12RenderBuffer9getPointsEv
wxd:__ZN12_GLOBAL__N_114generateSimd4fI8Scalar4fPKS1_EEvPT_RKT0_j
Txd:__Z3maxRK8Scalar4fS1_
M$b:__Z16Transfer_BuiltinI8Vector4f19StreamedBinaryWriteILb0EELb0EEvRK29SerializationCommandArgumentsR31RuntimeSerializationCommandInfo
voh:__Z43t608632025_0_CustomAttributesCacheGeneratorP21CustomAttributesCache
By:_FMOD_Memory_Initialize
KZa:__ZN21ArchiveStorageCreator11StoreStreamEb
C9g:__Z44t1507073714_0_CustomAttributesCacheGeneratorP21CustomAttributesCache
rnb:__ZL21CullDynamicObjectsJobP14CullingJobDataj
bVe:_m_618181317_0
sGe:_m_31561679_0_gshared
HKb:__ZN9TransformD2Ev
M1h:__ZNKSt3__18numpunctIwE11do_groupingEv
j1:__ZN14ManagerContext17InitializeClassesEv
pIf:_m_1502365860_0
P2b:__Z14resize_trimmedINSt3__16vectorI8UnityStrNS0_9allocatorIS2_EEEEEvRT_j
Zeb:__ZN13GfxDeviceGLES11DrawBuffersEP9GfxBufferPK18VertexStreamSourceiPK16DrawBuffersRangeiP17VertexDeclarationRK14ChannelAssigns
vJa:__Z21SendMessageToEveryone17MessageIdentifier11MessageData
iRb:__ZN18StreamedBinaryReadILb1EE21TransferSTLStyleArrayI31ArrayOfManagedObjectsTransfererEEvRT_17TransferMetaFlags
Rqc:__ZN5physx10NpMaterial14onRefCountZeroEv
ked:__ZN5physx13GuMeshFactory14addHeightFieldEPNS_2Gu11HeightFieldEb
Evd:__ZN5physx6shdfnd8PoolBaseINS_2Cm5BlockIhLj128EEENS0_19ReflectionAllocatorIS4_EEE12allocateSlabEv
Pzc:__ZN5physx7NpCloth26setCentrifugalInertiaScaleENS_6PxVec3E
Ezb:__ZNSt3__16__treeINS_12__value_typeINS_4pairIPcS3_EENS_3setIS3_15smaller_cstringNS_9allocatorIS3_EEEEEENS_19__map_value_compareIS4_SA_20smaller_cstring_pairLb1EEENS7_ISA_EEE7destroyEPNS_11__tree_nodeISA_PvEE
bAd:__ZN5physx11PxcPoolListINS_17PxsContactManagerENS_10PxsContextEE7destroyEv
J_e:_m_556821117_0
HDc:__ZN5physx2Sc7BodySim24notifyAddSpatialVelocityEv
R7g:__Z44t_379521997_0_CustomAttributesCacheGeneratorP21CustomAttributesCache
Gif:_m1358618172_0
Ibf:_m_193151600_0
t4e:_m_800212289_0
Z9g:__Z43t697854062_0_CustomAttributesCacheGeneratorP21CustomAttributesCache
RLa:__Z23TransferScriptingObjectI13ProxyTransferEvRT_P15ScriptingObjectP14ScriptingClassPK15MonoScriptCache
RCg:_m_1589539663_0
Mzb:__ZNSt3__16vectorINS_4pairIiiEE13stl_allocatorIS2_L18MemLabelIdentifier36ELi16EEE6insertENS_11__wrap_iterIPKS2_EERS8_
_Ac:__ZN5physx13NpClothFabric4loadERKNS_17PxClothFabricDescE
tB:__ZN4FMOD7Channel11getUserDataEPPv
Buf:_m852949524_0
Kzg:_m1037401021_0
_bb:__ZN4gles14UseGLSLProgramER15DeviceStateGLESjbi
G9f:_m_2127501484_0
dn:_JS_Sound_SetPitch
bI:_il2cpp_runtime_invoke_convert_args
BIf:_m_2024461220_0
yDd:__Z44setPxVehicleAckermannGeometryDataMFrontWidthPN5physx30PxVehicleAckermannGeometryDataEf
nL:__ZN6il2cpp6icalls8mscorlib6System2IO6MonoIO11GetFileStatEP12Il2CppStringPNS3_8FileStatEPi
Ysc:__ZN5physx13NpRigidStaticD0Ev
yaa:__Z25CalculateShadowCasterCullbPK5PlaneRK10Matrix4x4fRK8Vector3fff9LightTypeS7_R16ShadowCasterCullPKb
zrg:_m_85901_0
O_d:__ZNK5physx14PxVehicleDrive8isKindOfEPKc
PG:_il2cpp_get_corlib
jfi:___ctype_b_loc__wrapper
jqh:__Z90t_184308134_0_CustomAttributesCacheGenerator_t_184308134_0_m423373689_0_Arg2_ParameterInfoP21CustomAttributesCache
OYe:_m_861292947_0
stg:_m1196531453_0
E3h:__ZNSt3__127__num_get_unsigned_integralIyEET_PKcS3_Rji
Dcc:__ZN11Tetrahedron8TransferI19StreamedBinaryWriteILb0EEEEvRT_
WAc:__ZN5physx13NpClothFabric14onRefCountZeroEv
LZb:__Z16Transfer_BuiltinIj18StreamedBinaryReadILb0EELb0EEvRK29SerializationCommandArgumentsR31RuntimeSerializationCommandInfo
hKe:_m1998786226_0
UOd:__ZNK5physx22NpParticleBaseTemplateINS_16PxParticleSystemENS_16NpParticleSystemEE11getGridSizeEv
rF:_GC_freehblk
rVb:__ZN14SafeBinaryRead21TransferSTLStyleArrayINSt3__16vectorI10RectOffset13stl_allocatorIS3_L18MemLabelIdentifier1ELi16EEEEEEvRT_17TransferMetaFlags
TMg:_m846097640_0
uQa:__ZN9Scripting35DestroyObjectFromScriptingImmediateEP6Objectb
Zog:_m1458390568_0
uig:_m333377414_0
Mfe:__ZNK5physx2Cm12DelegateTaskINS_2Sc5SceneEXadL_ZNS3_11collideStepEPNS_10PxBaseTaskEEEE7getNameEv
b0d:__ZN5physx3Pvd17PvdPropertyFilterINS_2Sn17RepXVisitorWriterINS_23PxVehicleSuspensionDataEEEE14handleAccessorILj588ENS_22PxRepXPropertyAccessorILj588ES4_ffEEEEvRKT0_
nff:_m_56363908_0
Wc:_emscripten_glTexParameteriv
fVf:_m766646867_0
Au:__ZN13AudioListener12AddToManagerEv
Utg:_m_1823446409_0
wfd:__ZN5physx2Gu23computePlane_CapsuleMTDERKNS_7PxPlaneERKNS0_7CapsuleERNS_10PxSweepHitE
ROg:_m_277728190_0
Knb:__ZN13dynamic_arrayI17CullingGroupEventLj4EE7reserveEj
YVd:__ZThn4_N16RayRTreeCallbackILi0ELb1EED0Ev
l7:__ZN28LightProbeProxyVolumeManager16BlendLightProbesEP21LightProbeProxyVolume
o1c:__ZN5physx22PxcPCMContactSphereBoxERKNS_2Gu13GeometryUnionES3_RKNS_11PxTransformES6_RKfRNS_10PxcNpCacheERNS0_13ContactBufferE
wya:__Z30RegisterClass_LightmapSettingsv
Cub:__ZN15QualitySettings8TransferI14SafeBinaryReadEEvRT_
Qyh:__Z43RuntimeInvoker_t1762357312_0_t_1047952454_0PK10MethodInfoPvPS2_
N$b:__Z16Transfer_BuiltinI5RectTIfE19StreamedBinaryWriteILb0EELb0EEvRK29SerializationCommandArgumentsR31RuntimeSerializationCommandInfo
OPd:__ZThn8_N5physx2Sc35ParticleElementRbElementInteraction10initializeEv
kBh:__Z42RuntimeInvoker_t_818288618_0_t1628762099_0PK10MethodInfoPvPS2_
BHc:__ZN5physx2Sc5Scene12beforeSolverEv
yJc:__ZThn8_N5physx2Sc19ShapeInstancePairLL10initializeEv
a$b:__Z19TransferField_ArrayI18StreamedBinaryReadILb0EE19Converter_PrimitiveI8Vector4fEEvRK23StaticTransferFieldInfoR31RuntimeSerializationCommandInfoRT0_
bGa:__ZN12InputManager13RegisterClassEv
eTa:__ZN14SerializedFile10ReadObjectEx18ObjectCreationModebPPK8TypeTreePbR6Object
g_g:_m793080697_0_gshared
y0e:_m331703276_0
mGb:__ZNK12BaseRenderer15GetSortingFudgeEv
dkb:__ZN14dynamic_bitset6resizeEjb
bqf:_m_407527634_0
VHb:__ZN9GfxDevice34SetStencilRefWhenStencilWasSkippedEi
gZd:__ZNK5physx7profile8ZoneImplINS_28PxProfileNameProviderForwardEE10hasClientsEv
mb:invoke_fi
gM:__ZN6il2cpp6icalls8mscorlib6System10Reflection4Emit11TypeBuilder20create_runtime_classEP27Il2CppReflectionTypeBuilderS7_
Alh:__Z45t_1270038473_0_CustomAttributesCacheGeneratorP21CustomAttributesCache
pKe:_m_1976107228_0
hc:invoke_ff
xuh:__Z42RuntimeInvoker_t_738719206_0_t1458036598_0PK10MethodInfoPvPS2_
ytf:_m1894985771_0
uNc:__ZNK5physx2Sc9ClothCore19getVirtualParticlesEPj
xd:_emscripten_glVertexAttrib3f
RHh:__Z42RuntimeInvoker_t_224166001_0_t_456977453_0PK10MethodInfoPvPS2_
oce:__ZThn4_N5physx5cloth9ClothImplINS0_7SwClothEE18setSolverFrequencyEf
JOc:__ZNK5physx2Sc9ClothCore18getNbRestPositionsEv
dDg:_m881535614_0
ypg:_m1355368637_0
N7h:_emscripten_glDrawRangeElements__wrapper
Y2b:__ZN14SafeBinaryRead21TransferSTLStyleArrayI10vector_mapIi7Hash128NSt3__14lessIiEENS3_9allocatorINS3_4pairIiS2_EEEEEEEvRT_17TransferMetaFlags
NVf:_m1588180428_0
l4b:__ZN13dynamic_arrayI33EnlightenTerrainChunksInformationLj4EE7reserveEj
Dtc:__ZN5physx7NpScene12removeActorsEPKPNS_7PxActorEjb
o5a:__Z31MonoBehaviour_CUSTOM_IsInvokingP15ScriptingObjectP15ScriptingString
vQf:_m1861978568_0
UMb:__ZL18ProgramUniform3uivPK7ApiGLESjiihPKv
L_a:__ZN16MemoryFileSystem4SeekER13FileEntryDatax10FileOrigin
Uxa:__ZN5Image8SetImageEii13TextureFormatb
B1:__ZN17MessageIdentifier21GetRegisteredMessagesEv
$Ia:__ZN14CachingManager15GetCurrentCacheEv
E3f:_m1167485812_0
Ggb:__GLOBAL__sub_I_Image_cpp
F2g:__Z59t_887538054_0_CustomAttributesCacheGenerator_m_1267681652_0P21CustomAttributesCache
dZc:__ZN5physx16PxsIslandManager17cleanupEdgeEventsEv
fBh:__Z42RuntimeInvoker_t_224738991_0_t1628762194_0PK10MethodInfoPvPS2_
ILb:__ZN17FileSystemHandler8SetFlagsER13FileEntryDatajj
GAc:__ZNK5physx7NpCloth19getPreviousTimeStepEv
f0c:__ZN5physx35solveFriction_BStaticBlockWriteBackEPKNS_23PxcSolverConstraintDescEjRNS_16PxcSolverContextEPNS_25PxcThresholdStreamElementEjPi
k9a:__ZN7ApiGLES15InitDebugOutputEv
lzb:__ZN13sorted_vectorINSt3__14pairIP14ScriptingClassiEEN10vector_mapIS3_iNS0_4lessIS3_EENS0_9allocatorIS4_EEE13value_compareES9_E21sort_clear_duplicatesEv
zVe:_m_15048302_0
i2c:__Z27PxcDisplayContactCacheStatsv
Trh:__Z42RuntimeInvoker_t_738719206_0_t_887538054_0PK10MethodInfoPvPS2_
Ohc:__ZN13RuntimeStaticINSt3__13mapINS0_12basic_stringIcNS0_11char_traitsIcEENS0_9allocatorIcEEEEPvNS0_4lessIS7_EENS5_INS0_4pairIKS7_S8_EEEEEEE13StaticDestroyES8_
bwh:__Z42RuntimeInvoker_t_224751869_0_t1628762099_0PK10MethodInfoPvPS2_
m4b:__ZN33EnlightenTerrainChunksInformation8TransferI18StreamedBinaryReadILb1EEEEvRT_
Rca:__ZNK25RenderPrePassObjectSorterclERK16RenderObjectDataS2_
_Qb:__Z22TransferField_NonArrayI18StreamedBinaryReadILb1EE27Converter_SimpleNativeClassI8GUIStyleEEvRK23StaticTransferFieldInfoR31RuntimeSerializationCommandInfoRT0_
bGd:__ZL17computeMeshBoundsRKN5physx11PxTransformEPKNS_9PxBounds3ERKNS_11PxMeshScaleERNS_6PxVec3ESA_
xe:_Mix_LoadWAV_RW
FMh:__ZN16VirtFuncInvoker2IbibE6InvokeEjPvib
Emh:__Z57t_19408649_0_CustomAttributesCacheGenerator_m1195898850_0P21CustomAttributesCache
VKc:__ZN5physx2Sc19ParticlePacketShape20setInteractionsDirtyENS0_15CoreInteraction9DirtyFlagE
kSg:_m_1394951814_0
uCe:_m_1844242109_0_gshared
Zy:__ZN4FMOD13ChannelGroupI7setMuteEb
_Zf:_m_947340304_0
zma:__ZN15DirectorManager14ConnectionPool8AllocateEi
mQd:__ZN5physx5cloth8SwSolver19StartSimulationTaskD0Ev
lVc:__ZN3MBP17prepareOverlapsMTEv
pb:invoke_viiiiiiii
Sze:_m_1848813803_0_gshared
Eig:_m_508785009_0
Ghb:__ZN6il2cpp2gcL12alloc_handleEPNS0_10HandleDataEP12Il2CppObjectb
XXh:__ZThn8_NSt3__114basic_iostreamIcNS_11char_traitsIcEEED0Ev
N4:__Z13InitIndexListR9IndexListj
AX:_UNITY_png_write_flush
h0g:_m2013907594_0_gshared
MBb:__ZL16ReadTypeTreeImplILb1EEbR8TypeTreeRK16TypeTreeIteratorRPKhS6_i
ENd:__ZN5physx22NpParticleBaseTemplateINS_15PxParticleFluidENS_15NpParticleFluidEE14resetFilteringEv
L1b:__ZNSt3__127__insertion_sort_incompleteIRN15ResourceManager10Dependency6SorterEPS2_EEbT0_S6_T_
Jei:b96
dwe:_m434290508_0_gshared
njf:_m1888400594_0
on:_emscripten_glDeleteVertexArrays
tfb:__ZN13GfxDeviceGLES17SetComputeUniformE12ObjectHandleI18ComputeProgram_TagPvER18ComputeShaderParamjPKv
_ad:__ZN5physx17ConvexMeshBuilderC2Ev
DOh:__ZN16VirtFuncInvoker1IP14t_1791715840_0S1_E6InvokeEjPvS1_
fJd:__ZN8IRaycast16ComputeBatchAABBI14BatchedOverlapEE10MinMaxAABBRK13dynamic_arrayIT_Xsr11AlignOfTypeIS4_EE5alignEE
Edi:_emscripten_glValidateProgram__wrapper
QRa:__ZN25PathNamePersistentManager22InsertPathNameInternalERKNSt3__112basic_stringIcNS0_11char_traitsIcEENS0_9allocatorIcEEEEb
hHf:_pinvoke_delegate_wrapper_t_498956729_0
Co:FUNCTION_TABLE_iiiiiifiif
qTc:__ZN5physx20PxvRegisterParticlesEv
wTe:_m927762229_0
Lnc:__ZN5physx14NpArticulation17setSleepThresholdEf
C3a:__Z39GetDefaultApplicationIdentifierForCachev
O$:__ZN10GameObject18UpdateActiveGONodeEv
KWd:__ZNK5physx2Gu29EPASupportMapPairRelativeImplINS0_8CapsuleVES2_E6getDirEv
RWc:__ZN5physx17PxsContactManager6setCCDEb
vUg:_m_817084949_0
dS:__ZN6il2cpp2vm9Exception20GetArgumentExceptionEPKcS3_
hig:_m_1351769653_0
qdg:_m_1595935605_0
pnd:__ZN5Unity10FixedJoint16StaticInitializeEPv
Obi:_glDrawArrays__wrapper
ow:__ZN11AudioSource31UpdateEffectVirtualizationStateEb
kHg:_m566499295_0
kbd:__ZN5physx28computeVolumeIntegralsEberlyERKNS_20PxSimpleTriangleMeshEfRNS_11PxIntegralsERKNS_6PxVec3E
M5d:__ZNK5physx26PxSerializerDefaultAdapterINS_18PxVehicleDriveTankEE19getConcreteTypeNameEv
$mh:__Z56t97885198_0_CustomAttributesCacheGenerator_m_838940752_0P21CustomAttributesCache
rVh:_free
llf:_m1849098567_0
AWh:__ZNSt3__112basic_stringIcNS_11char_traitsIcEENS_9allocatorIcEEE6__initEPKcjj
WS:__ZN6il2cpp2vm5Image11GetNumTypesEPK11Il2CppImage
T5:__ZN12ImageFilters17RemoveImageFilterERK11ImageFilter
JWf:_m1344739026_0
Mrc:__ZNK5physx9NpPhysics15getHeightFieldsEPPNS_13PxHeightFieldEjj
h$e:_m_410967460_0
KDg:_m1882292988_0
oya:__ZNK16LightmapSettings28GetNonInterpolatedLightProbeEiR20SphericalHarmonicsL2
Wqb:__ZZN15DirectorManager15InitializeClassEvEN39PostLateUpdateDirectorRenderImagestruct7ForwardEv
txg:_m1611173913_0
jNg:_m685144038_0
dOe:_m1725069988_0
J$c:__ZN5physx22solve1D4Block_ConcludeEPKNS_23PxcSolverConstraintDescEjRNS_16PxcSolverContextE
DYb:__ZL26Transfer_SimpleNativeClassI17RemapPPtrTransfer17AnimationCurveTplIfELb0EEvRK29SerializationCommandArgumentsR31RuntimeSerializationCommandInfo
Poe:_m771996397_0_gshared
n6c:__ZN5physx26resetVehicleToleranceScaleEv
Kbh:__Z42t84987824_0_CustomAttributesCacheGeneratorP21CustomAttributesCache
pn:_glDeleteTransformFeedbacks
ckb:__ZN6Object17IsDerivedFromImpl7Builder3AddERKNSt3__13mapIiP4RTTINS2_4lessIiEE13stl_allocatorINS2_4pairIKiS5_EEL18MemLabelIdentifier6ELi16EEEEj
aQ:__ZN6il2cpp2os4Time31GetTicks100NanosecondsMonotonicEv
_vg:_m113825050_0
IS:__ZN6il2cpp2vm12GenericClass12SetupMethodsEP8TypeInfo
pnh:__Z44t_748028625_0_CustomAttributesCacheGeneratorP21CustomAttributesCache
YTh:__ZNK10__cxxabiv117__class_type_info24process_found_base_classEPNS_19__dynamic_cast_infoEPvi
Ugb:__GLOBAL__sub_I_ImageFilters_cpp
aof:_m_380574155_0
gYc:__ZN5physx31collideWithCapsuleNonContinuousERNS_19PxsParticleCollDataERKNS_6PxVec3ERKfS6_S6_
RNh:__ZN16VirtFuncInvoker1IP14t_1238178395_0P14t_1225802637_0E6InvokeEjPvS3_
vWc:__ZN5physx10PxsCCDPair16sweepEstimateToiEv
oWb:__ZL12InvokeMethodI13ProxyTransferEvRK29SerializationCommandArgumentsR31RuntimeSerializationCommandInfo
HX:_UNITY_png_write_PLTE
yBh:__Z42RuntimeInvoker_t1628762041_0_t1628762099_0PK10MethodInfoPvPS2_
SGa:__ZN11TimeManager23VirtualRedirectTransferER13ProxyTransfer
uKh:__ZN21InterfaceFuncInvoker1IbP13t_887538054_0E6InvokeEjP8TypeInfoPvS1_
SDf:_t_1624523973_0_marshal_back
WSb:__Z14resize_trimmedINSt3__16vectorI8GUIStyle13stl_allocatorIS2_L18MemLabelIdentifier1ELi16EEEEEvRT_j
gQd:__ZN5physx14PxLightCpuTaskD2Ev
jzg:_m423542328_0
odg:_m787212651_0
lgc:__ZNSt3__112__hash_tableIPK17Il2CppGenericInstN6il2cpp8metadata21Il2CppGenericInstHashENS5_24Il2CppGenericInstCompareENS_9allocatorIS3_EEE8__rehashEj
LG:_il2cpp_init
Cjc:__ZN13SpringJoint2D16StaticInitializeEPv
_bc:__ZNSt3__16vectorI20ShadowCasterPartData13stl_allocatorIS1_L18MemLabelIdentifier2ELi16EEE21__push_back_slow_pathIKS1_EEvRT_
XI:__ZN6il2cpp6icalls8mscorlib6System9Activator22CreateInstanceInternalEP20Il2CppReflectionType
Oxh:__Z28RuntimeInvoker_t_766435453_0PK10MethodInfoPvPS2_
Opg:_m_90023821_0
r5e:_m523653122_0
Sfh:__Z56t943011539_0_CustomAttributesCacheGenerator_m621045366_0P21CustomAttributesCache
Zma:__ZN13SpeedTreeWind7AdvanceEbd
yyd:__ZN5physx5cloth12horizontalOrE8Scalar4f
nJc:__ZNK5physx2Sc9ShapeCore10getPxShapeEv
ipc:__ZN5physx18NpArticulationLink11clearTorqueENS_11PxForceMode4EnumE
G6g:__Z44t_960445905_0_CustomAttributesCacheGeneratorP21CustomAttributesCache
zkc:__ZNK5physx3Cct17CapsuleController15getFootPositionEv
H3f:_m_1459788733_0
X3b:__ZN13ProxyTransfer21TransferSTLStyleArrayINSt3__16vectorIN15QualitySettings14QualitySettingENS1_9allocatorIS4_EEEEEEvRT_17TransferMetaFlags
Qnd:__ZN12MeshCollider23VirtualRedirectTransferER14SafeBinaryRead
RPc:__ZN5physx2Sc8ClothSim17addCollisionPlaneEPKNS0_8ShapeSimE
aqb:__ZNSt3__16vectorIN9ShaderLab14ParserPropertyENS_9allocatorIS2_EEE6assignIPS2_EENS_9enable_ifIXaasr21__is_forward_iteratorIT_EE5valuesr16is_constructibleIS2_NS_15iterator_traitsIS9_E9referenceEEE5valueEvE4typeES9_S9_
ey:__ZN12SoundManagerC2Ev
TCe:_m_1182162804_0_gshared
tvc:__ZNK5physx7NpScene32getContactReportStreamBufferSizeEv
eda:__Z23AddRenderLoopTempBufferP10RenderLoop24BuiltinRenderTextureTypeP13RenderTexture
Ktd:__ZN10ScSceneFnsIN5physx3Scb4BodyEE6removeERNS0_2Sc5SceneERS2_b
mjf:_m1995312370_0
vp:FUNCTION_TABLE_fidi
Ici:_emscripten_glGetShaderiv__wrapper
ijc:__ZN7Joint2D16StaticInitializeEPv
qog:_m_2066448516_0
n4a:__Z23Gradient_CUSTOM_CleanupP15ScriptingObject
WOb:__ZN18UnityPropertySheet11UnityTexEnv8TransferI19StreamedBinaryWriteILb0EEEEvRT_
_pd:__ZNK9Rigidbody11GetRotationEv
Eje:__ZN16PxOverflowBufferIN5physx10PxSweepHitEE13finalizeQueryEv
xG:_GC_make_descriptor
jve:_m1278074762_0_gshared
Qnc:__ZNK5physx14NpArticulation14getWakeCounterEv
Bgf:_m_286138869_0
tKh:__ZN21InterfaceFuncInvoker0IP13t_887538054_0E6InvokeEjP8TypeInfoPv
OC:__ZN14AudioBehaviour7PRODUCEE18MemLabelIdentifier18ObjectCreationMode
oAh:__Z27RuntimeInvoker_t305282597_0PK10MethodInfoPvPS2_
gqd:__ZN14SphereCollider16StaticInitializeEPv
fjf:_m_335628264_0
NB:__ZN4FMOD3DSP8getInputEiPPS0_PPNS_13DSPConnectionE
Eve:_m592783249_0_gshared
$g:_ceil
LD:__ZN13AudioListenerD2Ev
YYf:_m2078305481_0
G3c:__ZN5physx2Sq8AABBTree7releaseEv
T8a:__ZNK9DebugGLES19ProgramDeleteStatusEj
ZIe:_m_439283948_0
$Pc:__ZN5physx2Sc8ClothSim20clearCollisionShapesEv
gD:__ZN12AudioManager8TransferI13ProxyTransferEEvRT_
Fqg:_m_2131393678_0
wYf:_m_625827409_0
w$c:__ZN5physx20solveConcludeContactERKNS_23PxcSolverConstraintDescERNS_16PxcSolverContextE
oEb:__ZL8MainLoopv
qaf:_m839662857_0
Ch:__scanString
Ype:_m1022211391_0_gshared
RXh:__ZTv0_n12_NSt3__113basic_ostreamIwNS_11char_traitsIwEEED0Ev
EZf:_m_2128246815_0
dVd:__ZN25CapsuleTraceSegmentReportD0Ev
VKd:__ZNK5physx19NpRigidBodyTemplateINS_18PxArticulationLinkEE17getLinearVelocityEv
nwf:_m_206981773_0
tQg:_m_515345498_0
MHb:__ZThn32_N12MeshRendererD1Ev
bBa:__ZN13RenderTexture23VirtualRedirectTransferER19StreamedBinaryWriteILb0EE
$ja:__ZN9ShaderLab16ParserProperties16AddRangePropertyEPKcS2_RKNSt3__16vectorINS3_12basic_stringIcNS3_11char_traitsIcEENS3_9allocatorIcEEEENS8_ISA_EEEEfff
wsh:__Z84RuntimeInvoker_t_19515315_0_t_887538054_0_t1636693376_0_t_1425457070_0_t2034024306_0PK10MethodInfoPvPS2_
Drh:__Z42RuntimeInvoker_t1628762099_0_t_887538054_0PK10MethodInfoPvPS2_
Wh:___cxa_guard_acquire
ing:_m_426386339_0
zEa:__ZN9TransformC2E18MemLabelIdentifier18ObjectCreationMode
_h:_truncate
$6g:__Z67t1798929758_0_CustomAttributesCacheGenerator_U3CU3Ef__switchU24map2P21CustomAttributesCache
Ufc:__ZNSt3__112__hash_tableINS_17__hash_value_typeINS_4pairIPK9EventInfoP8TypeInfoEEP21Il2CppReflectionEventEENS_22__unordered_map_hasherIS8_SB_17ReflectionMapHashIS8_ELb1EEENS_21__unordered_map_equalIS8_SB_19ReflectionMapEqualsIS8_ELb1EEEN6il2cpp2gc9AllocatorISB_EEE6rehashEj
ifh:__Z43t591714030_0_CustomAttributesCacheGeneratorP21CustomAttributesCache
Iza:__ZN8Renderer21RendererBecameVisibleEv
Gze:_m_1855906668_0_gshared
fib:__ZNSt3__16vectorIN6il2cpp2os11PollRequestENS_9allocatorIS3_EEE21__push_back_slow_pathIKS3_EEvRT_
uyf:_m845833267_0
d7e:_m1919164478_0
w2a:__ZN10MemoryPool16StaticInitializeEPv
AJh:__Z26RuntimeInvoker_t63500041_0PK10MethodInfoPvPS2_
LYd:__ZZ27sweepCCTBox_HeightFieldGeomRKN5physx10PxGeometryERKNS_11PxTransformERKNS_2Gu3BoxERKNS_6PxVec3EfRNS_10PxSweepHitENS_7PxFlagsINS_9PxHitFlag4EnumEtEEfEN11LocalReportD0Ev
jZh:__ZNSt3__19__num_putIcE23__widen_and_group_floatEPcS2_S2_S2_RS2_S3_RKNS_6localeE
mYd:__ZN43CapsuleHeightfieldContactGenerationCallbackD0Ev
toe:_m_50592862_0_gshared
Y:Math_atan
F_e:_m194879283_0
MOc:__ZN5physx2Sc9ClothCore21setStiffnessFrequencyEf
Ht:__ZNK10SampleClip11GetResourceEv
YBh:__Z43RuntimeInvoker_t_738719148_0_t_1190127860_0PK10MethodInfoPvPS2_
QZb:__ZL26Transfer_SimpleNativeClassI18StreamedBinaryReadILb0EE8GUIStyleLb0EEvRK29SerializationCommandArgumentsR31RuntimeSerializationCommandInfo
P$b:__Z16Transfer_BuiltinI10Matrix4x4f19StreamedBinaryWriteILb0EELb0EEvRK29SerializationCommandArgumentsR31RuntimeSerializationCommandInfo
Gpg:_m93014511_0
TLd:__ZN5physx19NpRigidBodyTemplateINS_14PxRigidDynamicEE7setMassEf
Cqd:__GLOBAL__sub_I_CmEventProfiler_cpp
Hde:__ZN13Simd4iFactoryIRKiEC2ES1_
cHb:__ZN13BaseAllocator13ThreadCleanupEv
PRd:__ZN5physx6shdfnd10Foundation19AlignCheckAllocatorD0Ev
pFe:_m2023196417_0_gshared
iCc:__ZN5physx2Sc21ArticulationJointCore17setTargetVelocityERKNS_6PxVec3E
rQh:__ZL15CastclassSealedP13t_887538054_0P8TypeInfo674
Whb:__ZN6il2cpp6icalls8mscorlib6SystemL16GetEventFromTypeINS_5utils10functional6FilterINSt3__112basic_stringIcNS7_11char_traitsIcEENS7_9allocatorIcEEEENS4_11StringUtils21CaseSensitiveComparerEEEEEP21Il2CppReflectionEventP8TypeInfoSK_iRKT_
rVd:__ZN5physx23transformBoxOrthonormalERKNS_2Gu3BoxERKNS_11PxTransformE
lcd:__ZN5physx6shdfnd10Foundation11incRefCountEv
LYa:__ZNK17ArchiveFileSystem8IsHiddenERK13FileEntryData
Oi:_JS_Cursor_SetCursorString
jfd:__ZN5physx11readIndicesEjjPjRNS_13PxInputStreamEb
qNc:__ZN5physx2Sc9ClothCore14updateBulkDataERNS0_13ClothBulkDataE
D2b:__ZN13ProxyTransfer8TransferINSt3__16vectorIN30RuntimeInitializeOnLoadManager9ClassInfoE13stl_allocatorIS4_L18MemLabelIdentifier11ELi16EEEEEEvRT_PKc17TransferMetaFlags
RHg:_m_1793657461_0
Udc:__ZN4PPtrI23ShaderVariantCollectionE8TransferI14SafeBinaryReadEEvRT_
HTb:__ZNSt3__16vectorIh13stl_allocatorIhL18MemLabelIdentifier1ELi16EEE6assignINS_11__wrap_iterIPhEEEENS_9enable_ifIXaasr21__is_forward_iteratorIT_EE5valuesr16is_constructibleIhNS_15iterator_traitsISA_E9referenceEEE5valueEvE4typeESA_SA_
gE:__ZN11AudioModule27IsFormatSupportedByPlatformEPKc
O8f:_m_535691071_0
GJf:_m1878432947_0
Pwb:__ZNSt3__16__treeINS_12basic_stringIcNS_11char_traitsIcEENS_9allocatorIcEEEENS_4lessIS6_EENS4_IS6_EEE12__find_equalIS6_EERPNS_16__tree_node_baseIPvEESG_RKT_
I9d:__ZN5physx17PxsCCDAdvanceTask11runInternalEv
VNe:_m1481428161_0
jxb:__ZN15dense_hashtableINSt3__14pairIKiiEEi21InstanceIDHashFunctorN14dense_hash_mapIiiS4_NS0_8equal_toIiEE13stl_allocatorIS3_L18MemLabelIdentifier1ELi16EEE9SelectKeyES7_SA_E14squash_deletedEv
I4a:__Z48Register_UnityEngine_AsyncOperation_set_priorityv
uCa:__ZN9Texture2D5ResetEv
bDe:_m_956718106_0_gshared
Yla:__ZNK25ThreadsafeLinearAllocator22GetAllocatedMemorySizeEv
Ama:__ZN15DirectorManager14ConnectionPool12SwitchBucketEP14ConnectionList
KEa:__ZN9Transform23BuildTransformHierarchyERS_
Clh:__Z90t969554268_0_CustomAttributesCacheGenerator_t969554268_0____CertificatePolicy_PropertyInfoP21CustomAttributesCache
go:FUNCTION_TABLE_vifiiiiiiiiiiiii
dOc:__ZN5physx2Sc9ClothCore19addCollisionCapsuleEjj
ea:Math_fround
cea:__ZN9Behaviour13StaticCleanupEPv
aFf:_m_1963820972_0
X3a:__Z72Register_UnityEngine_AssetBundleCreateRequest_DisableCompatibilityChecksv
VMb:__ZL18ProgramUniform4uivPK7ApiGLESjiihPKv
Elb:__ZNSt3__16vectorIfNS_9allocatorIfEEE21__push_back_slow_pathIKfEEvRT_
akf:_m_290373155_0
hfc:__ZNSt3__16__treeINS_12__value_typeI8UnityStrN11AssetBundle9AssetInfoEEENS_19__map_value_compareIS2_S5_NS_4lessIS2_EELb1EEENS_9allocatorIS5_EEE14__insert_multiERKS5_
OXb:__Z13TransferFieldI13ProxyTransferLb1E19Converter_PrimitiveIfEEvRK23StaticTransferFieldInfoR31RuntimeSerializationCommandInfoRT1_
dmb:__ZN5Light8TransferI18StreamedBinaryReadILb1EEEEvRT_
d1h:__ZNKSt3__17codecvtIwc11__mbstate_tE5do_inERS1_PKcS5_RS5_PwS7_RS7_
lDd:__Z49getPxVehicleDifferential4WDataMRearLeftRightSplitPKN5physx27PxVehicleDifferential4WDataE
VOe:_m_1699024189_0
IFd:__ZN5physx6shdfnd5ArrayINS_17PxTaskDepTableRowENS0_19ReflectionAllocatorIS2_EEE15growAndPushBackERKS2_
a0f:_m_1894728199_0
dQd:__ZThn4_NK5physx5cloth8SwSolver29getInterCollisionNbIterationsEv
Sn:FUNCTION_TABLE_viiiiiiiiiiiiiii
Z2b:__ZN14SafeBinaryRead21TransferSTLStyleArrayI10vector_mapI7Hash128S2_NSt3__14lessIS2_EENS3_9allocatorINS3_4pairIS2_S2_EEEEEEEvRT_17TransferMetaFlags
vOa:__Z25RegisterClass_PreloadDatav
OM:__ZN6il2cpp6icalls8mscorlib6System9Threading5Mutex21ReleaseMutex_internalE12Il2CppIntPtr
xCg:_m_45456906_0
tbg:_t_615889032_0_marshal_back
Iff:_m569221064_0
GTa:__Z15GetGraphicsCapsv
kch:__Z58t_1407250869_0_CustomAttributesCacheGenerator_m864962150_0P21CustomAttributesCache
Ty:__ZN4FMOD13ChannelGroupI8getGroupEiPPNS_12ChannelGroupE
Tea:__Z20IntersectionAABBAABBRK10MinMaxAABBS1_PS_
tRf:_m_713270713_0
kNe:_m856219042_0
Rne:__ZN13RuntimeStaticI20HardwareInfoReporterE16StaticInitializeEPv
hvg:_m_820582435_0
Xhf:_m1985948636_0
XYc:__ZN5physx16PxsIslandManager17setEdgeConstraintERKNS_20PxsIslandManagerHookIjLj4294967295EEEPNS_13PxsConstraintE
V_:__Z22GetGameManagerIfExistsi
$b:invoke_viifff
xJa:__Z22DestroyObjectHighLevelP6Objectb
Ftc:__ZN5physx7NpScene11removeActorERNS_7PxActorEb
tNc:__ZNK5physx2Sc9ClothCore27getNbVirtualParticleWeightsEv
mXe:_m1098601792_0
Xoh:__Z58t1159094344_0_CustomAttributesCacheGenerator_m_808730865_0P21CustomAttributesCache
XM:__ZN6il2cpp6icalls8mscorlib6System9Threading6Thread16SetName_internalEP12Il2CppThreadP12Il2CppString
hRe:_m1721522737_0
Nib:__ZNSt3__16vectorIN6il2cpp2vm5Image20EmbeddedResourceDataENS_9allocatorIS4_EEE21__push_back_slow_pathIKS4_EEvRT_
brg:_m_1539806164_0
orc:__ZNK5physx9NpPhysics9getScenesEPPNS_7PxSceneEjj
CEb:_block_remove
ega:__ZN18JobBatchDispatcherC2E11JobPriorityi
Q8d:__ZN5physx18PxsSolverStartTaskD0Ev
aVf:_m_1862160725_0
Awh:__Z141RuntimeInvoker_t_19515315_0_t_887538054_0_t_1047982445_0_t1628762099_0_t1628762099_0_t1628762099_0_t_887538054_0_t1636693376_0_t_2018974131_0PK10MethodInfoPvPS2_
bta:__ZN9GfxDevice13EndFrameStatsEv
sZf:_m_429808162_0
qsh:__Z84RuntimeInvoker_t_19515315_0_t_887538054_0_t1636693376_0_t_1047979500_0_t2034024306_0PK10MethodInfoPvPS2_
yzb:__ZN13dynamic_arrayIN14SafeBinaryRead11StackedInfoELj4EE7reserveEj
wod:__ZN14PhysicsManager7onSleepEPPN5physx7PxActorEj
_Pd:__ZThn4_N5physx5cloth8SwSolver25setInterCollisionDistanceEf
oRf:_m17177747_0
v5:__Z30RegisterClass_GraphicsSettingsv
Cwe:_m_2125863986_0_gshared
dDh:__Z70RuntimeInvoker_t_887538054_0_t_887538054_0_t1628762194_0_t_887538054_0PK10MethodInfoPvPS2_
eXc:__ZN5physx10PxsContext21destroyContactManagerEPNS_17PxsContactManagerE
pme:__ZN20TextRenderingPrivate8TextMesh13StaticCleanupEPv
$P:__ZN6il2cpp2os4Time29GetTicksMillisecondsMonotonicEv
y$f:_m1732965386_0
pCe:_m860791098_0_gshared
_Qg:_m_2130178152_0
DCb:__ZN12ScriptMapper8TransferI14SafeBinaryReadEEvRT_
Eyh:__Z98RuntimeInvoker_t_887538054_0_t1628762099_0_t_887538054_0_t_887538054_0_t_887538054_0_t1636693376_0PK10MethodInfoPvPS2_
Tec:__ZN15dense_hashtableINSt3__14pairIKiP6ObjectEEi21InstanceIDHashFunctorN14dense_hash_mapIiS4_S6_NS0_8equal_toIiEE13stl_allocatorIS5_L18MemLabelIdentifier64ELi16EEE9SelectKeyES9_SC_E12maybe_shrinkEv
u0a:__Z13GetFileLengthRKNSt3__112basic_stringIcNS_11char_traitsIcEENS_9allocatorIcEEEE
guc:__ZN5physx7NpScene30setClothInterCollisionDistanceEf
c7b:__ZN12IFileAdapterD0Ev
_Bf:_m_692953053_0
CUb:__ZN15SerializeTraitsI5RectTIfEE8TransferI14SafeBinaryReadEEvRS1_RT_
q8g:__Z44t_652434523_0_CustomAttributesCacheGeneratorP21CustomAttributesCache
Qbe:__ZNK5physx5cloth9ClothImplINS0_7SwClothEE11getUserDataEv
mHg:_m975090646_0
idc:__ZN13ProxyTransfer8TransferIN11LightProbes14LightProbeDataEEEvRT_PKc17TransferMetaFlags
_pa:__Z15SkinMeshMathLibR12SkinMeshInfo
AHb:__ZThn32_NK8Renderer11GetMaterialEi
nM:__ZN6il2cpp6icalls8mscorlib6System7Runtime15InteropServices8GCHandle15GetTargetHandleEP12Il2CppObjectii
KS:__ZN6il2cpp2vm12GenericClass15SetupPropertiesEP8TypeInfo
kl:_unsetenv
K_e:_m705628292_0
YFe:_m_1481491623_0_gshared
Wkh:__Z44t2085016836_0_CustomAttributesCacheGeneratorP21CustomAttributesCache
tBe:_m467076531_0_gshared
Kvf:_m_458386183_0
ihc:__ZN13RuntimeStaticI11MessageLoopE16StaticInitializeEPv
sDf:_m108136383_0
ASa:__ZN17PersistentManager18LoadFileCompletelyERKNSt3__112basic_stringIcNS0_11char_traitsIcEENS0_9allocatorIcEEEE
nA:__ZN4FMOD7SystemI4initEijPv
sRg:_m_141748792_0
cvg:_m_677451601_0
coa:__ZN10DynamicVBOC2Ev
cFe:_m_898015087_0_gshared
l9:__ZNK13RendererScene21GetDynamicObjectCountEv
IDb:__ZNKSt3__16__treeINS_12__value_typeINS_12basic_stringIcNS_11char_traitsIcEE13stl_allocatorIcL18MemLabelIdentifier53ELi16EEEEPN16MemoryFileSystem4NodeEEENS_19__map_value_compareIS8_SC_NS_4lessIS8_EELb1EEES5_ISC_LS6_53ELi16EEE4findIS8_EENS_21__tree_const_iteratorISC_PNS_11__tree_nodeISC_PvEEiEERKT_
KZc:__ZN5physx15PxsParticleData16removeParticlesVEjRKNS_16PxStrideIteratorIKjEE
Ifg:_m1982026226_0
mjh:__Z57t867363288_0_CustomAttributesCacheGenerator_m_618120474_0P21CustomAttributesCache
ngf:_m_2022183655_0
qaa:__Z17GetRenderSettingsv
L4a:__Z35Camera_Get_Custom_PropNearClipPlaneP15ScriptingObject
lYb:__Z16Transfer_BuiltinIj17RemapPPtrTransferLb0EEvRK29SerializationCommandArgumentsR31RuntimeSerializationCommandInfo
VJ:__ZN6il2cpp6icalls8mscorlib6System11Environment12get_PlatformEv
Twe:_m_1209288368_0_gshared
Pzh:__Z70RuntimeInvoker_t_224166001_0_t1628762194_0_t1628762099_0_t1628762194_0PK10MethodInfoPvPS2_
l5:__ZN5Flare13StaticCleanupEPv
Hig:_m1954293026_0
I1:__ZN11NamedObject16StaticInitializeEPv
qtf:_m305537749_0
C0a:__ZN4File4OpenERKNSt3__112basic_stringIcNS0_11char_traitsIcEENS0_9allocatorIcEEEENS_10PermissionENS_12AutoBehaviorE
Jq:__ZN9Behaviour6UpdateEv
aif:_m_254504304_0
$9e:_m763546001_0
rM:__ZN6il2cpp6icalls8mscorlib6System7Runtime8Remoting16RemotingServices16GetVirtualMethodEP20Il2CppReflectionTypeP22Il2CppReflectionMethod
HXc:__ZNK5physx10PxsContext15getNumSweepHitsEv
R4e:_m1062211994_0
xpc:__ZN5physx12NpBatchQuery5sweepERKNS_10PxGeometryERKNS_11PxTransformERKNS_6PxVec3EftNS_7PxFlagsINS_9PxHitFlag4EnumEtEERKNS_17PxQueryFilterDataEPvPKNS_12PxQueryCacheEf
awd:__ZN5physx6shdfnd5ArrayIPNS_2Sc18ParticleSystemCoreENS0_19ReflectionAllocatorIS4_EEE15growAndPushBackERKS4_
cXe:_m1231864174_0
lW:__ZN6il2cpp2vm14TypeNameParser23ParseNestedTypeOptionalERi
bud:__ZN5physx6shdfnd5ArrayIPNS_2Sc20ArticulationJointSimENS0_19ReflectionAllocatorIS4_EEE8recreateEj
_yf:_m_1195697622_0
n_h:__ZNKSt3__18time_getIwNS_19istreambuf_iteratorIwNS_11char_traitsIwEEEEE12__get_minuteERiRS4_S4_RjRKNS_5ctypeIwEE
_Hg:_m1400508342_0
B2b:__ZN30RuntimeInitializeOnLoadManager9ClassInfo8TransferI14SafeBinaryReadEEvRT_
n2c:__ZN5physx16correlatePatchesERNS_20PxcCorrelationBufferERKNS_2Gu13ContactBufferERKNS_11PxTransformES8_fjj
jm:_emscripten_glGetShaderInfoLog
n3e:_m_735892382_0
yde:__ZN5physx6shdfnd5ArrayINS_6PxVec3ENS0_9AllocatorEE19resizeUninitializedEj
JBf:_m443034079_0
PVd:__ZN5physx2Gu5RTree8Callback7profileEv
Dmb:__ZN18StreamedBinaryReadILb0EE21TransferSTLStyleArrayI13dynamic_arrayI20SphericalHarmonicsL2Lj4EEEEvRT_17TransferMetaFlags
gOd:__ZN5physx15NpActorTemplateINS_16PxParticleSystemEE14setOwnerClientEh
vwh:__Z113RuntimeInvoker_t1628762099_0_t_887538054_0_t_887538054_0_t1628762099_0_t1628762099_0_t_887538054_0_t_2018974131_0PK10MethodInfoPvPS2_
Odd:__ZN5physx2Gu23computeMTD_SphereConvexERNS_6PxVec3ERfRKNS0_6SphereERKNS_20PxConvexMeshGeometryERKNS_11PxTransformE
rWa:__ZN5Mutex4LockEv
JOd:__ZNK5physx22NpParticleBaseTemplateINS_16PxParticleSystemENS_16NpParticleSystemEE23getSimulationFilterDataEv
RKd:__ZNK5physx19NpRigidBodyTemplateINS_18PxArticulationLinkEE10getInvMassEv
Joc:__ZN5physx19NpArticulationJoint20setTangentialDampingEf
a9g:__Z44t1933514640_0_CustomAttributesCacheGeneratorP21CustomAttributesCache
kff:_m_1411452413_0
yeb:__ZN13GfxDeviceGLES20UpdateSkinPoseBufferEP17GPUSkinPoseBufferPK10Matrix4x4fi
WJa:__Z14SetPlayerPause11PlayerPauseb
AXf:_m2002032720_0
wid:__ZN5physx11PxMeshQuery22findOverlapHeightFieldERKNS_10PxGeometryERKNS_11PxTransformERKNS_21PxHeightFieldGeometryES6_PjjjRb
Wgf:_m_2139934203_0
S6h:_glCompressedTexSubImage3D__wrapper
vIg:_m1004858229_0
Xhd:__ZN5physx2Gu18intersectRaySphereERKNS_6PxVec3ES3_fS3_fRfPS1_
bcc:__ZN18ShadowMapJobHeaderD0Ev
hba:__ZN15SkyboxGenerator18GetSixFaceSkyboxVBEv
$$g:_m185788548_0_gshared
cw:__ZN15AudioReverbZone7CleanupEv
VXg:_m_290895810_0_gshared
RLh:__ZN16VirtFuncInvoker1IP13t_756155572_0P14t_1238178395_0E6InvokeEjPvS3_
cNg:_m_1106810519_0
kUc:__ZN5physx20updateBodyShapeAABBsEPKjjS1_PKNS_17PxcAABBDataStaticEPNS_11IntegerAABBEj
nRe:_m_1656839084_0
eqb:__ZNSt3__16vectorIPN9ShaderLab14ParserBasePassENS_9allocatorIS3_EEE6assignIPS3_EENS_9enable_ifIXaasr21__is_forward_iteratorIT_EE5valuesr16is_constructibleIS3_NS_15iterator_traitsISA_E9referenceEEE5valueEvE4typeESA_SA_
vXg:_m1255474638_0_gshared
KAc:__ZN5physx7NpCloth16setContactOffsetEf
ahh:__Z44t_167278418_0_CustomAttributesCacheGeneratorP21CustomAttributesCache
IAc:__ZN5physx7NpCloth23setSimulationFilterDataERKNS_12PxFilterDataE
RX:_UNITY_png_write_bKGD
L9b:__ZN6prcoreL26RemapGenericIntegerToFloatI17TexFormatARGB888818TexFormatARGBFloatEEvPKNS_9InnerInfoE
sEa:__ZN15TextureSettings14GetAnisoLimitsERiS0_
nbi:_emscripten_glCompressedTexSubImage2D__wrapper
CS:__ZN6il2cpp2vm5Field8SetValueEP12Il2CppObjectP9FieldInfoPv
KAe:_m1013425979_0_gshared
sqf:_m_1245564837_0
YOd:__ZN5physx15NpActorTemplateINS_16PxParticleSystemEE17resolveReferencesERNS_24PxDeserializationContextE
zod:__ZN14PhysicsManager19CreateDynamicsSceneEb
Meh:__Z44t1106259826_0_CustomAttributesCacheGeneratorP21CustomAttributesCache
zHc:__ZN5physx2Sc5Scene23postIslandGenSecondPassEPNS_10PxBaseTaskE
ykf:_m_1050251129_0
mTd:__ZN14PhysicsManagerD0Ev
Umh:__Z45t_1920699060_0_CustomAttributesCacheGeneratorP21CustomAttributesCache
iMf:_m1594181746_0
mVc:__ZN3MBP11shiftOriginERKN5physx6PxVec3E
USg:_m1930204271_0
mjb:__ZN6il2cpp2vmL29SocketPollingThreadEntryPointEPv
QZe:_m_707491928_0
P8e:_m_693049849_0
PFe:_m_1531822978_0_gshared
h_b:__ZN10Matrix4x4f8TransferI18StreamedBinaryReadILb0EEEEvRT_
GGh:__Z57RuntimeInvoker_t_1842557272_0_t_887538054_0_t_887538054_0PK10MethodInfoPvPS2_
fB:__ZN4FMOD7Channel19getReverbPropertiesEP29FMOD_REVERB_CHANNELPROPERTIES
JOb:__ZNSt3__127__insertion_sort_incompleteIRPFbRKNS_4pairIN9ShaderLab16FastPropertyNameEN18UnityPropertySheet11UnityTexEnvEEES8_EPS6_EEbT0_SD_T_
nnc:__ZNK5physx11NpAggregate14getMaxNbActorsEv
p8e:_m2134947410_0
VUc:__ZN9BoxPruner9addObjectERK5IAABBjb
Esc:__ZN5physx14NpRigidDynamic11clearTorqueENS_11PxForceMode4EnumE
Bfb:__ZN13GfxDeviceGLES11VerifyStateEv
IPa:__Z12CancelInvokeR13MonoBehaviourR11ICallString
rK:__ZN6il2cpp6icalls8mscorlib6System8MonoType13GetInterfacesEP20Il2CppReflectionType
LNc:__ZN5physx2Sc9ClothCore19setVirtualParticlesEjPKjjPKNS_6PxVec3E
BZb:__Z33EmitSerializationCommandsForFieldI18StreamedBinaryReadILb0EEEvR18TransferField_InfoR32SerializationCommandQueueBuilderRP20AllowNameConversions
wUd:__Z14resize_trimmedINSt3__16vectorIjNS0_9allocatorIjEEEEEvRT_j
ZG:_il2cpp_class_from_system_type
dre:_m809369055_0_gshared
A8c:__Z44getPxVehicleWheelsSimData_TireLoadFilterDataPKN5physx22PxVehicleWheelsSimDataE
xGd:__ZL28HullProjectionCB_SmallConvexRKN5physx2Gu13PolygonalDataERKNS_6PxVec3ERKNS_2Cm8Matrix34ERKNS7_23FastVertex2ShapeScalingERfSE_
aY:_unity_z_crc32
T8b:__ZN6prcoreL17RemapGenericFloatI18TexFormatRGBAFloat16TexFormatRGFloatEEvPKNS_9InnerInfoE
yya:__ZNK16LightmapSettings25GetClassIDVirtualInternalEv
Hkc:__ZN5physx3Cct9SweepTest9onReleaseERKNS_6PxBaseE
tWg:_m1825253014_0_gshared
tEd:__Z49getPxVehicleSuspensionDataMCamberAtMaxCompressionPKN5physx23PxVehicleSuspensionDataE
iK:__ZN6il2cpp6icalls8mscorlib6System8MonoType8get_NameEP20Il2CppReflectionType
fqb:__ZNSt3__16vectorINS_4pairINS_12basic_stringIcNS_11char_traitsIcEENS_9allocatorIcEEEES7_EENS5_IS8_EEE21__push_back_slow_pathIKS8_EEvRT_
znh:__Z58t1617514872_0_CustomAttributesCacheGenerator_m1355834984_0P21CustomAttributesCache
Ljd:__ZNK5physx2Gu15HeightFieldUtil16getEdgeFaceIndexEjjjj
Fhd:__ZN5physx2Gu15GJKLocalRayCastERNS0_8CapsuleVERNS0_4BoxVERKNS_6shdfnd3aos6FloatVERKNS6_5Vec3VESC_RS7_RSA_SE_fb
Qra:__ZN13DrawImmediate6CreateEv
aI:_il2cpp_monitor_exit
oPc:__ZNK5physx2Sc15ClothFabricCore11getNbPhasesEv
sve:_m1166627932_0_gshared
rVc:__ZNK5physx16PxsBroadPhaseMBP12getNbRegionsEv
NZc:__ZNK5physx15PxsParticleData13getParticlesVERNS_30PxvParticleSystemStateDataDescEbb
V3h:__ZNSt3__112system_error6__initERKNS_10error_codeENS_12basic_stringIcNS_11char_traitsIcEENS_9allocatorIcEEEE
QTb:__ZL12InvokeMethodI14SafeBinaryReadEvRK29SerializationCommandArgumentsR31RuntimeSerializationCommandInfo
cxh:__Z56RuntimeInvoker_t_224166001_0_t1636693376_0_t_887538054_0PK10MethodInfoPvPS2_
Lvh:__Z98RuntimeInvoker_t_887538054_0_t_887538054_0_t1628762099_0_t_887538054_0_t_887538054_0_t_887538054_0PK10MethodInfoPvPS2_
Ep:FUNCTION_TABLE_ff
bof:_m_2024902059_0
e2:__ZN10TagManager32GetSortingLayerValueFromUniqueIDEi
ZHd:__ZN5physxL25generatedTriangleContactsERKNS_2Gu9TriangleVEjhRKNS0_13PolygonalDataERKNS0_15HullPolygonDataEPNS0_12SupportLocalEPNS0_21MeshPersistentContactERjRKNS_6shdfnd3aos6FloatVERKNSG_5Vec3VE
Jo:FUNCTION_TABLE_fi
aoe:_m_2116114932_0_gshared
RS:__ZN6il2cpp2vm16GenericContainer19GetGenericParameterEPK22Il2CppGenericContainert
gEh:__Z98RuntimeInvoker_t_224166001_0_t1628762041_0_t1628762041_0_t1636693376_0_t1636693376_0_t1636693376_0PK10MethodInfoPvPS2_
kJg:_m1554304696_0
LEd:__Z37getPxVehicleDriveDynDataMUseAutoGearsPKN5physx21PxVehicleDriveDynDataE
aOf:_m1946065152_0
WQb:__Z13TransferFieldI18StreamedBinaryReadILb1EELb0E27Converter_SimpleNativeClassI17AnimationCurveTplIfEEEvRK23StaticTransferFieldInfoR31RuntimeSerializationCommandInfoRT1_
pd:_emscripten_glGetAttribLocation
ycg:_m100760991_0
CB:__ZN4FMOD12ChannelGroup14getParentGroupEPPS0_
N3c:__ZN5physx2Sq17AABBTreeUpdateMap7initMapEjRKNS0_8AABBTreeE
q0g:_m994112968_0_gshared
ud:_emscripten_set_blur_callback
VVh:__ZNSt3__111__stdoutbufIcE4syncEv
_Ab:__Z29StdTemplateConversionFunctionIsxEbPvR14SafeBinaryRead
VVa:__ZN19ShaderPropertySheet24SetTextureScaleAndOffsetERKN9ShaderLab16FastPropertyNameE8Vector2fS4_
Cgb:__GLOBAL__sub_I_MemoryMappedFile_cpp
rbe:__ZN5physx5cloth9ClothImplINS0_7SwClothEE24getSeparationConstraintsEv
EVf:_m655159675_0
Sxa:__ZNK14ImageReference9ClipImageEiiii
O4f:_m_1773827926_0
LHa:__ZN10Matrix4x4f30SetPositionAndOrthoNormalBasisERK8Vector3fS2_S2_S2_
rUe:_m_270180980_0
eze:_m1461469503_0_gshared
MJ:__ZN6il2cpp6icalls8mscorlib6System4Enum8ToObjectEP20Il2CppReflectionTypeP12Il2CppObject
Y4:__ZN12FlareManager6UpdateEv
q8h:_glColorMask__wrapper
yid:__ZN5physx2Gu15MeshRayCollider10collideOBBERKNS0_3BoxEbRKNS0_17RTreeMidphaseDataERNS0_15MeshHitCallbackINS_12PxRaycastHitEEEb
z2c:__Z16runNpPCMBatchPPUPN5physx18PxcNpThreadContextEPNS_15PxcNpBatchEntryEjjPjjRjS5_
wHg:_m_937343073_0
jnf:_m_2020525756_0
Guc:__ZN5physx7NpScene14resetFilteringERNS_7PxActorE
Xq:__ZN18StreamedBinaryReadILb1EE8TransferI8Vector3fEEvRT_PKc17TransferMetaFlags
qxb:__ZN27GenericSlowGarbageCollector16ProcessReferenceEi
KMe:_m698190412_0
HAe:_m_1834666557_0_gshared
I3a:__ZN13OpenFileCache10OpenCachedERKNSt3__112basic_stringIcNS0_11char_traitsIcEENS0_9allocatorIcEEEE
SHf:_m976461369_0
_4d:__ZN5physx18RepXPropertyFilterINS_2Sn17RepXVisitorReaderINS_27PxVehicleDifferential4WDataEEEEclILj538ES3_ffEEvRKNS_14PxPropertyInfoIXT_ET0_T1_T2_EEj
GPf:_m_333956699_0
C4f:_m_915210802_0
jRf:_m_2092374258_0
gVh:_strtoul
fe:_fopen
VUa:__ZN6Shader19MarkShaderHasErrorsEPS_
tbh:__Z43t742595035_0_CustomAttributesCacheGeneratorP21CustomAttributesCache
zwh:__Z125RuntimeInvoker_t_19515315_0_t1628762099_0_t_887538054_0_t1628762099_0_t1628762099_0_t_887538054_0_t1628762099_0_t1636693376_0PK10MethodInfoPvPS2_
j9h:_glFramebufferTexture2D__wrapper
vM:__ZN6il2cpp6icalls8mscorlib6System7Runtime8Remoting7Proxies9RealProxy27InternalGetTransparentProxyEP12Il2CppObjectP12Il2CppString
Mgh:__Z59t_1169133302_0_CustomAttributesCacheGenerator_m1643674103_0P21CustomAttributesCache
RRc:__ZN5physx5cloth8SwFabric18scaleTetherLengthsEf
DFc:__ZN5physx2Sc10NPhaseCore16createFilterPairEv
rU:__ZN6il2cpp2vm6Method10IsInflatedEPK10MethodInfo
UU:__ZN6il2cpp2vm8Profiler10AllocationEP12Il2CppObjectP8TypeInfo
WIh:__Z40RuntimeInvoker_t_224166001_0_t_8263783_0PK10MethodInfoPvPS2_
Eec:__ZN12ImmediatePtrIN5Unity9ComponentEE8TransferI18StreamedBinaryReadILb1EEEEvRT_
akg:_m_1011932627_0
yEe:_m_1865190414_0_gshared
X8e:_m1539088601_0
U5d:__ZN5physx26PxSerializerDefaultAdapterINS_18PxVehicleDriveTankEED0Ev
BHd:__ZNK5physx2Gu15HeightFieldUtil12traceSegmentINS0_27TriggerTraceSegmentCallbackELb0ELb0ELb0EEEvRKNS_6PxVec3ES6_PT_PS5_
q7f:_m1731782269_0
bdd:__Z19sweepCCTBox_BoxGeomRKN5physx10PxGeometryERKNS_11PxTransformERKNS_2Gu3BoxERKNS_6PxVec3EfRNS_10PxSweepHitENS_7PxFlagsINS_9PxHitFlag4EnumEtEEf
c$d:__ZN5physx3Pvd17PvdPropertyFilterINS_2Sn17RepXVisitorWriterINS_22PxVehicleWheelsSimDataEEEE27handleExtendedIndexPropertyILj614ES4_NS_6PxVec3EKjNS_18PxUnknownClassInfoEEEvjRKNS_29PxExtendedIndexedPropertyInfoIXT_ET0_T2_T1_EERKT3_
bkh:__Z43t314305300_0_CustomAttributesCacheGeneratorP21CustomAttributesCache
gdc:__ZN11Tetrahedron8TransferI14SafeBinaryReadEEvRT_
Wgc:__ZThn8_NSt3__118basic_stringstreamIcNS_11char_traitsIcEENS_9allocatorIcEEED0Ev
e1b:__Z19TransferField_ArrayI19StreamedBinaryWriteILb0EE27Converter_UnityEngineObjectEvRK23StaticTransferFieldInfoR31RuntimeSerializationCommandInfoRT0_
ODf:_t_65128199_0_marshal_back
Yhc:__ZN13RuntimeStaticI23MeshVertexFormatManagerE16StaticInitializeEPv
pzf:_m1044315650_0
DJe:_m_809932217_0
a$a:__ZN16MemoryFileSystem11MoveToTrashER13FileEntryData
Qdi:_emscripten_glFrontFace__wrapper
Na:invoke_fiffi
jQ:__ZN6il2cpp5utils6Memory6CallocEjj
m5c:__ZN5physx23PxVehicleDriveSimData4W17getBinaryMetaDataERNS_14PxOutputStreamE
QUc:__ZN15MBP_PairManager12reallocPairsEv
Nma:__ZN8Playable7SetTimeEd
o3f:_m716718603_0
gPg:_m1733981935_0
atf:_m1762596688_0
EGh:__Z56RuntimeInvoker_t_19515315_0_t_887538054_0_t_1743875860_0PK10MethodInfoPvPS2_
krb:__ZN13dynamic_arrayI22GenericDynamicVBOChunkLj4EE7reserveEj
_wa:__Z26IsSplashScreenFadeCompletev
u0:__Z17SendMessageDirectR6ObjectRK17MessageIdentifierR11MessageData
mJf:_m1163295234_0
swb:__ZN12InputManager8TransferI13ProxyTransferEEvRT_
b5a:__Z42Register_UnityEngine_Camera_get_clearFlagsv
PLd:__ZNK5physx20NpRigidActorTemplateINS_14PxRigidDynamicEE9getShapesEPPNS_7PxShapeEjj
ULh:__ZN16VirtFuncInvoker1IP14t_1238178395_0S1_E6InvokeEjPvS1_
nTh:__ZNKSt3__121__basic_string_commonILb1EE20__throw_length_errorEv
aze:_m_1427552143_0_gshared
$Jg:_m_618117529_0
cSh:__ZN21InterfaceFuncInvoker1IaP13t_887538054_0E6InvokeEjP8TypeInfoPvS1_
Mqc:__ZN5physx10NpMaterialD2Ev
d_h:__ZNKSt3__18time_getIwNS_19istreambuf_iteratorIwNS_11char_traitsIwEEEEE16do_get_monthnameES4_S4_RNS_8ios_baseERjP2tm
kge:__ZNK5physx2Cm12DelegateTaskINS_2Sc5SceneEXadL_ZNS3_6solverEPNS_10PxBaseTaskEEEE7getNameEv
l3:__ZN6Camera10CustomCullERK23CameraCullingParametersR11CullResults
n1:__Z22SetManagerPtrInContextiP6Object
Mcg:_m1813433017_0
_1h:__ZNKSt3__120__time_get_c_storageIcE3__XEv
zxb:__ZN14PlayerSettings8TransferI19StreamedBinaryWriteILb0EEEEvRT_
NRe:_m_445463975_0
g0e:_m334685068_0
I6e:_m_1398979361_0
_re:_m_1387868897_0_gshared
e5f:_m1465031614_0
i7e:_m36891578_0
fma:__ZN15DirectorManagerD2Ev
lZc:__ZN5physx17EdgeChangeManager17cleanupEdgeEventsEPij
kQf:_m1232915318_0
p6b:__ZN18StreamedBinaryReadILb0EE21TransferSTLStyleArrayI13dynamic_arrayIfLj4EEEEvRT_17TransferMetaFlags
nne:__ZN11UnityEngine15PlatformWrapper12GetInfoFlagsEv
BCg:_m1713744008_0
V8f:_m_1098937155_0
M6c:__ZN5physx22PxVehicleWheelsSimData14setChassisMassEf
kIb:__ZN9GfxDevice23IgnoreNextUnresolveOnRSE12ObjectHandleI17RenderSurface_TagP17RenderSurfaceBaseE
$K:__ZN6il2cpp6icalls8mscorlib6System13Globalization11CultureInfo45construct_internal_locale_from_current_localeEP17Il2CppCultureInfo
S4f:_m1919356356_0
bma:__ZN18PlayableController4TickEf
iCh:__Z28RuntimeInvoker_t1365220554_0PK10MethodInfoPvPS2_
iNb:__ZN15TextureTFMethod16BindForRenderingEj
Xza:__ZN8Renderer14UpdateRendererEv
QVe:_m1406146266_0
JQf:_m513487403_0
OXe:_m1572578968_0
IYa:__ZN17ArchiveFileSystem6ParentERK13FileEntryDataRNSt3__112basic_stringIcNS3_11char_traitsIcEENS3_9allocatorIcEEEE
uVg:_m_315540931_0
h1g:_m348452931_0_gshared
hWe:_m_281597364_0
WLg:_m_28984068_0
vje:__ZN5physx2Cm12RefCountableD0Ev
frd:__ZN5physx6shdfnd8internal8HashBaseINS0_4PairIKNS3_IjjEEN12_GLOBAL__N_14EdgeEEES4_NS0_4HashIS4_EENS1_11HashMapBaseIS4_S7_SA_NS0_9AllocatorEE6GetKeyESC_Lb1EE15reserveInternalEj
X0:__ZNK5Unity9Component25GetClassIDVirtualInternalEv
wNa:__ZN17MonoScriptManager17FindRuntimeScriptERKNSt3__112basic_stringIcNS0_11char_traitsIcEENS0_9allocatorIcEEEE
$ga:__ZN10UnityScene18UnloadSceneObjectsEv
mqh:__Z44t_251826893_0_CustomAttributesCacheGeneratorP21CustomAttributesCache
t8f:_m_1158369417_0
uNf:_m_1519665596_0
vI:__Z25il2cpp_gc_register_threadPv
AQd:__ZN5physx20ProcessBPResultsTaskD0Ev
dug:_m642464225_0
m$e:_m1197717107_0
Rsd:__ZN5physx6shdfnd5ArrayIPNS_14PxParticleBaseENS0_19ReflectionAllocatorIS3_EEE15growAndPushBackERKS3_
Azh:__Z85RuntimeInvoker_t_224166001_0_t_887538054_0_t1636693376_0_t_1743875860_0_t1267767859_0PK10MethodInfoPvPS2_
D1b:__ZNSt3__16vectorIN15ResourceManager10DependencyENS_9allocatorIS2_EEE8__appendEj
mkg:_m_849452745_0
DIa:__ZNK13BuildSettings25GetClassIDVirtualInternalEv
kkh:__Z44t_924018506_0_CustomAttributesCacheGeneratorP21CustomAttributesCache
rGb:__ZN10FlareLayerD2Ev
Ojg:_m_1466367367_0
e7d:__ZZN5physxL20PxcSweepAnyShapeMeshERKNS_11PxsCCDShapeES2_PKNS_12PxsRigidBodyES5_RKNS_11PxTransformES8_fRNS_6PxVec3ESA_RNS_10PxcNpCacheERNS_18PxcNpThreadContextEEN13AccumCallback10processHitERKNS_12PxRaycastHitERKS9_SK_SK_RfPKj
oxe:_m_1573375227_0_gshared
Yjd:__Z37GeomOverlapCallback_ConvexHeightfieldRKN5physx10PxGeometryERKNS_11PxTransformES2_S5_PNS_2Gu12TriggerCacheE
JJh:__Z57RuntimeInvoker_t_1842557272_0_t_887538054_0_t1636693376_0PK10MethodInfoPvPS2_
jHg:_m566504038_0
bZa:__ZN15ArchiveReadFileC2EP20ArchiveStorageReaderPKN20ArchiveStorageHeader4NodeE
_q:__ZN18StreamedBinaryReadILb1EE21TransferSTLStyleArrayI13dynamic_arrayIhLj1EEEEvRT_17TransferMetaFlags
CFe:_m1859453489_0_gshared
peh:__Z58t1524084820_0_CustomAttributesCacheGenerator_m_125048279_0P21CustomAttributesCache
DT:__ZN6il2cpp2vm13MetadataCache24GetGenericInstanceMethodEPK10MethodInfoRKNSt3__16vectorIPK10Il2CppTypeNS5_9allocatorIS9_EEEE
Eee:__ZN5physx6shdfnd5ArrayINS_15PxClothParticleENS0_19ReflectionAllocatorIS2_EEE8recreateEj
Ehb:__ZL14on_heap_resizem
m8d:__ZN5physx20addConstraintDynamicERNS_19PxsParticleCollDataERKNS_6PxVec3ES4_S4_PKNS_11PxsBodyCoreERNS_25PxsFluidConstraintDynamicES9_
FQ:__ZN6il2cpp2vm5Array9GetLengthEP11Il2CppArray
URh:__ZL14CastclassClassP13t_887538054_0P8TypeInfo1770
p2b:__ZNSt3__16vectorI8UnityStr13stl_allocatorIS1_L18MemLabelIdentifier11ELi16EEE7reserveEj
l8e:_t1719079768_0_marshal
BZe:_m_1113033922_0
LWb:__Z16Transfer_BuiltinI11Quaternionf13ProxyTransferLb0EEvRK29SerializationCommandArgumentsR31RuntimeSerializationCommandInfo
L7h:_glVertexAttribPointer__wrapper
fTg:_m1694946776_0
$Gh:__Z41RuntimeInvoker_t976230437_0_t1628762099_0PK10MethodInfoPvPS2_
P7c:__Z30getPxVehicleWheelData_RecipMOIPKN5physx18PxVehicleWheelDataE
t4h:___udivdi3
rma:__ZN15DirectorManager17MainThreadCleanupEv
M8f:_m_1354434854_0
HJ:__ZN6il2cpp6icalls8mscorlib6System8Delegate18SetMulticastInvokeEP14Il2CppDelegate
Tkh:__Z43t564003608_0_CustomAttributesCacheGeneratorP21CustomAttributesCache
edb:__ZN4gles16CreateBlendStateER15DeviceStateGLESRK13GfxBlendState
aOd:__ZNK5physx22NpParticleBaseTemplateINS_16PxParticleSystemENS_16NpParticleSystemEE14getWorldBoundsEf
yCd:__ZN5physx2Sn18writeAllPropertiesINS_16PxVehicleDrive4WEEEvPKT_RNS_9XmlWriterERNS_12MemoryBufferERNS_12PxCollectionE
$Fa:__ZN12InputManager13StaticCleanupEPv
cjg:_m_1993318771_0
Rge:__ZN5physx6shdfnd5ArrayIPvNS0_15InlineAllocatorILj256ENS0_19ReflectionAllocatorINS_2Sc16ActorElementPairEEEEEE15growAndPushBackERKS2_
GYb:__Z22TransferField_NonArrayI17RemapPPtrTransfer27Converter_SimpleNativeClassI10RectOffsetEEvRK23StaticTransferFieldInfoR31RuntimeSerializationCommandInfoRT0_
PKf:_m823511368_0
u9f:_m1841098555_0
Fx:__ZN20SoundChannelInstance11set3DSpreadEf
Gib:__ZN6il2cpp2vmL21SetupPropertiesLockedEP8TypeInfoRKNS_2os12FastAutoLockE
qvc:__ZNK5physx7NpScene19getDynamicStructureEv
s9e:_m_823030122_0
qtc:__ZN5physx7NpScene10setGravityERKNS_6PxVec3E
NBc:__ZNK5physx2Sc16ArticulationCore22getSeparationToleranceEv
zOd:__ZN5physx22NpParticleBaseTemplateINS_16PxParticleSystemENS_16NpParticleSystemEE18setProjectionPlaneERKNS_6PxVec3Ef
_Id:__ZL21CleanupModule_Physicsv
YFh:__Z70RuntimeInvoker_t_887538054_0_t1215250369_0_t_766435453_0_t1628762099_0PK10MethodInfoPvPS2_
FEd:__Z25getPxVehicleTireDataMTypePKN5physx17PxVehicleTireDataE
Pgd:__ZN5physx2Gu32distanceSegmentSegmentSquaredOLDERKNS_6PxVec3ES3_S3_S3_PfS4_
Zqb:__ZZN15DirectorManager15InitializeClassEvEN15didDestroyWorld7ForwardEv
nzg:_m_881519024_0
jOh:__ZN16VirtFuncInvoker0IP12t_64224368_0E6InvokeEjPv
_E:_GC_log_printf
R1c:__ZN5physx15PxcLtbComputeJvEPNS_6shdfnd3aos5Vec3VERKNS_9PxcFsDataEPKNS_14PxcSIMDSpatialE
MU:__ZN6il2cpp2vm6Object5UnboxEP12Il2CppObject
e4a:__Z52Register_UnityEngine_ScriptableObject_CreateInstancev
Bkh:__Z43t362672006_0_CustomAttributesCacheGeneratorP21CustomAttributesCache
bgd:__ZN5physx2Gu17contactSphereMeshERKNS0_13GeometryUnionES3_RKNS_11PxTransformES6_RKfRNS0_5CacheERNS0_13ContactBufferE
$mb:__ZN13dynamic_arrayI31RuntimeReflectionProbeBlendInfoLj4EE7reserveEj
CLh:__ZN16VirtFuncInvoker1IibE6InvokeEjPvb
gcf:_m1169795993_0
m0a:__Z18IsDirectoryCreatedRKNSt3__112basic_stringIcNS_11char_traitsIcEENS_9allocatorIcEEEE
yn:_glGetActiveUniform
GXc:__ZNK5physx10PxsContext17getCurrentCCDPassEv
J2c:__ZN5physx29createFinalizeSolverContacts4EPPNS_13PxcNpWorkUnitERNS_18PxcNpThreadContextEPPNS_23PxcSolverConstraintDescEPPKNS_13PxcSolverBodyESB_PPKNS_17PxcSolverBodyDataESF_PPKNS_12PxsRigidCoreESJ_ffffRNS_25PxsConstraintBlockManagerENS_14PxFrictionType4EnumE
Hzc:__ZNK5physx7NpCloth13getGlobalPoseEv
vqc:__ZN5physx9NpFactory18createArticulationEv
bi:_glBlendEquation
Fsc:__ZNK5physx14NpRigidDynamic10isSleepingEv
rTb:__ZNSt3__16vectorIx13stl_allocatorIxL18MemLabelIdentifier1ELi16EEE6assignINS_11__wrap_iterIPxEEEENS_9enable_ifIXaasr21__is_forward_iteratorIT_EE5valuesr16is_constructibleIxNS_15iterator_traitsISA_E9referenceEEE5valueEvE4typeESA_SA_
OJg:_m_783203911_0
GId:__ZNSt3__16vectorI4PPtrIN5Unity5JointEENS_9allocatorIS4_EEE21__push_back_slow_pathIKS4_EEvRT_
gRc:__ZN5physx5cloth11SwCollisionI8Scalar4fE17mergeAccelerationEPj
Cjd:__ZNK5physx2Gu15HeightFieldUtil18computeLocalBoundsERNS_9PxBounds3E
Sbd:__ZN5physx9PxTaskMgr13taskCompletedERNS_6PxTaskE
ope:_m_255708564_0_gshared
cxd:__ZN5physx6shdfnd5ArrayINS_5cloth5Vec4TItEENS0_9AllocatorEE4copyIS5_EEvRKNS1_IS4_T_EE
Ew:__ZN11AudioSource16StaticInitializeEPv
WN:__ZN6il2cpp2os5Mutex7TryLockEjb
R2b:__ZN18StreamedBinaryReadILb1EE21TransferSTLStyleArrayI10vector_mapI7Hash128S3_NSt3__14lessIS3_EENS4_9allocatorINS4_4pairIS3_S3_EEEEEEEvRT_17TransferMetaFlags
Hra:__Z20IsVectorBuiltinParamPKcPi
Mgg:_m1563575745_0
b3c:__ZN5physx17PxcNpMemBlockPool7acquireERNS_6shdfnd5ArrayIPNS_13PxcNpMemBlockENS1_19ReflectionAllocatorIS4_EEEEPjS9_b
pvg:_m_645123078_0
ypa:__ZN12MeshRenderer16StaticInitializeEPv
kFe:_m406957124_0_gshared
Wg:_emscripten_glGetObjectParameterivARB
spc:__ZN5physx12NpBatchQuery13setUserMemoryERKNS_18PxBatchQueryMemoryE
TFg:_m873931152_0
tJ:__ZN6il2cpp6icalls8mscorlib6System21CurrentSystemTimeZone15GetTimeZoneDataEiPP11Il2CppArrayS6_
Orf:_m1968789502_0
dAa:__ZN8Renderer11SetMaterialE4PPtrI8MaterialEi
vi:_glGetVertexAttribfv
bPe:_m1451126723_0
W4:__ZN12FlareManager9AddCameraER6Camera
N2:__ZNK6Camera27GetUsesScreenForCompositingEb
$Xa:__ZN12HandlerChain4OpenER13FileEntryData14FilePermission16FileAutoBehavior
v8f:_m_714040304_0
gic:__ZN13RuntimeStaticI15DirectorManagerE13StaticDestroyEPv
Bjg:_m1166147774_0
dfd:__ZN5physx2Gu11WriteHeaderEhhhhjbRNS_14PxOutputStreamE
ZWg:_m1795030376_0_gshared
WEa:__ZNK9Transform22GetPositionAndRotationER8Vector3fR11Quaternionf
NMd:__ZNK5physx7PxShape19getConcreteTypeNameEv
EKd:__ZN5physx20NpRigidActorTemplateINS_18PxArticulationLinkEE22setClientBehaviorFlagsENS_7PxFlagsINS_25PxActorClientBehaviorFlag4EnumEhEE
eRd:__ZN5physx17SapUpdateWorkTaskD0Ev
q4h:___divdi3
PTf:_m564523597_0
xS:__ZN6il2cpp2vm5Field8GetValueEP12Il2CppObjectP9FieldInfoPv
hse:_m1126443155_0_gshared
oMg:_m_534521242_0
YCc:__ZN5physx2Sc8BodyCore13setBody2WorldERKNS_11PxTransformE
vdh:__Z67t436928758_0_CustomAttributesCacheGenerator_U3CU3Ef__switchU24map26P21CustomAttributesCache
JUg:_m_1796855773_0
iHg:_m566501093_0
Jya:__ZN12LineRenderer16StaticInitializeEPv
$lf:_m_457207798_0
Ioe:_m238588755_0_gshared
f1:__ZN5Unity9Component8TransferI19StreamedBinaryWriteILb0EEEEvRT_
Mnb:__ZL12CullGroupJobP20CullingGroupsJobDataj
Bhb:_GC_remove_dangling_disappearing_links
xhf:_m305836803_0
Qkb:__ZNSt3__16__treeINS_12__value_typeINS_12basic_stringIcNS_11char_traitsIcEENS_9allocatorIcEEEEiEENS_19__map_value_compareIS7_S8_NS_4lessIS7_EELb1EEENS5_IS8_EEE4findIS7_EENS_15__tree_iteratorIS8_PNS_11__tree_nodeIS8_PvEEiEERKT_
Ql:_emscripten_glNormalPointer
dR:__ZN6il2cpp2vm5Class13GetInterfacesEP8TypeInfoPPv
Lp:FUNCTION_TABLE_i
Vtb:__Z15GenerateTextureItPFvP9Texture2DPtiiiiEEvS1_RKT0_
Cci:_emscripten_glUniform3iv__wrapper
uo:FUNCTION_TABLE_v
ZCc:__ZN5physx2Sc8BodyCore22addSpatialAccelerationEPNS_6shdfnd4PoolINS0_12SimStateDataENS2_19ReflectionAllocatorIS4_EEEEPKNS_6PxVec3ESB_
Ffb:__ZN18GlslGpuProgramGLES6CreateE20ShaderGpuProgramTypeRK13dynamic_arrayIhLj1EER14ChannelAssigns
FGb:__ZN9BehaviourD2Ev
_Bb:__ZN14SafeBinaryRead19TransferSTLStyleMapINSt3__13mapI8UnityStrS3_NS1_4lessIS3_EE13stl_allocatorINS1_4pairIKS3_S3_EEL18MemLabelIdentifier1ELi16EEEEEEvRT_17TransferMetaFlags
Hpa:__ZN12MeshRenderer23VirtualRedirectTransferER18StreamedBinaryReadILb1EE
Czg:_m322429227_0
k0a:__ZN21AssetBundleFileSystem18IsAbsoluteFilePathEPKc
a2d:__ZN5physx3Pvd17PvdPropertyFilterINS_2Sn17RepXVisitorWriterINS_19PxVehicleEngineDataEEEE14handleAccessorILj524ENS_22PxRepXPropertyAccessorILj524ES4_ffEEEEvRKT0_
qWc:__ZN5physx13PxsCCDContext7destroyEv
Uef:_m670320982_0
vUh:_isxdigit
Fwf:_m10053967_0
pjb:__ZN6il2cpp2vm17TypeNameParseInfoC2ERKS1_
UZf:_t1074450346_0_marshal
jVh:_memcmp
LZe:_m258265119_0
Eud:__ZN5physx6shdfnd5ArrayIPNS_2Sc9ActorPairENS0_19ReflectionAllocatorIS4_EEE6resizeEjRKS4_
tzg:_m_775865067_0
oCc:__ZN5physx2Sc21ArticulationJointCore22setTangentialStiffnessEf
iPd:__ZN5physx15NpActorTemplateINS_7PxClothEE14setOwnerClientEh
ix:__ZN5audio5mixer22CreateAudioMixerMemoryERKNS0_18AudioMixerConstantEPN4FMOD6SystemERN7mecanim6memory9AllocatorEib
rwd:__ZN5physx6shdfnd8PoolBaseINS_2Cm5BlockIPvLj8EEENS0_19ReflectionAllocatorIS5_EEE15disposeElementsEv
uhh:__Z81t1045483054_0_CustomAttributesCacheGenerator_t1045483054_0____Handle_PropertyInfoP21CustomAttributesCache
Bmh:__Z58t_19408649_0_CustomAttributesCacheGenerator_m_1881636862_0P21CustomAttributesCache
DRg:_m_521559027_0
L0d:__ZN5physx18RepXPropertyFilterINS_2Sn17RepXVisitorReaderINS_27PxVehicleTireLoadFilterDataEEEEclILj564ES3_ffEEvRKNS_14PxPropertyInfoIXT_ET0_T1_T2_EEj
f2:__ZN10TagManager16StaticInitializeEPv
Ufg:_m_2025916007_0
bsf:_m2077558742_0
Y2c:__ZN5physx17PxcNpMemBlockPool19swapFrictionStreamsEv
SA:__ZN10ObjectPoolIN4FMOD6ReverbENS0_7ReverbIEE7GetFreeEi
Rrb:__Z18SkinGenericMathLibILi2ELb1ELb1EEvR12SkinMeshInfo
$ge:__ZN5physx6shdfnd4sortIPvNS0_4LessIS2_EENS0_19ReflectionAllocatorINS_2Sc18TriggerInteractionEEEEEvPT_jRKT0_RKT1_
OBd:__ZN5physx12_GLOBAL__N_122getImpulseResponseSimdERKNS_9PxcFsDataEjNS_6shdfnd3aos5Vec3VES6_
WR:__ZN6il2cpp2vm6Domain10ContextSetEP16Il2CppAppContext
U1h:__ZNKSt3__120__time_get_c_storageIcE8__monthsEv
L5e:_m_535026982_0
p4f:_m726728631_0
a9f:_m_1310273817_0
s1h:__ZNKSt3__17codecvtIDic11__mbstate_tE6do_outERS1_PKDiS5_RS5_PcS7_RS7_
Mjh:__Z43t_68354036_0_CustomAttributesCacheGeneratorP21CustomAttributesCache
UNf:_m_615922002_0
Lbb:__ZN14DataBufferGLES12RecordUpdateEv
pRb:__Z16Transfer_BuiltinIx18StreamedBinaryReadILb1EELb1EEvRK29SerializationCommandArgumentsR31RuntimeSerializationCommandInfo
dbc:__ZN14qsort_internal31_FindAndMovePivotToLastPositionIP14RenderPassDataiN23ForwardShaderRenderLoop18RenderObjectSorterILb1EEEEEvT_S6_T0_T1_
Ds:__ZN19StreamedBinaryWriteILb0EE8TransferI11QuaternionfEEvRT_PKc17TransferMetaFlags
x$:__ZN16LevelGameManager8TransferI13ProxyTransferEEvRT_
CLa:__ZN10systeminfo19IsPlatformWebPlayerE15RuntimePlatform
oGf:_m1494705524_0
iI:_il2cpp_string_chars
h1a:__ZNK20LocalFileSystemPosix18GetApplicationPathEv
jug:_m_768201318_0
Aaf:_m_1148200837_0
MPe:_m2074298781_0
e0:__ZN10GameObject16CheckConsistencyEv
Yrc:__ZN5physx9NpPhysics23notifyDeletionListenersEPKNS_6PxBaseEPvNS_19PxDeletionEventFlag4EnumE
baa:__ZN14RenderSettings15InitializeClassEv
Nbg:_m1041657915_0
JBd:__ZN5physx26PxcArticulationFnsSimdBase10computeSISERKNS_12PxcFsInertiaEPKNS_14PxcSIMDSpatialEPS4_
Wge:__ZN5physx6shdfnd5ArrayIPvNS0_19ReflectionAllocatorINS_2Sc24ElementInteractionMarkerEEEE15growAndPushBackERKS2_
Jqh:__Z44t1440006881_0_CustomAttributesCacheGeneratorP21CustomAttributesCache
hrh:__Z44t_979559868_0_CustomAttributesCacheGeneratorP21CustomAttributesCache
$Za:__ZN20ArchiveStorageHeader11WriteHeaderER12FileAccessorRKNS_6HeaderE
Lbd:__ZN5physx9PxTaskMgr15startSimulationEv
Jnb:__ZN13dynamic_arrayIN15SkyboxGenerator19CubemapSkyboxVertexELj4EE7reserveEj
VMc:__ZN5physx2Sc16InteractionScene20addToActiveActorListERNS0_5ActorE
NYh:__ZNKSt3__17num_getIwNS_19istreambuf_iteratorIwNS_11char_traitsIwEEEEE6do_getES4_S4_RNS_8ios_baseERjRy
JYh:__ZNKSt3__17num_getIwNS_19istreambuf_iteratorIwNS_11char_traitsIwEEEEE6do_getES4_S4_RNS_8ios_baseERjRx
hLh:__ZN21InterfaceFuncInvoker1Ii13t_456977453_0E6InvokeEjP8TypeInfoPvS0_
xrb:__ZN13dynamic_arrayI10Matrix4x4fLj16EE7reserveEj
ile:__ZN5physx15PxCpuDispatcherD2Ev
KYh:__ZNKSt3__17num_getIwNS_19istreambuf_iteratorIwNS_11char_traitsIwEEEEE6do_getES4_S4_RNS_8ios_baseERjRt
R5f:_m1892425923_0
hWh:__ZNSt3__112basic_stringIcNS_11char_traitsIcEENS_9allocatorIcEEEC2ERKS5_jjRKS4_
MYh:__ZNKSt3__17num_getIwNS_19istreambuf_iteratorIwNS_11char_traitsIwEEEEE6do_getES4_S4_RNS_8ios_baseERjRm
IYh:__ZNKSt3__17num_getIwNS_19istreambuf_iteratorIwNS_11char_traitsIwEEEEE6do_getES4_S4_RNS_8ios_baseERjRl
hng:_m_229658964_0
HYh:__ZNKSt3__17num_getIwNS_19istreambuf_iteratorIwNS_11char_traitsIwEEEEE6do_getES4_S4_RNS_8ios_baseERjRb
QYh:__ZNKSt3__17num_getIwNS_19istreambuf_iteratorIwNS_11char_traitsIwEEEEE6do_getES4_S4_RNS_8ios_baseERjRe
PYh:__ZNKSt3__17num_getIwNS_19istreambuf_iteratorIwNS_11char_traitsIwEEEEE6do_getES4_S4_RNS_8ios_baseERjRd
o8:__ZN9Projector15AddAsRenderNodeER15RenderNodeQueueRK11CullResultsi
g1g:_m_1443742635_0_gshared
Xqh:__Z45t_2041935170_0_CustomAttributesCacheGeneratorP21CustomAttributesCache
UIg:_m_1263414813_0
mNb:__ZN21UniformBufferTFMethodD2Ev
Kq:__ZN9Behaviour11FixedUpdateEv
Uyb:__ZL34GetComponentsImplementationRecurseILb1ELi1ELi2EEbR10GameObjectbRK17CompareParametersRK39GetComponentsImplementation_ReturnValue
U7b:__ZN6prcoreL12RemapGenericI15TexFormatRGB56515TexFormatRGB888EEvPKNS_9InnerInfoE
rPe:_m_1768254023_0
yha:__ZN14FileCacherReadC2ERKNSt3__112basic_stringIcNS0_11char_traitsIcEENS0_9allocatorIcEEEEjj
UMa:__ZN13MonoBehaviour15CreateCoroutineEP15ScriptingObject21ScriptingMethodIl2Cpp
lff:_m419361836_0
vya:__ZN16LightmapSettings13StaticCleanupEPv
ZP:__ZN6il2cpp2os20ThreadLocalValueImpl8SetValueEPv
u0f:_m212256533_0
Rxg:_m_113640505_0
i5f:_m388196207_0
Adb:__ZNK13GfxDeviceGLES13GetViewMatrixEv
Tja:__ZN9ShaderLab16ParserSubProgram14SetConstBufferEPKci
wla:__ZN12TLSAllocatorI14StackAllocatorEC2EPKc
tNf:_m1651255351_0
pub:__ZNK4PPtrI11LightProbesEptEv
YU:__ZN6il2cpp2vm10Reflection14GetFieldObjectEP8TypeInfoP9FieldInfo
Bu:__ZN13AudioListener12ApplyFiltersEv
jBd:__ZN5physxL32solveContactCoulomb4_StaticBlockEPKNS_23PxcSolverConstraintDescERNS_16PxcSolverContextE
dia:__ZN12ShaderErrors21ClearNonProgramErrorsEv
RWb:__ZL26Transfer_SimpleNativeClassI13ProxyTransfer17AnimationCurveTplIfELb0EEvRK29SerializationCommandArgumentsR31RuntimeSerializationCommandInfo
aOc:__ZN5physx2Sc9ClothCore18addCollisionSphereERKNS_22PxClothCollisionSphereE
H4g:__Z57t_224673028_0_CustomAttributesCacheGenerator_m845833267_0P21CustomAttributesCache
BN:__ZN6il2cpp8metadata27Il2CppGenericContextCompare7CompareEPK20Il2CppGenericContextS4_
sAb:__Z29StdTemplateConversionFunctionIyjEbPvR14SafeBinaryRead
RC:__ZN9AudioClip8TransferI14SafeBinaryReadEEvRT_
sM:__ZN6il2cpp6icalls8mscorlib6System7Runtime8Remoting16RemotingServices18IsTransparentProxyEP12Il2CppObject
h9d:__ZNK23PxsCMDiscreteUpdateTask7getNameEv
jlb:__ZZN6Camera15InitializeClassEvEN36FunctorImpl_Camera_kTransformChanged4CallEPviR11MessageData
Cpd:__ZN12PhysXRaycast7GetAABBER4AABBRKN5physx12PxOverlapHitE
Mce:__ZThn4_N5physx5cloth9ClothImplINS0_7SwClothEE24setTetherConstraintScaleEf
$5g:__Z56t82523145_0_CustomAttributesCacheGenerator_m1822467491_0P21CustomAttributesCache
D4g:__Z58t_224673028_0_CustomAttributesCacheGenerator_m_205190009_0P21CustomAttributesCache
mma:__ZN15DirectorManager14ConnectionPool16GrowEmptyBucketsEv
K9a:__ZN7ApiGLES15BlitFramebufferEjN2gl15FramebufferReadEjjiiiiiiiiNS0_15FramebufferMaskE
lSa:__ZN17PersistentManager32CopyToAwakeFromLoadQueueInternalER18AwakeFromLoadQueue
cWf:_m1150615631_0
yVh:__ZNSt3__17__sort3IRNS_6__lessIiiEEPiEEjT0_S5_S5_T_
YWh:__ZNSt3__115basic_streambufIcNS_11char_traitsIcEEE7seekoffExNS_8ios_base7seekdirEj
SVe:_m681521287_0
om:_open
_Fc:__ZN5physx2Sc10NPhaseCore33releaseActorPairContactReportDataEPNS0_26ActorPairContactReportDataE
cMb:__ZN21AssetBundleFileSystem5CloseER13FileEntryData
eJ:__ZN6il2cpp6icalls8mscorlib6System5Array5CloneEP11Il2CppArray
P2c:__ZN5physx35createFinalizeSolverContactsCoulombERNS_13PxcNpWorkUnitERNS_18PxcNpThreadContextEbbRNS_23PxcSolverConstraintDescEPKNS_13PxcSolverBodyES8_PKNS_17PxcSolverBodyDataESB_PKNS_12PxsRigidCoreESE_ffffRNS_25PxsConstraintBlockManagerENS_14PxFrictionType4EnumE
V1g:_m772382058_0_gshared
LQd:__ZNK5physx16PxBroadPhaseBase21getOutOfBoundsObjectsEv
Xqb:__ZZN15DirectorManager15InitializeClassEvEN47PreLateUpdateDirectorUpdateAnimationBeginstruct7ForwardEv
O7b:__ZN6prcoreL12RemapGenericI11TexFormatI815TexFormatRGB565EEvPKNS_9InnerInfoE
BAe:_m1448862391_0_gshared
qwh:__Z97RuntimeInvoker_t_19515315_0_t_887538054_0_t_887538054_0_t1628762099_0_t1628762099_0_t1628762099_0PK10MethodInfoPvPS2_
g_:__ZN6Object15GetSuperClassIDEi
gbb:__ZNK13TranslateGLES17FramebufferTargetEN2gl17FramebufferTargetE
Dhb:__ZL11on_gc_event11GCEventType
qOh:__ZL15CastclassSealedP13t_887538054_0P8TypeInfo407
ZSg:_m_869286465_0
_2f:_m_373858046_0
y8a:__ZN10systeminfo24GetProcessorFrequencyMHzEv
SKg:_m_1132793174_0
Pai:b61
Oai:b60
$ai:b67
_ai:b66
Zai:b65
Yai:b64
bbi:b69
abi:b68
Ymg:_m1400688178_0
Q3h:__ZNSt3__118__libcpp_refstringC2EPKc
ZLb:__ZN21AssetBundleFileSystem4OpenER13FileEntryData14FilePermission16FileAutoBehavior
GZa:__ZN21ArchiveStorageCreator10BeginBlockEb15CompressionType16CompressionLevelj
O_c:__ZN5physx33setupFinalizeExtSolverConstraintsERNS_13PxcNpWorkUnitERKNS_2Gu13ContactBufferERKNS_20PxcCorrelationBufferERKNS_11PxTransformESB_bPhRKNS_16PxsSolverExtBodyESF_RKNS_17PxcSolverBodyDataESI_ffffff
zNh:__ZL15CastclassSealedP13t_887538054_0P8TypeInfo146
rOd:__ZN5physx22NpParticleBaseTemplateINS_16PxParticleSystemENS_16NpParticleSystemEE13setVelocitiesEjRKNS_16PxStrideIteratorIKjEERKNS4_IKNS_6PxVec3EEE
u4:__Z28SetupPixelCorrectCoordinatesv
K6e:_m_1105966954_0
xNc:__ZNK5physx2Sc9ClothCore22getNbCollisionConvexesEv
Qrb:__Z18SkinGenericMathLibILi1ELb1ELb1EEvR12SkinMeshInfo
Nfa:__ZN15LODGroupManager26CollectAllLODGroupManagersEPK6CameraR13dynamic_arrayIPS_Lj4EEb
PIh:__Z41RuntimeInvoker_t760203687_0_t1628762099_0PK10MethodInfoPvPS2_
kwc:__ZNK5physx7NpShape14getNbMaterialsEv
b8f:_m_1075129123_0
$jd:__Z24sweepBox_HeightFieldGeomRKN5physx10PxGeometryERKNS_11PxTransformERKNS_2Gu3BoxERKNS_6PxVec3EfRNS_10PxSweepHitENS_7PxFlagsINS_9PxHitFlag4EnumEtEEf
mtd:__ZN5physx3Scb5Shape6Access5writeINS0_11ShapeBuffer3FnsILj4ELj0EEEEEvRS1_RNS_2Sc9ShapeCoreENT_3ArgE
gKg:_m_1207024980_0
OD:__ZN12AudioManagerD0Ev
WUh:___fwritex
agg:_m_811578412_0
dUb:__Z16Transfer_BuiltinIf14SafeBinaryReadLb0EEvRK29SerializationCommandArgumentsR31RuntimeSerializationCommandInfo
rQ:__ZN6il2cpp5utils35RegisterRuntimeInitializeAndCleanupC2EPFvvES3_i
lBa:__Z29DecompressNativeTextureFormat13TextureFormatiiPKjiiPj
bPa:__ZN18ScriptingArguments8GetCountEv
JAe:_m_1253339933_0_gshared
qYa:__ZN17ArchiveFileSystem14UnmountArchiveEP20ArchiveStorageReader
HRg:_m1116912880_0
qNf:_m1229511256_0
cUa:__ZN8Material12GetPassCountEv
qPa:__Z50ScriptingGetComponentsOfTypeFromGameObjectFastPathP10GameObjectP15ScriptingObject
lCh:__Z56RuntimeInvoker_t1628762099_0_t_818288618_0_t_818288618_0PK10MethodInfoPvPS2_
t8:__ZN16ReflectionProbes22ForceProbeToUseTextureER15ReflectionProbeP7Texture
Dnd:__ZN12MeshCollider21IsScaleBakingRequiredEv
hcd:__ZNK5physx6shdfnd10Foundation20getAllocatorCallbackEv
oTh:__ZNKSt3__120__vector_base_commonILb1EE20__throw_length_errorEv
KN:__ZN6il2cpp8metadata17Il2CppTypeCompare7CompareEPK10Il2CppTypeS4_
KD:__ZN9AudioClipD0Ev
cH:_il2cpp_class_from_name
C4g:__Z58t_224673028_0_CustomAttributesCacheGenerator_m1799348482_0P21CustomAttributesCache
ume:__ZN2UI11CanvasGroup16StaticInitializeEPv
Opb:__ZN13dynamic_arrayIN9ShaderLab11ShaderState12DeviceStatesELj4EE7reserveEj
Qla:__ZN25ThreadsafeLinearAllocatorC2EiiPKc
Dqh:__Z44t1748497654_0_CustomAttributesCacheGeneratorP21CustomAttributesCache
VQh:__ZL5UnBoxP13t_887538054_0P8TypeInfo866
X$f:_m_1855076003_0
iyd:__Z5splatILj1EE8Scalar4fRKS0_
zFc:__ZN5physx2Sc10NPhaseCore21filterRbCollisionPairERKNS0_8ShapeSimES4_PNS0_10FilterPairE
kSe:_m1779126194_0
pih:__Z58t867363288_0_CustomAttributesCacheGenerator_m_2035255297_0P21CustomAttributesCache
_ng:_m_1946428580_0
Wa:invoke_viiiiiiiiiiiiii
Qcd:__ZN5physx2Cm12RenderOutput13outputCapsuleEffRKNS0_8Matrix34E
c7g:__Z45t_1506757223_0_CustomAttributesCacheGeneratorP21CustomAttributesCache
UTf:_m_610929286_0
H$:__ZN17GlobalGameManager8TransferI19StreamedBinaryWriteILb0EEEEvRT_
Nna:__ZN19SkinnedMeshRenderer17PrepareSkinCommonEiP18JobBatchDispatcher
VDd:__Z26getPxVehicleWheelDataMMassPKN5physx18PxVehicleWheelDataE
XW:_UNITY_png_check_IHDR
aic:__ZN13RuntimeStaticI17UniqueIDGeneratorE10InitializeEv
r5:__ZN16GraphicsSettings22WarmupPreloadedShadersEv
Vre:_m1244492898_0_gshared
ria:__ZN9ShaderLab4Pass6RetainEv
Wqh:__Z43t878876138_0_CustomAttributesCacheGeneratorP21CustomAttributesCache
_7c:__Z40getPxVehicleWheelsSimData_SuspensionDataPKN5physx22PxVehicleWheelsSimDataEj
htg:_m_1083612503_0
tQc:__ZThn4_NK5physx5cloth9ClothImplINS0_7SwClothEE15unlockParticlesEv
dnc:__ZN5physx11NpAggregateD0Ev
oq:__ZNSt3__113__tree_removeIPNS_16__tree_node_baseIPvEEEEvT_S5_
$Qc:__ZN5physx5cloth11SwCollisionI8Scalar4fE10deallocateERKNS3_13CollisionDataE
z7e:_m_1379833673_0
pLd:__ZNK5physx10PxMaterial19getConcreteTypeNameEv
d0h:__ZNSt3__16locale5__impC2Ej
Hzd:__ZN5physx10RemovePairEjjRNS_14SapPairManagerERPjRjS4_
F_g:_m913618530_0_gshared
Oje:__ZN5physx2Cm29ConstraintImmediateVisualizer20visualizeJointFramesERKNS_11PxTransformES4_
Efh:__Z44t_738265248_0_CustomAttributesCacheGeneratorP21CustomAttributesCache
e0f:_m_1397181692_0
ard:__ZN5physx6shdfnd5ArrayINS_3Cct15ObstacleContext23InternalCapsuleObstacleENS0_19ReflectionAllocatorIS4_EEE15growAndPushBackERKS4_
lO:__ZN6il2cpp2os6Socket4SendEPKhiNS0_11SocketFlagsEPi
Trc:__ZNK5physx9NpPhysics15getClothFabricsEPPNS_13PxClothFabricEj
xqa:__ZNK18VertexChannelsInfoltERKS_
lTe:_m_213688470_0
IKe:_m255122339_0
dud:__ZN5physx6shdfnd5ArrayIPNS_2Sc7BodySimENS0_19ReflectionAllocatorIS4_EEE15growAndPushBackERKS4_
M4c:__ZN5physx2Sq13getGlobalPoseERKNS_3Scb5ShapeERKNS1_5ActorE
WZd:__ZN5physx7profile11EventHeader9streamifyINS0_15EventSerializerINS0_12MemoryBufferINS0_21WrapperNamedAllocatorEEEEEEEvRT_
qRf:_m492674313_0
M$g:_m527612421_0_gshared
m$a:__ZN10MemoryFileD0Ev
NGd:__ZN5physx2Gu19gjkLocalPenetrationINS0_8CapsuleVENS0_11ConvexHullVEEEjRKT_RKT0_RKNS_6shdfnd3aos6FloatVERNSB_5Vec3VESG_SG_RSC_PhSI_Rhb
tVe:_m_985217325_0
Lva:__Z27scripting_class_is_inflatedP14ScriptingClass
awf:_m_1586744321_0
WZc:__ZN5physx16PxsParticleShapeD0Ev
n5b:__ZNK27OverridingParameterPreparer15OnPrepareMatrixER12PartialArrayI10Matrix4x4fERKN20GpuProgramParameters14ValueParameterEj
u3f:_m2024354991_0
TW:_UNITY_png_free_data
HUb:__ZN13GUIStyleState8TransferI14SafeBinaryReadEEvRT_
wEg:_m_65837025_0
Td:_glDrawArrays
arh:__Z62t2037213698_0_CustomAttributesCacheGenerator_m_PersistentCallsP21CustomAttributesCache
alc:__ZN5physx3Cct26CharacterControllerManager17releaseControllerERNS_12PxControllerE
e2a:__Z24CreateDirectoryRecursiveRKNSt3__112basic_stringIcNS_11char_traitsIcEENS_9allocatorIcEEEE
Xnc:__ZNK5physx14NpArticulation14getWorldBoundsEf
Q0g:_m1062512971_0_gshared
Mqh:__Z44t1541373491_0_CustomAttributesCacheGeneratorP21CustomAttributesCache
nTc:__ZN5physx5cloth16TripletScheduler4simdEjj
vlg:_m1057142149_0
hXe:_m1304521025_0
swf:_m2136600871_0
xUe:_m_1296205553_0
VZa:__ZN20ArchiveStorageHeader19ReadHeaderSignatureER12FileAccessorRNS_6HeaderE
Mq:__ZN6Object10SmartResetEv
_Y:__ZThn108_N39AssetBundleLoadFromStreamAsyncOperation38OnArchiveStorageDirectoryInfoProcessedEP23ArchiveStorageConverterP20ArchiveStorageReader
gvg:_m421176084_0
e4f:_m_1223048071_0
Ukd:__ZN5physx2Gu25PersistentContactManifold24addBatchManifoldContactsEPKNS0_17PersistentContactEj
QMb:__ZL17ProgramUniform3ivPK7ApiGLESjiihPKv
O0d:__ZN5physx2Sn21RepXVisitorReaderBaseINS_27PxVehicleTireLoadFilterDataEE12readPropertyIfEEbRT_
QBf:_m785420605_0
lBb:__Z29StdTemplateConversionFunctionIhsEbPvR14SafeBinaryRead
nIb:__ZN9GfxDevice25GetBackBufferColorSurfaceEv
$$a:__ZN25SingleBlockMemoryFileData9SetLengthEy
Ksh:__Z55RuntimeInvoker_t_19515315_0_t_887538054_0_t1622626691_0PK10MethodInfoPvPS2_
yGc:__ZN5physx2Sc5Scene27setCCDContactModifyCallbackEPNS_26PxCCDContactModifyCallbackE
I2a:__Z14GetMessageLoopv
hbd:__ZNK5physx17ConvexMeshBuilder4saveERNS_14PxOutputStreamEb
bvg:_m_1553017778_0
nRf:_m_1674413195_0
YYh:__ZNSt3__19__num_getIwE19__stage2_float_loopEwRbRcPcRS4_wwRKNS_12basic_stringIcNS_11char_traitsIcEENS_9allocatorIcEEEEPjRSE_RjPw
HWh:__ZNSt3__112basic_stringIwNS_11char_traitsIwEENS_9allocatorIwEEE9push_backEw
mCc:__ZN5physx2Sc21ArticulationJointCore21setExternalComplianceEf
NBh:__Z42RuntimeInvoker_t_766435453_0_t1628762099_0PK10MethodInfoPvPS2_
aEa:__ZN9Texture3D23VirtualRedirectTransferER19StreamedBinaryWriteILb0EE
Vsh:__Z56RuntimeInvoker_t_19515315_0_t_887538054_0_t_1047984243_0PK10MethodInfoPvPS2_
dJg:_m1290929502_0
t_:__Z30GetDisableImmediateDestructionv
UKc:__ZNK5physx2Sc19ParticlePacketShape13getFilterInfoERjRNS_12PxFilterDataE
Vqa:__ZN21BillboardBatchManager24AutoBillboardShaderPropsC2ER16ShaderKeywordSetR24BuiltinShaderParamValues
Wwf:_m_2044418506_0
TWb:__ZL26Transfer_SimpleNativeClassI13ProxyTransfer10RectOffsetLb0EEvRK29SerializationCommandArgumentsR31RuntimeSerializationCommandInfo
SJf:_m1333946978_0
xab:__ZN7ApiGLES11FlushBufferEjN2gl12BufferTargetEll
aWg:_m_1558643179_0_gshared
sFb:__ZN12_GLOBAL__N_127PrepareReadback_ResolveMSAAER18GfxFramebufferGLESR7ApiGLESP17RenderSurfaceGLESS5_
Lqb:__ZN20AllocationHeaderBaseI24NullAllocationSizeHeaderE17ValidateIntegrityEPvi
kea:__ZN9Behaviour8TransferI19StreamedBinaryWriteILb0EEEEvRT_
ndf:_m_1210735756_0
QWb:__Z16Transfer_BuiltinI8BitField13ProxyTransferLb0EEvRK29SerializationCommandArgumentsR31RuntimeSerializationCommandInfo
J3b:__ZNK24RendererAnimationBinding9BindValueER6ObjectRKN11UnityEngine9Animation14GenericBindingERNS3_10BoundCurveE
af:_glBindBuffer
l_b:__ZN8GUIStyle8TransferI18StreamedBinaryReadILb0EEEEvRT_
Iq:__ZN5Unity9Component20WillDestroyComponentEv
_th:__Z43RuntimeInvoker_t_224166001_0_t_1190127860_0PK10MethodInfoPvPS2_
ktd:__ZN18MultiQueryCallbackIN5physx10PxSweepHitEE6invokeERfPKNS0_2Sq13PrunerPayloadEj
BDb:__ZNSt3__16vectorIN20ArchiveStorageHeader4NodeE13stl_allocatorIS2_L18MemLabelIdentifier53ELi16EEE8__appendEj
gCg:_m1643674103_0
xIa:__Z16GetBuildSettingsv
O5e:_m_1202825064_0
nRd:__ZNK5physx2Sq12BucketPruner10getPayloadERKj
Gcb:__ZN14GfxContextGLES8InstanceD2Ev
IOa:__ZN18LoadSceneOperation13CleanupMemoryEv
uUh:_isupper
hVf:_m771068001_0
bOd:__ZN5physx15NpActorTemplateINS_16PxParticleSystemEE12setActorFlagENS_11PxActorFlag4EnumEb
gxc:__ZN5physx13NpVolumeCache21setMaxNbDynamicShapesEj
iha:__ZN12CachedReaderD2Ev
t2h:__ZNKSt3__17num_getIwNS_19istreambuf_iteratorIwNS_11char_traitsIwEEEEE17__do_get_unsignedItEES4_S4_S4_RNS_8ios_baseERjRT_
ROd:__ZN5physx22NpParticleBaseTemplateINS_16PxParticleSystemENS_16NpParticleSystemEE13setRestOffsetEf
tKe:_m_929013345_0
byh:__Z113RuntimeInvoker_t_1047952454_0_t_887538054_0_t1628762099_0_t1628762099_0_t1628762099_0_t1628762099_0_t1352481524_0PK10MethodInfoPvPS2_
Qfh:__Z43t943011539_0_CustomAttributesCacheGeneratorP21CustomAttributesCache
Gf:_getuid
ZTe:_m1112962160_0
BXh:__ZNSt3__113basic_istreamIwNS_11char_traitsIwEEED1Ev
Glc:__ZNK5physx3Cct10Controller16getInternalStatsERNS_17PxControllerStatsE
XWe:_m481730652_0
wRd:__ZN5physx7CookingD0Ev
gK:__ZN6il2cpp6icalls8mscorlib6System8MonoType22get_IsGenericParameterEP20Il2CppReflectionType
PZb:__Z16Transfer_BuiltinId18StreamedBinaryReadILb0EELb0EEvRK29SerializationCommandArgumentsR31RuntimeSerializationCommandInfo
ive:_m_1038491319_0_gshared
rpf:_m759386634_0
zFd:__ZL19ExtractHullPolygonsRjRN5physx2Gu9ContainerERKNS0_17ConvexHullBuilderEPS2_S3_
Bqe:_m_421495337_0_gshared
PMc:__ZN5physx2Sc7Element20createLowLevelVolumeEjRKNS_9PxBounds3EjRKNS_9AABBMgrIdE
Ste:_m1809235202_0_gshared
l0a:__Z24GetAssetBundleFileSystemv
Kfa:__Z25InitializeLODGroupManagerPv
Oqh:__Z59t1236822669_0_CustomAttributesCacheGenerator_m_1704510511_0P21CustomAttributesCache
uDg:_m62389004_0
elg:_m589251925_0
GVa:__ZN19ShaderPropertySheet5ClearEb
ELh:__ZN21InterfaceFuncInvoker1IiiE6InvokeEjP8TypeInfoPvi
dfh:__Z87t_1692593868_0_CustomAttributesCacheGenerator_t_1692593868_0____PublicOnly_PropertyInfoP21CustomAttributesCache
kXh:__ZNSt3__115basic_streambufIwNS_11char_traitsIwEEE6setbufEPwi
L0b:__Z19TransferField_ArrayI19StreamedBinaryWriteILb0EE19Converter_PrimitiveI8BitFieldEEvRK23StaticTransferFieldInfoR31RuntimeSerializationCommandInfoRT0_
KZ:__ZN6Object17InsertObjectInMapEPS_
i3:__ZNK6Camera11GetPositionEv
Wci:_emscripten_glClearDepth__wrapper
DP:__ZN6il2cpp2os5posix15PosixWaitObject24UnlockWaitObjectDeletionEv
dlb:__ZN10TagManager8TransferI18StreamedBinaryReadILb1EEEEvRT_
tg:_glUniform1fv
wg:_JS_FileSystem_Sync
lCa:__ZN7Texture8TransferI18StreamedBinaryReadILb1EEEEvRT_
U4a:__Z27Camera_CUSTOM_GetAllCamerasP14ScriptingArray
YGd:__ZN5physx2Gu22gjkRelativePenetrationINS0_8CapsuleVES2_EEjRKT_RKT0_RKNS_6shdfnd3aos15PsMatTransformVERKNSA_6FloatVERNSA_5Vec3VESI_SI_RSE_PhSK_Rh
vxc:__ZN5physx15NpParticleFluid12setStiffnessEf
bQf:_m357023199_0
Fea:__Z22DelayedDestroyCallbackP6ObjectPv
VCe:_m_547219099_0_gshared
Ibg:_m706824555_0
Sra:__ZN13DrawImmediate5BeginE16GfxPrimitiveTypePK14ChannelAssigns
qKh:__ZL30il2cpp_codegen_raise_exceptionP13t2143823668_03
SKh:__ZL30il2cpp_codegen_raise_exceptionP13t2143823668_04
ssc:__ZN5physx14NpRigidDynamic16setLinearDampingEf
u7c:__Z36getPxVehicleEngineData_RecipMaxOmegaPKN5physx19PxVehicleEngineDataE
tLd:__ZNK5physx14PxRigidDynamic19getConcreteTypeNameEv
gmf:_m_735473516_0
i5g:__Z92t1621492670_0_CustomAttributesCacheGenerator_t1621492670_0_m_1989763075_0_Arg1_ParameterInfoP21CustomAttributesCache
rUf:_m1645560313_0
s8e:_m731467895_0
_ae:__ZNK5physx5cloth9ClothImplINS0_7SwClothEE28isContinuousCollisionEnabledEv
MKb:__ZN11TimeManagerD0Ev
Rdh:__Z45t_1647032679_0_CustomAttributesCacheGeneratorP21CustomAttributesCache
VVe:_m1671707015_0
tcc:__ZN4PPtrI5LightE8TransferI13ProxyTransferEEvRT_
Pv:__ZN12AudioManager33GetAudioEffectInternalDefinitionsEv
uFc:__ZN5physx2Sc10NPhaseCore26createRbElementInteractionERNS0_8ShapeSimES3_
_0a:__ZN20LocalFileSystemPosix4OpenER13FileEntryData14FilePermission16FileAutoBehavior
Jcg:_m476014489_0
S9a:__ZN7ApiGLES11BindTextureEj16TextureDimension
Puf:_m228744192_0
kdc:__ZN13ProxyTransfer8TransferI13ProbeSetIndexEEvRT_PKc17TransferMetaFlags
dAd:__ZN5physx6shdfnd8PoolBaseINS_2Gu30LargePersistentContactManifoldENS0_19ReflectionAllocatorIS3_EEE15disposeElementsEv
mTe:_m_718615983_0
Vbi:_glGetVertexAttribPointerv__wrapper
aYg:_m115979225_0_gshared
kvd:__ZN5physx6shdfnd5ArrayIPNS_2Sc17ParticleSystemSimENS0_19ReflectionAllocatorIS4_EEE15growAndPushBackERKS4_
Ipf:_m965209598_0
mwc:__ZNK5physx7NpShape32getMaterialFromInternalFaceIndexEj
jfa:__ZN22RenderingCommandBuffer20ExecuteCommandBufferER17ShaderPassContextRK15RenderNodeQueue
QGh:__Z57RuntimeInvoker_t_224166001_0_t1628762099_0_t_1047952454_0PK10MethodInfoPvPS2_
NUf:_m_2041043727_0
R3g:__Z59t1458036598_0_CustomAttributesCacheGenerator_m_2122242982_0P21CustomAttributesCache
gTa:__Z23InitializeStdConvertersv
k8e:_m953943694_0
yrc:__ZN5physx9NpPhysics19createParticleFluidEjb
lFa:__ZN9Transform16StaticInitializeEPv
$ad:__ZN5physx17ConvexMeshBuilderD2Ev
QWf:_m2135076121_0
n7g:__Z66t_1465926637_0_CustomAttributesCacheGenerator_U3CU3Ef__amU24cacheBP21CustomAttributesCache
hwf:_m136688779_0
$vc:__ZNK5physx7NpShape23getTriangleMeshGeometryERNS_22PxTriangleMeshGeometryE
Llf:_m981442986_0
wPg:_m_133162503_0
qS:__ZN6il2cpp2vm9Exception27GetExecutionEngineExceptionEPKc
Dhg:_m754565220_0
uPd:__ZN5physx2Sc11Interaction10initializeEv
ntc:__ZN5physx7NpScene7releaseEv
s8d:__ZNK5physx21PxsFluidCollisionTask7getNameEv
Rh:_JS_WebRequest_GetResponseHeaders
wzb:__ZNSt3__16__treeINS_12__value_typeINS_4pairIPcS3_EEPFbPvR14SafeBinaryReadEEENS_19__map_value_compareIS4_SA_20smaller_cstring_pairLb1EEENS_9allocatorISA_EEE7destroyEPNS_11__tree_nodeISA_S5_EE
FZa:__ZN21ArchiveStorageCreator10BeginBlockE15CompressionType16CompressionLevelj
yUf:_m1999373130_0
lEa:__Z19IsHalfTextureFormat13TextureFormat
qua:__ZN9Scripting18RaiseNullExceptionEPKcz
Veg:_m1407016397_0
ofe:__ZN5physx2Cm12DelegateTaskINS_2Sc5SceneEXadL_ZNS3_11postCCDPassEPNS_10PxBaseTaskEEEE11runInternalEv
FQc:__ZThn4_N5physx5cloth9ClothImplINS0_7SwClothEE14setPhaseConfigENS0_5RangeIKNS0_11PhaseConfigEEE
ei:_glCreateProgram
Cxe:_m1900106744_0_gshared
yhe:__ZN5physx6shdfnd5ArrayIPNS_3Scb5ShapeENS0_15InlineAllocatorILj16ENS0_19ReflectionAllocatorIS4_EEEEE6resizeEjRKS4_
Kja:__ZN9ShaderLab9SubShader25CreateFromParsedSubShaderERKNS_15ParserSubShaderERNSt3__16vectorI4PPtrI6ShaderENS4_9allocatorIS8_EEEEbR12ShaderErrorsPS7_
cnb:__ZL33CalculateReflectionProbeLerpValuefiRK4AABBfiS1_S1_20ReflectionProbeUsage
lba:__ZN15SkyboxGenerator26ReleaseSkyboxVertexBuffersEv
x1h:__ZNKSt3__17codecvtIDic11__mbstate_tE9do_lengthERS1_PKcS5_j
C8h:_glUniformMatrix3fv__wrapper
jGc:__ZN5physx2Sc8RigidSimC2ERNS0_5SceneERNS0_9RigidCoreENS0_14IslandNodeInfo4TypeE
rBd:__ZNK5physx2Gu15HeightFieldUtil12traceSegmentINS_30PxcContactTraceSegmentCallbackELb1ELb1ELb0EEEvRKNS_6PxVec3ES6_PT_PS5_
pkc:__ZThn8_N5physx3Cct17CapsuleControllerD1Ev
M3d:__ZNK5physx28PxVehicleWheelsGeneratedInfo23visitInstancePropertiesINS_18RepXPropertyFilterINS_2Sn17RepXVisitorWriterINS_18PxVehicleDriveTankEEEEEEEjT_j
icd:__ZN5physx6shdfnd10Foundation5errorENS_11PxErrorCode4EnumEPKciS5_z
Ppc:__ZN5physx12NpConstraint9markDirtyEv
_9f:_m673046967_0
dbf:_m1273465607_0
qEd:__Z37setPxVehicleSuspensionDataMSprungMassPN5physx23PxVehicleSuspensionDataEf
ykd:__ZN5physx2Gu31generatedCapsuleBoxFaceContactsERKNS0_8CapsuleVERNS0_13PolygonalDataERKNS0_15HullPolygonDataEPNS0_12SupportLocalERKNS_6shdfnd3aos15PsMatTransformVEPNS0_17PersistentContactERjRKNSC_6FloatVERKNSC_5Vec3VE
YLe:_m974397704_0
pye:_m490684402_0_gshared
zJh:__Z28RuntimeInvoker_t1060424077_0PK10MethodInfoPvPS2_
sHb:__ZNK3WWW17GetThreadPriorityEv
a1g:_m_1935979866_0_gshared
OZa:__ZN20ArchiveStorageHeader13GetHeaderSizeERKNS_6HeaderE
fUg:_m764060079_0
Aph:__Z57t_867674284_0_CustomAttributesCacheGenerator_m680239315_0P21CustomAttributesCache
Vlg:_m_250948003_0
q2b:__ZNSt3__16vectorI8UnityStr13stl_allocatorIS1_L18MemLabelIdentifier11ELi16EEE6assignINS_11__wrap_iterIPS1_EEEENS_9enable_ifIXaasr21__is_forward_iteratorIT_EE5valuesr16is_constructibleIS1_NS_15iterator_traitsISB_E9referenceEEE5valueEvE4typeESB_SB_
p8c:__Z49setPxVehicleWheelsSimData_TireForceAppPointOffsetPN5physx22PxVehicleWheelsSimDataEjNS_6PxVec3E
lrb:__ZN13dynamic_arrayIP9GfxBufferLj4EE7reserveEj
A1g:_m_586000178_0_gshared
$Y:__ZN39AssetBundleLoadFromStreamAsyncOperation10FeedStreamEPKvj
